((dp0
S'arm_dbg_args'
p1
S'-via:"e:\\4410-5-1-13\\team-game-4410\\Game Source\\AIMessage\\build_aimessage_vc10\\AIMessage_vc10_arm_debug.via" -qemu'
p2
sS'game-icf'
p3
S''
p4
sS'dist'
p5
NsS'module_path_append'
p6
NsS'global_path'
p7
S'e:\\4410-5-1-13\\team-game-4410\\game source'
p8
sS'system_path'
p9
S'c:\\marmalade\\6.2\\s3e\\makefile_builder'
p10
sS'use_prebuilt'
p11
NsS'arm_rel_rtsm_args'
p12
S'-via:"e:\\4410-5-1-13\\team-game-4410\\Game Source\\AIMessage\\build_aimessage_vc10\\AIMessage_vc10_arm_release.via" -qemu'
p13
sS'amd64'
p14
NsS'debug'
p15
NsS'line-width'
p16
I80
sS'gcc_dbg_args'
p17
S'-via:"e:\\4410-5-1-13\\team-game-4410\\Game Source\\AIMessage\\build_aimessage_vc10\\AIMessage_vc10_gcc_debug.via" -qemu'
p18
sS'x86_dbg_exe'
p19
S'c:/marmalade/6.2/s3e\\win32\\s3e_simulator_debug.exe'
p20
sS'disable-runtime-checks'
p21
NsS'no-make'
p22
NsS'optimise-size'
p23
NsS'output-name-debug'
p24
g4
sS'arm-fpu'
p25
S'vfp'
p26
sS'psp'
p27
NsS'proj_name'
p28
S'AIMessage_vc10'
p29
sS'rvct-version'
p30
S'none'
p31
sS'compiler'
p32
g4
sS'execute'
p33
NsS'compile-static'
p34
NsS'msvc-project'
p35
I01
sS'buildenv'
p36
g4
sS'release'
p37
NsS'module_path'
p38
NsS'use-release-std-libs'
p39
NsS'using_perforce'
p40
I00
sS'mips-s3e'
p41
NsS'shared-arm-lib'
p42
NsS'arm-cpu'
p43
g4
sS'compile-thumb'
p44
NsS'no-ide'
p45
NsS'msvc-version'
p46
S'6.0'
p47
sS'arm'
p48
NsS'builddir'
p49
g4
sS'compile-debug-as-release'
p50
I0
sS'brief'
p51
NsS'dll'
p52
NsS'version'
p53
NsS'ccache'
p54
I0
sS'offline'
p55
NsS'ios-version'
p56
g4
sS'jobs'
p57
I0
sS'linkflags'
p58
NsS'quick'
p59
NsS'gcc_rel_rtsm_args'
p60
S'-via:"e:\\4410-5-1-13\\team-game-4410\\Game Source\\AIMessage\\build_aimessage_vc10\\AIMessage_vc10_gcc_release.via" -qemu'
p61
sS'done_defaults'
p62
I1
sS'path'
p63
NsS's3e-data-dir'
p64
S'e:/4410-5-1-13/team-game-4410/Game Source/AIMessage\\data'
p65
sS'enable-exceptions'
p66
NsS'osx-dll'
p67
NsS'extension'
p68
g4
sS'no-vc6'
p69
NsS'non-interactive'
p70
NsS'win32-console'
p71
NsS'nds'
p72
NsS'dist-format'
p73
g4
sS's3e-force-arch'
p74
NsS'dump_defines'
p75
NsS'verbose'
p76
I0
sS'psp-minis'
p77
NsS'gcc-version'
p78
g4
sS'x86_dbg_args'
p79
S'-via:"e:\\4410-5-1-13\\team-game-4410\\Game Source\\AIMessage\\build_aimessage_vc10\\AIMessage_vc10_debug.via"'
p80
sS'arm-debugger'
p81
g4
sS'use_temp_extension'
p82
NsS'log'
p83
NsS'no-strip'
p84
NsS'rebuild'
p85
NsS'win32-simulator-dll'
p86
NsS'strict'
p87
NsS'mips_dbg_args'
p88
S'../../tools/DeployTool/DeployTool.exe --dir "e:\\4410-5-1-13\\team-game-4410\\Game Source\\AIMessage\\build_aimessage_vc10"'
p89
sS'enable-global-path'
p90
NsS'iphone'
p91
NsS'cflags'
p92
NsS'dist-dir'
p93
g4
sS'jflags'
p94
NsS'distcc'
p95
NsS'external-compiler'
p96
NsS'no-distcc'
p97
NsS'preinclude'
p98
NsS'using_sdk'
p99
I01
sS'nologo'
p100
NsS'warn-level'
p101
I2
sS'mips_dbg_exe'
p102
S'c:\\marmalade\\6.2\\s3e\\makefile_builder\\tool_launcher.exe'
p103
sS'mkb_in'
p104
S'e:/4410-5-1-13/team-game-4410/Game Source/AIMessage/AIMessage.mkb'
p105
sS'arm_dbg_exe'
p106
S'c:/marmalade/6.2/s3e\\bin\\armdebug.exe'
p107
sS'list-targets'
p108
NsS'arm_rel_exe'
p109
g103
sS'arm_rel_args'
p110
g89
sS'makedeps'
p111
NsS'default-buildenv'
p112
S'vc10'
p113
sS'x86_rel_exe'
p114
g20
sS'preprocess-java'
p115
NsS'mips_rel_args'
p116
g89
sS'defines'
p117
NsS'lib'
p118
NsS'global_argv'
p119
(lp120
S'C:\\Marmalade\\6.2\\s3e\\makefile_builder\\mkb.py'
p121
aS'e:/4410-5-1-13/team-game-4410/Game Source/AIMessage/AIMessage.mkb'
p122
aS'--default-buildenv=vc10'
p123
aS'--msvc-project'
p124
asS'make'
p125
NsS'optimise-speed'
p126
NsS'internal'
p127
NsS'enable-stdinc'
p128
NsS'deploy-only'
p129
NsS'x86'
p130
NsS'deploy'
p131
g4
sS'x86_run_exe'
p132
S'c:/marmalade/6.2/s3e\\win32\\s3e_console.exe'
p133
sS'x86_rel_args'
p134
S'-via:"e:\\4410-5-1-13\\team-game-4410\\Game Source\\AIMessage\\build_aimessage_vc10\\AIMessage_vc10_release.via"'
p135
sS'gcc_rel_args'
p136
g89
sS'mips'
p137
NsS'incredibuild'
p138
NsS'strict-compile'
p139
NsS'use-auto-subdirs'
p140
NsS'mips_rel_exe'
p141
g103
sS'app-icf'
p142
g4
sS'deployargs'
p143
NsS'mkf_in'
p144
(lp145
S'c:\\marmalade\\6.2\\modules\\iw2d\\iw2d.mkf'
p146
aS'c:\\marmalade\\6.2\\modules\\iwgx\\iwgx.mkf'
p147
aS'c:\\marmalade\\6.2\\modules\\iwgeom\\iwgeom.mkf'
p148
aS'c:\\marmalade\\6.2\\modules\\iwutil\\iwutil.mkf'
p149
aVc:\u005cusers\u005cdizzi\u005cappdata\u005croaming\u005cmarmalade\u005cpackages\u005c6.2.0\u005clibjpeg_6b\u005clibjpeg.mkf
p150
aVc:\u005cusers\u005cdizzi\u005cappdata\u005croaming\u005cmarmalade\u005cpackages\u005c6.2.0\u005clibpng_1.2.34\u005clibpng.mkf
p151
aVc:\u005cusers\u005cdizzi\u005cappdata\u005croaming\u005cmarmalade\u005cpackages\u005c6.2.0\u005czlib_1.2.4\u005czlib.mkf
p152
aS'c:\\marmalade\\6.2\\modules\\iwresmanager\\iwresmanager.mkf'
p153
aS'c:\\marmalade\\6.2\\modules\\iwgl\\iwgl.mkf'
p154
aS'c:\\marmalade\\6.2\\modules\\iwgxfont\\iwgxfont.mkf'
p155
aVc:\u005cusers\u005cdizzi\u005cappdata\u005croaming\u005cmarmalade\u005cpackages\u005c6.2.0\u005ctiniconv_1.0.1\u005ctiniconv.mkf
p156
aS'e:\\4410-5-1-13\\team-game-4410\\game source\\aimessage\\tinyxml.mkf'
p157
aS'c:\\marmalade\\6.2\\modules\\iwui\\iwui.mkf'
p158
asS'strict-mkb'
p159
NsS'executeargs'
p160
NsS'clean'
p161
NsS'no-asm'
p162
NsS'output-name'
p163
g4
sS'no-modules'
p164
NsS'find_define'
p165
g4
s(dp166
S'c:\\marmalade\\6.2\\s3e\\makefile_builder\\templates\\xcode_pbxuser.py'
p167
F1355847712.0
sS'c:\\marmalade\\6.2\\s3e\\makefile_builder\\templates'
p168
F1360815281.5160065
sS'c:\\marmalade\\6.2\\s3e\\makefile_builder\\plugins\\null.pyc'
p169
F1355859750.0
sS'c:\\marmalade\\6.2\\s3e\\makefile_builder\\plugins\\XcodeEmitter.pyc'
p170
F1363047645.8571384
sS'c:\\marmalade\\6.2\\s3e\\makefile_builder\\plugins'
p171
F1363047645.9039383
sS'c:\\marmalade\\6.2\\s3e\\makefile_builder\\extensions'
p172
F1360815281.5210066
sS'c:\\marmalade\\6.2\\s3e\\makefile_builder\\templates\\vc6_opt.pyc'
p173
F1355859750.0
sS'c:\\marmalade\\6.2\\s3e\\makefile_builder\\templates\\win32_vcxproj_filters.pyc'
p174
F1355859750.0
sS'c:\\marmalade\\6.2\\s3e\\makefile_builder\\mkb_parser.pyc'
p175
F1355859750.0
sS'c:\\marmalade\\6.2\\s3e\\makefile_builder\\plugins\\xcode4_schememanagement.pyc'
p176
F1363047645.8571384
sS'c:\\marmalade\\6.2\\s3e\\makefile_builder\\plugins\\win32_vc6.pyc'
p177
F1355859750.0
sS'c:\\marmalade\\6.2\\s3e\\makefile_builder\\templates\\template.suo'
p178
F1355847712.0
sS'c:\\marmalade\\6.2\\s3e\\makefile_builder\\plugins\\s3e_xcode.py'
p179
F1355847710.0
sS'c:\\marmalade\\6.2\\s3e\\makefile_builder\\templates\\make.py'
p180
F1355847710.0
sS'c:\\marmalade\\6.2\\s3e\\makefile_builder\\docs\\options.txt'
p181
F1355847710.0
sS'c:\\marmalade\\6.2\\s3e\\makefile_builder\\plugins\\linux_scons.pyc'
p182
F1355859750.0
sS'c:\\marmalade\\6.2\\s3e\\makefile_builder\\templates\\linker_script'
p183
F1355847710.0
sS'c:\\marmalade\\6.2\\s3e\\makefile_builder\\plugins\\s3e_scons.pyc'
p184
F1355859750.0
sS'c:\\marmalade\\6.2\\s3e\\makefile_builder\\templates\\xcode.py'
p185
F1355847712.0
sS'c:\\marmalade\\6.2\\s3e\\makefile_builder\\plugins\\java.pyc'
p186
F1355859750.0
sS'c:\\marmalade\\6.2\\s3e\\makefile_builder\\templates\\win32_dsw.pyc'
p187
F1355859750.0
sS'c:\\marmalade\\6.2\\s3e\\makefile_builder\\docs\\mkb.defines.txt'
p188
F1355847710.0
sS'c:\\marmalade\\6.2\\s3e\\makefile_builder\\docs\\deprecated.defines.txt'
p189
F1355847710.0
sS'c:\\marmalade\\6.2\\s3e\\makefile_builder\\templates\\win32_vcxproj.pyc'
p190
F1355859750.0
sS'c:\\marmalade\\6.2\\s3e\\makefile_builder\\deployment.pyc'
p191
F1355859750.0
sS'c:\\marmalade\\6.2\\s3e\\makefile_builder\\plugins\\s3e_qmake.py'
p192
F1355847710.0
sS'c:\\marmalade\\6.2\\s3e\\makefile_builder\\templates\\win32_sln.pyc'
p193
F1355859750.0
sS'c:\\marmalade\\6.2\\s3e\\makefile_builder\\tool_launcher.exe'
p194
F1355848704.0
sS'c:\\marmalade\\6.2\\s3e\\makefile_builder\\plugins\\Emitter.pyc'
p195
F1355859750.0
sS'c:\\marmalade\\6.2\\s3e\\makefile_builder\\docs\\deprecated.options.txt'
p196
F1355847710.0
sS'c:\\marmalade\\6.2\\s3e\\makefile_builder\\templates\\rvct_linker_script'
p197
F1355847712.0
sS'c:\\marmalade\\6.2\\s3e\\makefile_builder\\plugins\\vc6_utils.pyc'
p198
F1355859750.0
sS'c:\\marmalade\\6.2\\s3e\\makefile_builder\\mkb_main.pyc'
p199
F1355859750.0
sS'c:\\marmalade\\6.2\\s3e\\makefile_builder\\plugins\\iphone.pyc'
p200
F1355859750.0
sS'c:\\marmalade\\6.2\\s3e\\makefile_builder\\plugins\\S3EEmitter.pyc'
p201
F1355859750.0
sS'c:\\marmalade\\6.2\\s3e\\makefile_builder\\plugins\\xcode4_schememanagement.py'
p202
F1355847710.0
sS'c:\\marmalade\\6.2\\s3e\\makefile_builder\\templates\\xcode4_DeployTool.xcscheme'
p203
F1355847712.0
sS'c:\\marmalade\\6.2\\s3e\\makefile_builder\\mkb_util.pyc'
p204
F1355859750.0
sS'c:\\marmalade\\6.2\\s3e\\makefile_builder\\mkb_globals.pyc'
p205
F1355859750.0
sS'c:\\marmalade\\6.2\\s3e\\makefile_builder\\templates\\qmake_user.py'
p206
F1355847710.0
sS'c:\\marmalade\\6.2\\s3e\\makefile_builder\\plugins\\vc7_utils.pyc'
p207
F1355859750.0
sS'c:\\marmalade\\6.2\\s3e\\makefile_builder\\templates\\MainWindow.xib'
p208
F1355847710.0
sS'c:\\marmalade\\6.2\\s3e\\makefile_builder\\plugins\\s3e_make.pyc'
p209
F1355859750.0
sS'c:\\marmalade\\6.2\\s3e\\makefile_builder\\templates\\vc10_user.pyc'
p210
F1355859750.0
sS'c:\\marmalade\\6.2\\s3e\\makefile_builder\\templates\\Info.plist'
p211
F1355847710.0
sS'c:\\marmalade\\6.2\\s3e\\makefile_builder\\plugins\\SConsEmitter.pyc'
p212
F1355859750.0
sS'c:\\marmalade\\6.2\\s3e\\makefile_builder\\docs'
p213
F1360815281.5550086
sS'c:\\marmalade\\6.2\\s3e\\makefile_builder\\mkb_option.pyc'
p214
F1355859750.0
sS'c:\\marmalade\\6.2\\s3e\\makefile_builder\\docs\\parse_options.pyc'
p215
F1355859752.0
sS'c:\\marmalade\\6.2\\s3e\\makefile_builder\\plugins\\XcodeEmitter.py'
p216
F1355847710.0
sS'c:\\marmalade\\6.2\\s3e\\makefile_builder\\mkb_launcher.exe'
p217
F1355848700.0
sS'c:\\marmalade\\6.2\\s3e\\makefile_builder\\templates\\vc8_user.pyc'
p218
F1355859750.0
sS'c:\\marmalade\\6.2\\s3e\\makefile_builder\\templates\\win32_dsp.pyc'
p219
F1355859750.0
sS'c:\\marmalade\\6.2\\s3e\\makefile_builder\\templates\\mips_linker_script'
p220
F1355847710.0
sS'c:\\marmalade\\6.2\\s3e\\makefile_builder\\mkb.py'
p221
F1355847710.0
sS'c:\\marmalade\\6.2\\s3e\\makefile_builder\\plugins\\osx_scons.pyc'
p222
F1355859750.0
sS'c:\\marmalade\\6.2\\s3e\\makefile_builder\\plugins\\deploy.pyc'
p223
F1355859750.0
sS'c:\\marmalade\\6.2\\s3e\\makefile_builder\\plugins\\VisualStudioEmitter.pyc'
p224
F1355859750.0
sS'c:\\marmalade\\6.2\\s3e\\makefile_builder\\plugins\\s3e_qmake.pyc'
p225
F1363047645.8883383
sS'c:\\marmalade\\6.2\\s3e\\makefile_builder\\plugins\\s3e_xcode.pyc'
p226
F1363047645.9039383
sS'c:\\marmalade\\6.2\\s3e\\makefile_builder\\docs\\deployment_options.txt'
p227
F1355847710.0
sS'c:\\marmalade\\6.2\\s3e\\makefile_builder\\plugins\\s3e_web.pyc'
p228
F1355859750.0
sS'c:\\marmalade\\6.2\\s3e\\makefile_builder\\templates\\template.opt'
p229
F1355847712.0
sS'c:\\marmalade\\6.2\\s3e\\makefile_builder\\templates\\scons.pyc'
p230
F1355859750.0
sS'c:\\marmalade\\6.2\\s3e\\makefile_builder\\templates\\xcode4.xcscheme'
p231
F1355847712.0
sS'c:\\marmalade\\6.2\\s3e\\makefile_builder\\templates\\vc7_suo.pyc'
p232
F1355859750.0
sS'c:\\marmalade\\6.2\\s3e\\makefile_builder\\plugins\\MakeEmitter.pyc'
p233
F1355859750.0
sS'c:\\marmalade\\6.2\\s3e\\makefile_builder\\templates\\qmake.py'
p234
F1355847710.0
sS'c:\\marmalade\\6.2\\s3e\\makefile_builder\\templates\\win32_vcproj.pyc'
p235
F1355859750.0
sS'c:\\marmalade\\6.2\\s3e\\makefile_builder\\templates\\gdb_start.txt'
p236
F1355847710.0
sS'c:\\marmalade\\6.2\\s3e\\makefile_builder\\plugins\\s3e_vc6.pyc'
p237
F1355859750.0
sS'c:\\marmalade\\6.2\\s3e\\makefile_builder\\plugins\\osx_xcode.pyc'
p238
F1355859750.0
sS'c:\\marmalade\\6.2\\s3e\\makefile_builder\\extensions\\make_dist.py'
p239
F1355847710.0
sccopy_reg
_reconstructor
p240
(cmkb_main
MkbFile
p241
c__builtin__
object
p242
Ntp243
Rp244
(dp245
g5
(lp246
sS'target_name'
p247
S'AIMessage'
p248
sS'current_file'
p249
g105
sS'package_path'
p250
(lp251
VC:\u005cUsers\u005cDizzi\u005cAppData\u005cRoaming\u005cMarmalade\u005cpackages\u005c6.2.0\u005clibjpeg_6b
p252
aVC:\u005cUsers\u005cDizzi\u005cAppData\u005cRoaming\u005cMarmalade\u005cpackages\u005c6.2.0\u005clibpng_1.2.34
p253
aVC:\u005cUsers\u005cDizzi\u005cAppData\u005cRoaming\u005cMarmalade\u005cpackages\u005c6.2.0\u005czlib_1.2.4
p254
aVC:\u005cUsers\u005cDizzi\u005cAppData\u005cRoaming\u005cMarmalade\u005cpackages\u005c6.2.0\u005ctiniconv_1.0.1
p255
asS'post_build'
p256
(lp257
(lp258
S'c:/marmalade/6.2/s3e/tools'
p259
aS'C:\\Marmalade\\6.2\\s3e\\python\\python.exe .\\process_map.py "$(TargetPath)"'
p260
aa(S'c:\\marmalade\\6.2\\s3e'
p261
S'"c:\\marmalade\\6.2\\s3e\\bin\\s3e_plink" -l "$(TargetPath)"'
p262
g130
tp263
asS'librarys'
p264
(lp265
g240
(cmkb_main
Library
p266
g242
Ntp267
Rp268
(dp269
S'name'
p270
S'vc6_compat.lib'
p271
sS'expand_name'
p272
I00
sS'include_spec_rvct_objs'
p273
(lp274
sS'include_all_objs'
p275
I00
sS'share_arm'
p276
I00
sS'arch'
p277
S'x86'
p278
sS'nodebug'
p279
I00
sg32
Nsbag240
(g266
g242
Ntp280
Rp281
(dp282
g270
S'jpeg'
p283
sg272
I01
sg273
(lp284
sg275
I00
sg276
Nsg277
Nsg279
I00
sg32
Nsbag240
(g266
g242
Ntp285
Rp286
(dp287
g270
S'z'
p288
sg272
I01
sg273
g284
sg275
I00
sg276
Nsg277
Nsg279
I00
sg32
Nsbag240
(g266
g242
Ntp289
Rp290
(dp291
g270
S'png'
p292
sg272
I01
sg273
g284
sg275
I00
sg276
Nsg277
Nsg279
I00
sg32
Nsbag240
(g266
g242
Ntp293
Rp294
(dp295
g270
S'iwutil'
p296
sg272
I01
sg273
g284
sg275
I00
sg276
I01
sg277
Nsg279
I00
sg32
Nsbag240
(g266
g242
Ntp297
Rp298
(dp299
g270
S'iwgeom'
p300
sg272
I01
sg273
g284
sg275
I00
sg276
I01
sg277
Nsg279
I00
sg32
Nsbag240
(g266
g242
Ntp301
Rp302
(dp303
g270
S'iwresmanager'
p304
sg272
I01
sg273
g284
sg275
I00
sg276
I01
sg277
Nsg279
I00
sg32
Nsbag240
(g266
g242
Ntp305
Rp306
(dp307
g270
S'ATI_Compress_MT_VC7.lib'
p308
sg272
I00
sg273
g284
sg275
I00
sg276
Nsg277
S'x86'
p309
sg279
I00
sg32
Nsbag240
(g266
g242
Ntp310
Rp311
(dp312
g270
S'iwgx'
p313
sg272
I01
sg273
g284
sg275
I00
sg276
I01
sg277
Nsg279
I00
sg32
Nsbag240
(g266
g242
Ntp314
Rp315
(dp316
g270
S'iwgl'
p317
sg272
I01
sg273
g284
sg275
I00
sg276
Nsg277
Nsg279
I00
sg32
Nsbag240
(g266
g242
Ntp318
Rp319
(dp320
g270
S'iwgxfont'
p321
sg272
I01
sg273
g284
sg275
I00
sg276
I01
sg277
Nsg279
I00
sg32
Nsbag240
(g266
g242
Ntp322
Rp323
(dp324
g270
S'tiniconv'
p325
sg272
I01
sg273
g284
sg275
I00
sg276
Nsg277
Nsg279
I00
sg32
Nsbag240
(g266
g242
Ntp326
Rp327
(dp328
g270
S'iw2d'
p329
sg272
I01
sg273
g284
sg275
I00
sg276
I01
sg277
Nsg279
I00
sg32
Nsbag240
(g266
g242
Ntp330
Rp331
(dp332
g270
S'iwui'
p333
sg272
I01
sg273
g284
sg275
I00
sg276
I01
sg277
Nsg279
I00
sg32
Nsbag240
(g266
g242
Ntp334
Rp335
(dp336
g270
S's3e_cpp'
p337
sg272
I01
sg273
g274
sg275
I00
sg276
I00
sg277
Nsg279
I00
sg32
Nsbag240
(g266
g242
Ntp338
Rp339
(dp340
g270
S's3e'
p341
sg272
I01
sg273
(lp342
S'iwcrt.o'
p343
asg275
I00
sg276
I00
sg277
Nsg279
I00
sg32
Nsbag240
(g266
g242
Ntp344
Rp345
(dp346
g270
S's3e_api'
p347
sg272
I01
sg273
g274
sg275
I00
sg276
I00
sg277
Nsg279
I1
sg32
Nsbag240
(g266
g242
Ntp348
Rp349
(dp350
g270
S's3e_api'
p351
sg272
I00
sg273
g274
sg275
I00
sg276
I00
sg277
S'arm'
p352
sg279
I00
sg32
S'gcc'
p353
sbag240
(g266
g242
Ntp354
Rp355
(dp356
g270
S'stdc++'
p357
sg272
I00
sg273
g274
sg275
I00
sg276
I00
sg277
S'mips'
p358
sg279
I00
sg32
Nsbag240
(g266
g242
Ntp359
Rp360
(dp361
g270
S'c'
p362
sg272
I00
sg273
g274
sg275
I00
sg276
I00
sg277
S'mips'
p363
sg279
I00
sg32
Nsbag240
(g266
g242
Ntp364
Rp365
(dp366
g270
S'm'
p367
sg272
I00
sg273
g274
sg275
I00
sg276
I00
sg277
S'mips'
p368
sg279
I00
sg32
Nsbag240
(g266
g242
Ntp369
Rp370
(dp371
g270
S'gcc'
p372
sg272
I00
sg273
g274
sg275
I00
sg276
I00
sg277
S'mips'
p373
sg279
I00
sg32
NsbasS'library_paths'
p374
(lp375
g240
(cmkb_main
LibraryPath
p376
g242
Ntp377
Rp378
(dp379
S'expand_path'
p380
I01
sS'add_cpu_variant'
p381
I00
sg270
Vc:/users/dizzi/appdata/roaming/marmalade/packages/6.2.0/libjpeg_6b
p382
sbag240
(g376
g242
Ntp383
Rp384
(dp385
g380
I01
sg381
I00
sg270
Vc:/users/dizzi/appdata/roaming/marmalade/packages/6.2.0/zlib_1.2.4
p386
sbag240
(g376
g242
Ntp387
Rp388
(dp389
g380
I01
sg381
I00
sg270
Vc:/users/dizzi/appdata/roaming/marmalade/packages/6.2.0/libpng_1.2.34
p390
sbag240
(g376
g242
Ntp391
Rp392
(dp393
g380
I01
sg381
I00
sg270
S'c:/marmalade/6.2/modules/iwutil'
p394
sbag240
(g376
g242
Ntp395
Rp396
(dp397
g380
I01
sg381
I00
sg270
S'c:/marmalade/6.2/modules/iwgeom'
p398
sbag240
(g376
g242
Ntp399
Rp400
(dp401
g380
I01
sg381
I00
sg270
S'c:/marmalade/6.2/modules/iwresmanager'
p402
sbag240
(g376
g242
Ntp403
Rp404
(dp405
g380
I00
sg381
I00
sg270
S'c:/marmalade/6.2/modules/iwgx/atitools'
p406
sbag240
(g376
g242
Ntp407
Rp408
(dp409
g380
I01
sg381
I00
sg270
S'c:/marmalade/6.2/modules/iwgx'
p410
sbag240
(g376
g242
Ntp411
Rp412
(dp413
g380
I01
sg381
I00
sg270
S'c:/marmalade/6.2/modules/iwgl'
p414
sbag240
(g376
g242
Ntp415
Rp416
(dp417
g380
I01
sg381
I00
sg270
S'c:/marmalade/6.2/modules/iwgxfont'
p418
sbag240
(g376
g242
Ntp419
Rp420
(dp421
g380
I01
sg381
I00
sg270
Vc:/users/dizzi/appdata/roaming/marmalade/packages/6.2.0/tiniconv_1.0.1
p422
sbag240
(g376
g242
Ntp423
Rp424
(dp425
g380
I01
sg381
I00
sg270
S'c:/marmalade/6.2/modules/iw2d'
p426
sbag240
(g376
g242
Ntp427
Rp428
(dp429
g380
I01
sg381
I00
sg270
S'c:/marmalade/6.2/modules/iwui'
p430
sbag240
(g376
g242
Ntp431
Rp432
(dp433
g380
I01
sg381
I00
sg270
S'c:/marmalade/6.2/s3e'
p434
sbasS'macros'
p435
(dp436
S'IW_TRACE_CHANNEL_UI'
p437
S'1'
p438
sS'IW_USE_CALLSTACK'
p439
NsS'IW_SDK'
p440
NsS'I3D_PLATFORM_S3E'
p441
NsS'IW_ASSERTION_CHANNEL_PROPERTYSET'
p442
g438
sS'IW_ASSERTION_CHANNEL_2D'
p443
g438
sS'IW_MKF_LIBJPEG'
p444
NsS'I3D_OS_S3E'
p445
NsS'IW_MKF_TINICONV'
p446
NsS'IW_MKF_TINYXML'
p447
NsS'IW_APP_VERSION'
p448
S'"1.0"'
p449
sS'IW_MKF_IWRESMANAGER'
p450
NsS'IW_MKF_IWUTIL'
p451
NsS'IW_ASSERTION_CHANNEL_UI'
p452
g438
sS'IW_PLATFORM_S3E'
p453
NsS'IW_MKF_IWUI'
p454
NsS'IW_APP_NAME'
p455
S'"AIMessage"'
p456
sS'IW_MKF_IWGXFONT'
p457
NsS'IW_MKF_ZLIB'
p458
NsS'IW_MKF_IWGX'
p459
NsS'IW_USE_ASSERTIONS'
p460
NsS'_CRT_SECURE_NO_DEPRECATE'
p461
NsS'IW_MKF_IWGL'
p462
NsS'IW_MKF_LIBPNG'
p463
NsS'IW_DEBUG'
p464
NsS'IW_USE_TRACING'
p465
NsS'S3E_INCLUDE_LEGACY'
p466
NsS'__S3E__'
p467
NsS'IW_MKF_IW2D'
p468
NsS'IW_MKF_IWGEOM'
p469
NssS'done_warnings'
p470
(dp471
sS'subprojects'
p472
(dp473
g153
S'iwresmanager'
p474
sVc:\u005cusers\u005cdizzi\u005cappdata\u005croaming\u005cmarmalade\u005cpackages\u005c6.2.0\u005clibjpeg_6b\u005clibjpeg.mkf
p475
S'libjpeg'
p476
sVc:\u005cusers\u005cdizzi\u005cappdata\u005croaming\u005cmarmalade\u005cpackages\u005c6.2.0\u005ctiniconv_1.0.1\u005ctiniconv.mkf
p477
S'tiniconv'
p478
sg149
S'iwutil'
p479
sVc:\u005cusers\u005cdizzi\u005cappdata\u005croaming\u005cmarmalade\u005cpackages\u005c6.2.0\u005clibpng_1.2.34\u005clibpng.mkf
p480
S'libpng'
p481
sg157
S'tinyxml'
p482
sg155
S'iwgxfont'
p483
sg148
S'iwgeom'
p484
sg147
S'iwgx'
p485
sVc:\u005cusers\u005cdizzi\u005cappdata\u005croaming\u005cmarmalade\u005cpackages\u005c6.2.0\u005czlib_1.2.4\u005czlib.mkf
p486
S'zlib'
p487
sg158
S'iwUI'
p488
sg154
S'iwgl'
p489
sg146
S'iw2d'
p490
ssS'deployments'
p491
(dp492
S'Default'
p493
g240
(cdeployment
Deployment
p494
g242
Ntp495
Rp496
(dp497
S'got_version'
p498
I0
sS'assets'
p499
g493
sS'mkb'
p500
g244
sS'target'
p501
Nsg277
(lp502
sS'options'
p503
(dp504
S'iphone-link-lib'
p505
(lp506
sS'game-icf'
p507
NsS'iphone-icon-high-res'
p508
NsS'win32-pref-windowposy'
p509
NsS'win32-pref-windowposx'
p510
NsS'bada-appsecret'
p511
NsS'playbook-author'
p512
NsS'winmobile-icon32'
p513
NsS'linux-ext-lib'
p514
(lp515
sS'target-folder'
p516
NsS'iphone-splashscreen-landscape'
p517
NsS'ngi-splashscreen-port'
p518
NsS'psp-discversion'
p519
NsS'lgtv-use-drm'
p520
NsS'nds-bannertitle-sp'
p521
NsS'symbian-platsecflags'
p522
NsS'psp-producer'
p523
NsS'blackberry-playbook-icon'
p524
NsS'iphone-icon-ipad-search-high-res'
p525
NsS'iphone-provisioning-profile'
p526
NsS'copyright'
p527
NsS'winmobile-png45'
p528
NsS'iphone-link-libdir'
p529
(lp530
sS'symbian-cert'
p531
NsS'nds-bannertitle-hn'
p532
NsS'brew-depends'
p533
NsS'winmobile-png60'
p534
NsS'winmobile-nouninstall'
p535
NsS'brew-mif'
p536
NsS'blackberry-phone-icon'
p537
NsS'android-icon-hdpi'
p538
NsS'iphone-ipad-only'
p539
NsS'iphone-splash-full-orient'
p540
NsS'iphone-bundle-url-name'
p541
NsS'android-aliasname'
p542
NsS'iphone-splash-retina-generate'
p543
NsS'psp-dlgmanual'
p544
NsS'iphone-backgroundmode-audio'
p545
NsS'android-pkgname'
p546
NsS'webos-memory'
p547
NsS'brew-uid'
p548
NsS'android-keypass'
p549
NsS'ngi-uid'
p550
NsS'symbian-locationsupport'
p551
NsS'iphone-signing-host'
p552
NsS'ngi-install-sisx-only'
p553
NsS'nds-bannertitle-jp'
p554
NsS'name'
p555
NsS'symbian-run-on-install'
p556
NsS'osx-info-plist'
p557
NsS'symbian-icon1-format'
p558
NsS'uiq3-uid'
p559
NsS'psp-dlgcontentid'
p560
NsS'ngi-gcce-loader'
p561
NsS'auto-derbh'
p562
NsS'arch'
p563
NsS'bada-use-partner-privileges'
p564
NsS'nds-bannertitle-it'
p565
NsS'playbook-authorid'
p566
NsS'psp-copyright'
p567
NsS'ngi-achievements'
p568
NsS'splashscreen'
p569
NsS'symbian-soundrecordsupport'
p570
NsS'symbian-icon2-format'
p571
NsS'long-caption'
p572
NsS'iphone-icon-settings-high-res'
p573
NsS'android-manifest'
p574
NsS'ngi-splash-producer'
p575
NsS'winmobile-icon16'
p576
NsS's3e-compression'
p577
NsS'ngi-game-extras'
p578
NsS'winmobile-icon64'
p579
NsS'iphone-link-opts'
p580
(lp581
sS'iphone-region'
p582
NsS'uiq3-icon3-mask'
p583
NsS'winmobile-start-menu-folder'
p584
NsS'brew-clsid'
p585
NsS'brew-encoding'
p586
NsS'symbian-icon1'
p587
NsS'symbian-icon2'
p588
NsS'ngi-icon1'
p589
NsS'psp-parentallevel'
p590
NsS'ngi-icon3'
p591
NsS'ngi-icon2'
p592
NsS'ngi-icon4'
p593
NsS'osx-ext-dll'
p594
(lp595
sS'version'
p596
NsS'bada-manifest'
p597
NsS'provider'
p598
NsS'iphone-prerendered-icon'
p599
NsS'iphone-appid'
p600
S'AIMessage'
p601
sS'playbook-keystore'
p602
NsS'nds-initialcode'
p603
NsS'ngi-splashscreen-land'
p604
NsS'symbian-osexecsupport'
p605
NsS'blackberry-cskpass'
p606
NsS'iphone-persistent-wifi'
p607
NsS'symbian7-uid'
p608
NsS'winmobile-setup-dll'
p609
NsS'android-external-jars'
p610
(lp611
sS'android-install-location'
p612
NsS'olddeploytoolstyle'
p613
NsS'nds-privatesavedatasize'
p614
NsS'psp-snd0'
p615
NsS'nds-bannertitle-cn'
p616
NsS'winmobile-trace-file'
p617
NsS'playbook-storepass'
p618
NsS'ngi-no-assets'
p619
NsS'android-icon-ldpi'
p620
NsS'psp-appversion'
p621
NsS'networking'
p622
NsS'winmobile-install-folder'
p623
NsS'ngi-metadata'
p624
NsS'android-external-res'
p625
(lp626
sS'manufacturer'
p627
NsS'android-icon-gallery'
p628
NsS'bada-signed'
p629
NsS'nds-publicsavedatasize'
p630
NsS'iphone-apple-wwdr-cert'
p631
NsS'symbian9-uid'
p632
NsS'iphone-extra-sections'
p633
NsS'blackberry-keystore'
p634
NsS'iphone-nosign'
p635
NsS'caption'
p636
NsS'winmobile-ampd-part-number'
p637
NsS'iphone-icon-large'
p638
NsS'android-storepass'
p639
NsS'iphone-info-plist'
p640
NsS'ngi-arena-config'
p641
NsS'android-extra-manifest'
p642
(lp643
sS'iphone-icon-ipad-search'
p644
NsS'android-custom-activity'
p645
NsS'version-minor'
p646
NsS'iphone-icon-ipad'
p647
NsS'bada-appid'
p648
NsS'blackberry-authorid'
p649
NsS'iphone-distribution-key'
p650
NsS'iphone-link-libdirs'
p651
(lp652
sS'symbian-maxheapsize'
p653
NsS'embed-icf'
p654
NsS'psp-titlename'
p655
NsS'symbian-icon1-mask'
p656
NsS'nds-makercode'
p657
NsS'psp-icon1'
p658
NsS'priv-sign-key'
p659
NsS'webos-appinfo'
p660
NsS'symbian-cert-key'
p661
NsS'android-icon'
p662
NsS'webos-appid'
p663
NsS'android-icon-nonstandard'
p664
NsS'uiq3-icon2'
p665
NsS'iphone-icon-settings'
p666
NsS'ngi-gameinfo'
p667
NsS'iphone-distribution-cert'
p668
NsS'osx-icon'
p669
NsS'symbian-disable-ecompxl'
p670
NsS'splashscreen-auto-onblack'
p671
NsS'icon'
p672
NsS'nds-romheadertemplate'
p673
NsS'webos-icon'
p674
NsS'ngi-arena-rss'
p675
NsS'nds-bannertitle-en'
p676
NsS'win32-ext-dll'
p677
(lp678
sS'psp-dlgicon0'
p679
NsS'iphone-development-key'
p680
NsS'psp-discid'
p681
NsS'winmobile-icon48'
p682
NsS'uiq3-icon1-mask'
p683
NsS'nds-titlename'
p684
NsS'android-so'
p685
(lp686
sS'android-supports-gl-texture'
p687
(lp688
sS'bada-splash'
p689
NsS'version-revision'
p690
NsS'android-icon-mdpi'
p691
NsS'android-keystore'
p692
NsS'uiq3-icon2-format'
p693
NsS'version-string'
p694
NsS'winmobile-png90'
p695
NsS'iphone-icon-ipad-high-res'
p696
NsS'iphone-disable-ipad'
p697
NsS'uiq3-icon1-format'
p698
NsS'iphone-bundle-url-schemes'
p699
NsS'nds-icon'
p700
NsS'ngi-arena-locales'
p701
NsS'iphone-development-cert'
p702
NsS'ngi-filemanager-lib'
p703
NsS'android_extra_strings'
p704
NsS'playbook-icon'
p705
NsS'uid'
p706
NsS'playbook-cskpass'
p707
NsS'iphone-signing-identity'
p708
NsS'brew-icon-medium'
p709
NsS'ngi-key'
p710
NsS'android-extra-application-manifest'
p711
(lp712
sS'iphone-enable-4inch-retina'
p713
NsS'pkguid-as-uid'
p714
NsS'symbian-icon1-mask-black'
p715
NsS'pub-sign-key'
p716
NsS'nds-bannertitle-fr'
p717
NsS'win32-pref-windowtitle'
p718
NsS'symbian8-uid'
p719
NsS'splashscreen-use-all'
p720
NsS'android-unsigned'
p721
NsS'brew-priviledges'
p722
NsS'ngi-cert'
p723
NsS'brew-icon-small'
p724
NsS'psp-dlgpic2'
p725
NsS'bada-icon'
p726
NsS'psp-dlgpic0'
p727
NsS'lgtv_l9-use-drm'
p728
NsS'psp-pic0'
p729
NsS'psp-pic1'
p730
NsS'iphone-icon'
p731
NsS'psp-icon0'
p732
NsS'blackberry-permissions-access-shared'
p733
NsS'uiq3-icon3-format'
p734
NsS'version-major'
p735
NsS'iphone_bundle_localisations'
p736
NsS'winmobile-icon'
p737
NsS'blackberry-author'
p738
NsS'symbian-keypwd'
p739
NsS'iphone-no-splash'
p740
NsS'playbook-access-shared'
p741
NsS'psp-dlghealthwarning'
p742
NsS'iphone-link-libs'
p743
(lp744
sS'ngi-filemanager-dll'
p745
NsS'iphone-splash'
p746
NsS'nds-bannertitle-ge'
p747
NsS'android_icon_gallery'
p748
NsS'brew-icon-large'
p749
NsS'iphone-app-fonts'
p750
NsS'symbian-icon2-mask'
p751
NsS'iphone-sign-for-distribution'
p752
NsS'psp-dlgprotectdocument'
p753
NsS'winmobile-cab-compress'
p754
NsS'uiq3-icon3'
p755
NsS'uiq3-icon1'
p756
NsS'itunes-artwork'
p757
NsS'win32-icon'
p758
NsS'assets'
p759
NsS'symbian-key'
p760
NsS'app-icf'
p761
NsS'blackberry-storepass'
p762
NsS'ngi-arena-rsc'
p763
NsS'brew-compress-loader'
p764
NsS'uiq3-icon2-mask'
p765
NsS'symbian-icon2-mask-black'
p766
NsS'symbian-icon-svg'
p767
NsS'android-extra-strings'
p768
NsS'iphone-splashscreen-portrait'
p769
NsS'iphone-bundle-localisations'
p770
Nssg270
g493
sbssS'platform'
p771
S'S3E'
p772
sg53
S'1.0'
p773
sS'arcade_platform'
p774
g4
sS'extensions'
p775
(dp776
sS'source_groups_tree'
p777
(dp778
S'src'
p779
(dp780
S'e:/4410-5-1-13/team-game-4410/Game Source/AIMessage/h/history.h'
p781
(lp782
I1
a(dp783
asS'e:/4410-5-1-13/team-game-4410/Game Source/AIMessage/h/dialogueRow.h'
p784
(lp785
I1
ag783
asS'e:/4410-5-1-13/team-game-4410/Game Source/AIMessage/src/dialogueRow.cpp'
p786
(lp787
I1
ag783
asS'e:/4410-5-1-13/team-game-4410/Game Source/AIMessage/src/history.cpp'
p788
(lp789
I1
ag783
asS'e:/4410-5-1-13/team-game-4410/Game Source/AIMessage/src/game.cpp'
p790
(lp791
I1
ag783
asS'e:/4410-5-1-13/team-game-4410/Game Source/AIMessage/h/npc.h'
p792
(lp793
I1
ag783
asS'e:/4410-5-1-13/team-game-4410/Game Source/AIMessage/src/dialManager.cpp'
p794
(lp795
I1
ag783
asS'e:/4410-5-1-13/team-game-4410/Game Source/AIMessage/src/main.cpp'
p796
(lp797
I1
ag783
asS'e:/4410-5-1-13/team-game-4410/Game Source/AIMessage/h/ReplyArray.h'
p798
(lp799
I1
ag783
asS'e:/4410-5-1-13/team-game-4410/Game Source/AIMessage/src/ReplyArray.cpp'
p800
(lp801
I1
ag783
asS'e:/4410-5-1-13/team-game-4410/Game Source/AIMessage/h/dialManager.h'
p802
(lp803
I1
ag783
asS'e:/4410-5-1-13/team-game-4410/Game Source/AIMessage/src/dialogueManager.cpp'
p804
(lp805
I1
ag783
asS'e:/4410-5-1-13/team-game-4410/Game Source/AIMessage/h/dialogueManager.h'
p806
(lp807
I1
ag783
asS'e:/4410-5-1-13/team-game-4410/Game Source/AIMessage/h/xmlLoader.h'
p808
(lp809
I1
ag783
asS'e:/4410-5-1-13/team-game-4410/Game Source/AIMessage/h/game.h'
p810
(lp811
I1
ag783
asS'e:/4410-5-1-13/team-game-4410/Game Source/AIMessage/src/npc.cpp'
p812
(lp813
I1
ag783
asS'e:/4410-5-1-13/team-game-4410/Game Source/AIMessage/src/xmlloader.cpp'
p814
(lp815
I1
ag783
assS'(libpng)'
p816
(dp817
Vc:/users/dizzi/appdata/roaming/marmalade/packages/6.2.0/libpng_1.2.34/libpng.mkf
p818
(lp819
I1
a(dp820
asVc:/users/dizzi/appdata/roaming/marmalade/packages/6.2.0/libpng_1.2.34/h/png.h
p821
(lp822
I1
a(dp823
asVc:/users/dizzi/appdata/roaming/marmalade/packages/6.2.0/libpng_1.2.34/h/pngconf.h
p824
(lp825
I1
ag823
assS'(libjpeg)'
p826
(dp827
Vc:/users/dizzi/appdata/roaming/marmalade/packages/6.2.0/libjpeg_6b/h/jdhuff.h
p828
(lp829
I1
a(dp830
asVc:/users/dizzi/appdata/roaming/marmalade/packages/6.2.0/libjpeg_6b/h/jpeglib.h
p831
(lp832
I1
ag830
asVc:/users/dizzi/appdata/roaming/marmalade/packages/6.2.0/libjpeg_6b/h/jmorecfg.h
p833
(lp834
I1
ag830
asVc:/users/dizzi/appdata/roaming/marmalade/packages/6.2.0/libjpeg_6b/h/cdjpeg.h
p835
(lp836
I1
ag830
asVc:/users/dizzi/appdata/roaming/marmalade/packages/6.2.0/libjpeg_6b/h/jconfig.h
p837
(lp838
I1
ag830
asVc:/users/dizzi/appdata/roaming/marmalade/packages/6.2.0/libjpeg_6b/h/transupp.h
p839
(lp840
I1
ag830
asVc:/users/dizzi/appdata/roaming/marmalade/packages/6.2.0/libjpeg_6b/h/jerror.h
p841
(lp842
I1
ag830
asVc:/users/dizzi/appdata/roaming/marmalade/packages/6.2.0/libjpeg_6b/libjpeg.mkf
p843
(lp844
I1
a(dp845
asVc:/users/dizzi/appdata/roaming/marmalade/packages/6.2.0/libjpeg_6b/h/jchuff.h
p846
(lp847
I1
ag830
asVc:/users/dizzi/appdata/roaming/marmalade/packages/6.2.0/libjpeg_6b/h/cderror.h
p848
(lp849
I1
ag830
asVc:/users/dizzi/appdata/roaming/marmalade/packages/6.2.0/libjpeg_6b/h/jmemsys.h
p850
(lp851
I1
ag830
asVc:/users/dizzi/appdata/roaming/marmalade/packages/6.2.0/libjpeg_6b/h/jversion.h
p852
(lp853
I1
ag830
asVc:/users/dizzi/appdata/roaming/marmalade/packages/6.2.0/libjpeg_6b/h/jpegint.h
p854
(lp855
I1
ag830
asVc:/users/dizzi/appdata/roaming/marmalade/packages/6.2.0/libjpeg_6b/h/jdct.h
p856
(lp857
I1
ag830
asVc:/users/dizzi/appdata/roaming/marmalade/packages/6.2.0/libjpeg_6b/h/jinclude.h
p858
(lp859
I1
ag830
assS'(tiniconv)'
p860
(dp861
Vc:/users/dizzi/appdata/roaming/marmalade/packages/6.2.0/tiniconv_1.0.1/tiniconv.mkf
p862
(lp863
I1
a(dp864
asVc:/users/dizzi/appdata/roaming/marmalade/packages/6.2.0/tiniconv_1.0.1/h/tiniconv.h
p865
(lp866
I1
a(dp867
asVc:/users/dizzi/appdata/roaming/marmalade/packages/6.2.0/tiniconv_1.0.1/h/tiniconv_int.h
p868
(lp869
I1
ag867
assS"'Marmalade Studio'"
p870
(dp871
S'iwgl'
p872
(dp873
S'c:/marmalade/6.2/modules/iwgl/h/IwGLExt.h'
p874
(lp875
I1
a(dp876
asS'c:/marmalade/6.2/modules/iwgl/docs/iwgl.config.txt'
p877
(lp878
I1
ag876
asS'c:/marmalade/6.2/modules/iwgl/h/IwGL.h'
p879
(lp880
I1
ag876
asS'c:/marmalade/6.2/modules/iwgl/iwgl.mkf'
p881
(lp882
I1
a(dp883
assS'iw2d'
p884
(dp885
S'c:/marmalade/6.2/modules/iw2d/h/Iw2D.h'
p886
(lp887
I1
a(dp888
asS'c:/marmalade/6.2/modules/iw2d/docs/iw2d_public.defines.txt'
p889
(lp890
I1
ag888
asS'c:/marmalade/6.2/modules/iw2d/docs/iw2d.config.txt'
p891
(lp892
I1
ag888
asS'c:/marmalade/6.2/modules/iw2d/iw2d.mkf'
p893
(lp894
I1
a(dp895
assS'iwgxfont'
p896
(dp897
S'c:/marmalade/6.2/modules/iwgxfont/docs/iwgxfont_public.defines.txt'
p898
(lp899
I1
a(dp900
asS'c:/marmalade/6.2/modules/iwgxfont/iwgxfont.mkf'
p901
(lp902
I1
a(dp903
asS'c:/marmalade/6.2/modules/iwgxfont/h/IwGxFontState.h'
p904
(lp905
I1
ag900
asS'c:/marmalade/6.2/modules/iwgxfont/h/IwGxFontGlyph.h'
p906
(lp907
I1
ag900
asS'c:/marmalade/6.2/modules/iwgxfont/h/IwGxFontPreparedData.h'
p908
(lp909
I1
ag900
asS'c:/marmalade/6.2/modules/iwgxfont/h/IwGxFontContainer.h'
p910
(lp911
I1
ag900
asS'c:/marmalade/6.2/modules/iwgxfont/h/IwGxFontTypes.h'
p912
(lp913
I1
ag900
asS'c:/marmalade/6.2/modules/iwgxfont/docs/iwgxfont.config.txt'
p914
(lp915
I1
ag900
asS'c:/marmalade/6.2/modules/iwgxfont/h/IwGxFont.h'
p916
(lp917
I1
ag900
assS'iwgeom'
p918
(dp919
S'c:/marmalade/6.2/modules/iwgeom/h/IwGeomMenu.h'
p920
(lp921
I1
a(dp922
asS'c:/marmalade/6.2/modules/iwgeom/h/IwGeomFVec3.h'
p923
(lp924
I1
ag922
asS'c:/marmalade/6.2/modules/iwgeom/h/IwGeom.h'
p925
(lp926
I1
ag922
asS'c:/marmalade/6.2/modules/iwgeom/h/IwGeomFVec4.h'
p927
(lp928
I1
ag922
asS'c:/marmalade/6.2/modules/iwgeom/h/IwGeomVec2.h'
p929
(lp930
I1
ag922
asS'c:/marmalade/6.2/modules/iwgeom/h/IwGeomIntersect.h'
p931
(lp932
I1
ag922
asS'c:/marmalade/6.2/modules/iwgeom/h/IwGeomFBBox.h'
p933
(lp934
I1
ag922
asS'c:/marmalade/6.2/modules/iwgeom/h/IwGeomLegacy.h'
p935
(lp936
I1
ag922
asS'c:/marmalade/6.2/modules/iwgeom/h/IwGeomSqrt.h'
p937
(lp938
I1
ag922
asS'c:/marmalade/6.2/modules/iwgeom/h/IwGeomFIntersect.h'
p939
(lp940
I1
ag922
asS'c:/marmalade/6.2/modules/iwgeom/h/IwGeomSVec4.h'
p941
(lp942
I1
ag922
asS'c:/marmalade/6.2/modules/iwgeom/h/IwGeomCore.h'
p943
(lp944
I1
ag922
asS'c:/marmalade/6.2/modules/iwgeom/h/IwGeomBBox.h'
p945
(lp946
I1
ag922
asS'c:/marmalade/6.2/modules/iwgeom/h/IwGeomVec4.h'
p947
(lp948
I1
ag922
asS'c:/marmalade/6.2/modules/iwgeom/h/IwGeomFPlane.h'
p949
(lp950
I1
ag922
asS'c:/marmalade/6.2/modules/iwgeom/docs/iwgeom.config.txt'
p951
(lp952
I1
ag922
asS'c:/marmalade/6.2/modules/iwgeom/h/IwGeomSQuat.h'
p953
(lp954
I1
ag922
asS'c:/marmalade/6.2/modules/iwgeom/iwgeom.mkf'
p955
(lp956
I1
a(dp957
asS'c:/marmalade/6.2/modules/iwgeom/h/IwGeomQuat.h'
p958
(lp959
I1
ag922
asS'c:/marmalade/6.2/modules/iwgeom/h/IwGeomMat2D.h'
p960
(lp961
I1
ag922
asS'c:/marmalade/6.2/modules/iwgeom/h/IwGeomFSphere.h'
p962
(lp963
I1
ag922
asS'c:/marmalade/6.2/modules/iwgeom/h/IwGeomSVec3.h'
p964
(lp965
I1
ag922
asS'c:/marmalade/6.2/modules/iwgeom/h/IwGeomSVec2.h'
p966
(lp967
I1
ag922
asS'c:/marmalade/6.2/modules/iwgeom/h/IwGeomSphere.h'
p968
(lp969
I1
ag922
asS'c:/marmalade/6.2/modules/iwgeom/h/IwGeomPlane.h'
p970
(lp971
I1
ag922
asS'c:/marmalade/6.2/modules/iwgeom/h/IwGeomFMat.h'
p972
(lp973
I1
ag922
asS'c:/marmalade/6.2/modules/iwgeom/h/IwGeomFVec2.h'
p974
(lp975
I1
ag922
asS'c:/marmalade/6.2/modules/iwgeom/h/IwGeomMat.h'
p976
(lp977
I1
ag922
asS'c:/marmalade/6.2/modules/iwgeom/h/IwGeomFQuat.h'
p978
(lp979
I1
ag922
asS'c:/marmalade/6.2/modules/iwgeom/h/IwGeomFMat2D.h'
p980
(lp981
I1
ag922
asS'c:/marmalade/6.2/modules/iwgeom/h/IwGeomVec.h'
p982
(lp983
I1
ag922
asS'c:/marmalade/6.2/modules/iwgeom/h/IwGeomVec3.h'
p984
(lp985
I1
ag922
assS'iwresmanager'
p986
(dp987
S'c:/marmalade/6.2/modules/iwresmanager/h/IwResSerialise.h'
p988
(lp989
I1
a(dp990
asS'c:/marmalade/6.2/modules/iwresmanager/h/IwResHandlerGROUP.h'
p991
(lp992
I1
ag990
asS'c:/marmalade/6.2/modules/iwresmanager/h/IwResManagerClass.h'
p993
(lp994
I1
ag990
asS'c:/marmalade/6.2/modules/iwresmanager/h/IwResHandlerImage.h'
p995
(lp996
I1
ag990
asS'c:/marmalade/6.2/modules/iwresmanager/docs/iwresmanager.config.txt'
p997
(lp998
I1
ag990
asS'c:/marmalade/6.2/modules/iwresmanager/h/IwResHandler.h'
p999
(lp1000
I1
ag990
asS'c:/marmalade/6.2/modules/iwresmanager/iwresmanager.mkf'
p1001
(lp1002
I1
a(dp1003
asS'c:/marmalade/6.2/modules/iwresmanager/h/IwResGroup.h'
p1004
(lp1005
I1
ag990
asS'c:/marmalade/6.2/modules/iwresmanager/h/IwResManager.h'
p1006
(lp1007
I1
ag990
asS'c:/marmalade/6.2/modules/iwresmanager/h/IwResHandlerITX.h'
p1008
(lp1009
I1
ag990
assS'iwutil'
p1010
(dp1011
S'c:/marmalade/6.2/modules/iwutil/h/IwBuffer.h'
p1012
(lp1013
I1
a(dp1014
asS'c:/marmalade/6.2/modules/iwutil/h/IwResource.h'
p1015
(lp1016
I1
ag1014
asS'c:/marmalade/6.2/modules/iwutil/h/IwFile.h'
p1017
(lp1018
I1
ag1014
asS'c:/marmalade/6.2/modules/iwutil/docs/iwutil.config.txt'
p1019
(lp1020
I1
ag1014
asS'c:/marmalade/6.2/modules/iwutil/h/IwCore.h'
p1021
(lp1022
I1
ag1014
asS'c:/marmalade/6.2/modules/iwutil/h/IwOptimiseSpeed.h'
p1023
(lp1024
I1
ag1014
asS'c:/marmalade/6.2/modules/iwutil/h/IwSerialise.h'
p1025
(lp1026
I1
ag1014
asS'c:/marmalade/6.2/modules/iwutil/h/IwPath.h'
p1027
(lp1028
I1
ag1014
asS'c:/marmalade/6.2/modules/iwutil/h/IwImage.h'
p1029
(lp1030
I1
ag1014
asS'c:/marmalade/6.2/modules/iwutil/h/IwCopyingPtr.h'
p1031
(lp1032
I1
ag1014
asS'c:/marmalade/6.2/modules/iwutil/h/IwUtilInitTerm.h'
p1033
(lp1034
I1
ag1014
asS'c:/marmalade/6.2/modules/iwutil/h/IwOptimiseARM.h'
p1035
(lp1036
I1
ag1014
asS'c:/marmalade/6.2/modules/iwutil/h/IwMath.h'
p1037
(lp1038
I1
ag1014
asS'c:/marmalade/6.2/modules/iwutil/iwutil.mkf'
p1039
(lp1040
I1
a(dp1041
asS'c:/marmalade/6.2/modules/iwutil/h/IwUncopyable.h'
p1042
(lp1043
I1
ag1014
asS'c:/marmalade/6.2/modules/iwutil/h/IwDebug.h'
p1044
(lp1045
I1
ag1014
asS'c:/marmalade/6.2/modules/iwutil/h/IwSingleton.h'
p1046
(lp1047
I1
ag1014
asS'c:/marmalade/6.2/modules/iwutil/h/IwRandom.h'
p1048
(lp1049
I1
ag1014
asS'c:/marmalade/6.2/modules/iwutil/h/IwMemManagerDL.h'
p1050
(lp1051
I1
ag1014
asS'c:/marmalade/6.2/modules/iwutil/h/IwMemory.h'
p1052
(lp1053
I1
ag1014
asS'c:/marmalade/6.2/modules/iwutil/h/IwUtil.h'
p1054
(lp1055
I1
ag1014
asS'c:/marmalade/6.2/modules/iwutil/h/IwManagedList.h'
p1056
(lp1057
I1
ag1014
asS'c:/marmalade/6.2/modules/iwutil/h/IwMenu.h'
p1058
(lp1059
I1
ag1014
asS'c:/marmalade/6.2/modules/iwutil/h/IwArray.h'
p1060
(lp1061
I1
ag1014
asS'c:/marmalade/6.2/modules/iwutil/h/IwOptimiseSize.h'
p1062
(lp1063
I1
ag1014
asS'c:/marmalade/6.2/modules/iwutil/h/IwString.h'
p1064
(lp1065
I1
ag1014
asS'c:/marmalade/6.2/modules/iwutil/h/IwProfileMenu.h'
p1066
(lp1067
I1
ag1014
asS'c:/marmalade/6.2/modules/iwutil/h/IwKeymap.h'
p1068
(lp1069
I1
ag1014
asS'c:/marmalade/6.2/modules/iwutil/h/IwMemBucket.h'
p1070
(lp1071
I1
ag1014
asS'c:/marmalade/6.2/modules/iwutil/h/IwUTF8.h'
p1072
(lp1073
I1
ag1014
asS'c:/marmalade/6.2/modules/iwutil/h/IwRuntime.h'
p1074
(lp1075
I1
ag1014
asS'c:/marmalade/6.2/modules/iwutil/h/IwVariableBitField.h'
p1076
(lp1077
I1
ag1014
asS'c:/marmalade/6.2/modules/iwutil/h/IwOptimiseThumb.h'
p1078
(lp1079
I1
ag1014
asS'c:/marmalade/6.2/modules/iwutil/h/IwList.h'
p1080
(lp1081
I1
ag1014
asS'c:/marmalade/6.2/modules/iwutil/h/IwDivTable.h'
p1082
(lp1083
I1
ag1014
asS'c:/marmalade/6.2/modules/iwutil/h/IwTextParserITX.h'
p1084
(lp1085
I1
ag1014
asS'c:/marmalade/6.2/modules/iwutil/h/IwClassFactory.h'
p1086
(lp1087
I1
ag1014
asS'c:/marmalade/6.2/modules/iwutil/h/IwAutoFile.h'
p1088
(lp1089
I1
ag1014
asS'c:/marmalade/6.2/modules/iwutil/h/IwAllocator.h'
p1090
(lp1091
I1
ag1014
asS'c:/marmalade/6.2/modules/iwutil/h/IwImageHelper.h'
p1092
(lp1093
I1
ag1014
asS'c:/marmalade/6.2/modules/iwutil/h/IwMemBucketHelpers.h'
p1094
(lp1095
I1
ag1014
asS'c:/marmalade/6.2/modules/iwutil/h/IwTextParser.h'
p1096
(lp1097
I1
ag1014
asS'c:/marmalade/6.2/modules/iwutil/h/IwTextParseable.h'
p1098
(lp1099
I1
ag1014
asS'c:/marmalade/6.2/modules/iwutil/h/IwDivide.h'
p1100
(lp1101
I1
ag1014
asS'c:/marmalade/6.2/modules/iwutil/h/IwHashString.h'
p1102
(lp1103
I1
ag1014
asS'c:/marmalade/6.2/modules/iwutil/h/IwTypes.h'
p1104
(lp1105
I1
ag1014
asS'c:/marmalade/6.2/modules/iwutil/h/IwManaged.h'
p1106
(lp1107
I1
ag1014
asS'c:/marmalade/6.2/modules/iwutil/h/IwEvent.h'
p1108
(lp1109
I1
ag1014
asS'c:/marmalade/6.2/modules/iwutil/h/IwChar.h'
p1110
(lp1111
I1
ag1014
asS'c:/marmalade/6.2/modules/iwutil/h/IwFibre.h'
p1112
(lp1113
I1
ag1014
assS'iwgx'
p1114
(dp1115
S'c:/marmalade/6.2/modules/iwgx/h/IwGxFuncTable.h'
p1116
(lp1117
I1
a(dp1118
asS'c:/marmalade/6.2/modules/iwgx/h/IwClip.inl'
p1119
(lp1120
I1
ag1118
asS'c:/marmalade/6.2/modules/iwgx/h/IwGxTypes.h'
p1121
(lp1122
I1
ag1118
asS'c:/marmalade/6.2/modules/iwgx/h/IwGxTransformSW.h'
p1123
(lp1124
I1
ag1118
asS'c:/marmalade/6.2/modules/iwgx/docs/iwgx_public.defines.txt'
p1125
(lp1126
I1
ag1118
asS'c:/marmalade/6.2/modules/iwgx/h/IwDebugPrim.h'
p1127
(lp1128
I1
ag1118
asS'c:/marmalade/6.2/modules/iwgx/h/IwResHandlerMTL.h'
p1129
(lp1130
I1
ag1118
asS'c:/marmalade/6.2/modules/iwgx/docs/iwgx.config.txt'
p1131
(lp1132
I1
ag1118
asS'c:/marmalade/6.2/modules/iwgx/h/IwGxDebug.h'
p1133
(lp1134
I1
ag1118
asS'c:/marmalade/6.2/modules/iwgx/h/IwTexture.h'
p1135
(lp1136
I1
ag1118
asS'c:/marmalade/6.2/modules/iwgx/h/IwFColour.h'
p1137
(lp1138
I1
ag1118
asS'c:/marmalade/6.2/modules/iwgx/h/IwGxError.h'
p1139
(lp1140
I1
ag1118
asS'c:/marmalade/6.2/modules/iwgx/h/IwColour.h'
p1141
(lp1142
I1
ag1118
asS'c:/marmalade/6.2/modules/iwgx/h/IwMaterial.h'
p1143
(lp1144
I1
ag1118
asS'c:/marmalade/6.2/modules/iwgx/h/IwGxPrint.h'
p1145
(lp1146
I1
ag1118
asS'c:/marmalade/6.2/modules/iwgx/h/IwTPage.h'
p1147
(lp1148
I1
ag1118
asS'c:/marmalade/6.2/modules/iwgx/iwgx.mkf'
p1149
(lp1150
I1
a(dp1151
asS'c:/marmalade/6.2/modules/iwgx/h/IwGxMetrics.h'
p1152
(lp1153
I1
ag1118
asS'c:/marmalade/6.2/modules/iwgx/h/IwGxSurface.h'
p1154
(lp1155
I1
ag1118
asS'c:/marmalade/6.2/modules/iwgx/h/IwGxShaderTechnique.h'
p1156
(lp1157
I1
ag1118
asS'c:/marmalade/6.2/modules/iwgx/h/IwGx.h'
p1158
(lp1159
I1
ag1118
asS'c:/marmalade/6.2/modules/iwgx/h/IwGxStream.h'
p1160
(lp1161
I1
ag1118
asS'c:/marmalade/6.2/modules/iwgx/h/IwMatAnim.h'
p1162
(lp1163
I1
ag1118
asS'c:/marmalade/6.2/modules/iwgx/h/IwClip.h'
p1164
(lp1165
I1
ag1118
asS'c:/marmalade/6.2/modules/iwgx/h/IwGxState.h'
p1166
(lp1167
I1
ag1118
assS'iwui'
p1168
(dp1169
S'c:/marmalade/6.2/modules/iwui/h/IwUI.h'
p1170
(lp1171
I1
a(dp1172
asS'c:/marmalade/6.2/modules/iwui/h/IwUILayoutGrid.h'
p1173
(lp1174
I1
ag1172
asS'c:/marmalade/6.2/modules/iwui/h/IwUIDrawableText.h'
p1175
(lp1176
I1
ag1172
asS'c:/marmalade/6.2/modules/iwui/h/IwUILayoutPolicy.h'
p1177
(lp1178
I1
ag1172
asS'c:/marmalade/6.2/modules/iwui/h/IwUILayoutVertical.h'
p1179
(lp1180
I1
ag1172
asS'c:/marmalade/6.2/modules/iwui/h/IwUIProgressBar.h'
p1181
(lp1182
I1
ag1172
asS'c:/marmalade/6.2/modules/iwui/h/IwUIDrawableBorder.h'
p1183
(lp1184
I1
ag1172
asS'c:/marmalade/6.2/modules/iwui/h/IwUITextInput.h'
p1185
(lp1186
I1
ag1172
asS'c:/marmalade/6.2/modules/iwui/h/IwUIVisitor.h'
p1187
(lp1188
I1
ag1172
asS'c:/marmalade/6.2/modules/iwui/h/IwUIDelegate.h'
p1189
(lp1190
I1
ag1172
asS'c:/marmalade/6.2/modules/iwui/h/IwUIStyle.h'
p1191
(lp1192
I1
ag1172
asS'c:/marmalade/6.2/modules/iwui/h/IwUIDrawableImage.h'
p1193
(lp1194
I1
ag1172
asS'c:/marmalade/6.2/modules/iwui/h/IwUIPickerViewItemSource.h'
p1195
(lp1196
I1
ag1172
asS'c:/marmalade/6.2/modules/iwui/h/IwUIView.h'
p1197
(lp1198
I1
ag1172
asS'c:/marmalade/6.2/modules/iwui/h/IwUILayoutItem.h'
p1199
(lp1200
I1
ag1172
asS'c:/marmalade/6.2/modules/iwui/h/IwUITableViewItem.h'
p1201
(lp1202
I1
ag1172
asS'c:/marmalade/6.2/modules/iwui/h/IwPropertyList.h'
p1203
(lp1204
I1
ag1172
asS'c:/marmalade/6.2/modules/iwui/h/IwUIAlignment.h'
p1205
(lp1206
I1
ag1172
asS'c:/marmalade/6.2/modules/iwui/h/IwPropertyString.h'
p1207
(lp1208
I1
ag1172
asS'c:/marmalade/6.2/modules/iwui/h/IwUIRadioButton.h'
p1209
(lp1210
I1
ag1172
asS'c:/marmalade/6.2/modules/iwui/h/IwUIPickerWheel.h'
p1211
(lp1212
I1
ag1172
asS'c:/marmalade/6.2/modules/iwui/h/IwUIFuncs.h'
p1213
(lp1214
I1
ag1172
asS'c:/marmalade/6.2/modules/iwui/h/IwUILayoutSpacer.h'
p1215
(lp1216
I1
ag1172
asS'c:/marmalade/6.2/modules/iwui/h/IwUIScrollableView.h'
p1217
(lp1218
I1
ag1172
asS'c:/marmalade/6.2/modules/iwui/docs/iwui_public.defines.txt'
p1219
(lp1220
I1
ag1172
asS'c:/marmalade/6.2/modules/iwui/h/IwPropertySetFuncs.h'
p1221
(lp1222
I1
ag1172
asS'c:/marmalade/6.2/modules/iwui/h/IwUIFocusHandler2D.h'
p1223
(lp1224
I1
ag1172
asS'c:/marmalade/6.2/modules/iwui/h/IwUILabel.h'
p1225
(lp1226
I1
ag1172
asS'c:/marmalade/6.2/modules/iwui/h/IwUITabBar.h'
p1227
(lp1228
I1
ag1172
asS'c:/marmalade/6.2/modules/iwui/h/IwUISlider.h'
p1229
(lp1230
I1
ag1172
asS'c:/marmalade/6.2/modules/iwui/h/IwTextDecomposer.h'
p1231
(lp1232
I1
ag1172
asS'c:/marmalade/6.2/modules/iwui/h/IwUIStylesheet.h'
p1233
(lp1234
I1
ag1172
asS'c:/marmalade/6.2/modules/iwui/h/IwUITableView.h'
p1235
(lp1236
I1
ag1172
asS'c:/marmalade/6.2/modules/iwui/h/IwPropertyBinding.h'
p1237
(lp1238
I1
ag1172
asS'c:/marmalade/6.2/modules/iwui/h/IwPropertySet.h'
p1239
(lp1240
I1
ag1172
asS'c:/marmalade/6.2/modules/iwui/h/IwUIGraphics.h'
p1241
(lp1242
I1
ag1172
asS'c:/marmalade/6.2/modules/iwui/h/IwUIEventHandler.h'
p1243
(lp1244
I1
ag1172
asS'c:/marmalade/6.2/modules/iwui/h/IwUIPickerView.h'
p1245
(lp1246
I1
ag1172
asS'c:/marmalade/6.2/modules/iwui/h/IwUISoftKeyboard.h'
p1247
(lp1248
I1
ag1172
asS'c:/marmalade/6.2/modules/iwui/h/IwUIMemory.h'
p1249
(lp1250
I1
ag1172
asS'c:/marmalade/6.2/modules/iwui/h/IwUIColour.h'
p1251
(lp1252
I1
ag1172
asS'c:/marmalade/6.2/modules/iwui/h/IwUIEventHandlerSlot.h'
p1253
(lp1254
I1
ag1172
asS'c:/marmalade/6.2/modules/iwui/h/IwPropertyData.h'
p1255
(lp1256
I1
ag1172
asS'c:/marmalade/6.2/modules/iwui/h/IwPropertyBase.h'
p1257
(lp1258
I1
ag1172
asS'c:/marmalade/6.2/modules/iwui/h/IwUILayoutHorizontal.h'
p1259
(lp1260
I1
ag1172
asS'c:/marmalade/6.2/modules/iwui/h/IwUISoftKeyPosition.h'
p1261
(lp1262
I1
ag1172
asS'c:/marmalade/6.2/modules/iwui/h/IwUIAlertDialog.h'
p1263
(lp1264
I1
ag1172
asS'c:/marmalade/6.2/modules/iwui/h/IwUIStyleManager.h'
p1265
(lp1266
I1
ag1172
asS'c:/marmalade/6.2/modules/iwui/h/IwUIRect.h'
p1267
(lp1268
I1
ag1172
asS'c:/marmalade/6.2/modules/iwui/h/IwUIAnimator.h'
p1269
(lp1270
I1
ag1172
asS'c:/marmalade/6.2/modules/iwui/h/IwUIController.h'
p1271
(lp1272
I1
ag1172
asS'c:/marmalade/6.2/modules/iwui/h/IwUIElementSignal.h'
p1273
(lp1274
I1
ag1172
asS'c:/marmalade/6.2/modules/iwui/h/IwUIAnimManager.h'
p1275
(lp1276
I1
ag1172
asS'c:/marmalade/6.2/modules/iwui/h/IwUIElementEventHandler.h'
p1277
(lp1278
I1
ag1172
asS'c:/marmalade/6.2/modules/iwui/h/IwUIImage.h'
p1279
(lp1280
I1
ag1172
asS'c:/marmalade/6.2/modules/iwui/h/IwUIAnimData.h'
p1281
(lp1282
I1
ag1172
asS'c:/marmalade/6.2/modules/iwui/h/IwUIFocusHandlerTab.h'
p1283
(lp1284
I1
ag1172
asS'c:/marmalade/6.2/modules/iwui/h/IwUITableViewItemSource.h'
p1285
(lp1286
I1
ag1172
asS'c:/marmalade/6.2/modules/iwui/h/IwUIElementUtil.h'
p1287
(lp1288
I1
ag1172
asS'c:/marmalade/6.2/modules/iwui/h/IwPropertyMemory.h'
p1289
(lp1290
I1
ag1172
asS'c:/marmalade/6.2/modules/iwui/h/IwUIEvent.h'
p1291
(lp1292
I1
ag1172
asS'c:/marmalade/6.2/modules/iwui/h/IwUIFocusHandler.h'
p1293
(lp1294
I1
ag1172
asS'c:/marmalade/6.2/modules/iwui/h/IwUIPropertySet.h'
p1295
(lp1296
I1
ag1172
asS'c:/marmalade/6.2/modules/iwui/h/IwUIAtlas.h'
p1297
(lp1298
I1
ag1172
asS'c:/marmalade/6.2/modules/iwui/h/IwUIElement.h'
p1299
(lp1300
I1
ag1172
asS'c:/marmalade/6.2/modules/iwui/docs/iwui.config.txt'
p1301
(lp1302
I1
ag1172
asS'c:/marmalade/6.2/modules/iwui/h/IwUISoftKeyBalloon.h'
p1303
(lp1304
I1
ag1172
asS'c:/marmalade/6.2/modules/iwui/h/IwProperty.h'
p1305
(lp1306
I1
ag1172
asS'c:/marmalade/6.2/modules/iwui/h/IwUIButton.h'
p1307
(lp1308
I1
ag1172
asS'c:/marmalade/6.2/modules/iwui/h/IwPropertyDefine.h'
p1309
(lp1310
I1
ag1172
asS'c:/marmalade/6.2/modules/iwui/h/IwDecomposable.h'
p1311
(lp1312
I1
ag1172
asS'c:/marmalade/6.2/modules/iwui/h/IwUIDrawable.h'
p1313
(lp1314
I1
ag1172
asS'c:/marmalade/6.2/modules/iwui/h/IwUIElementItem.h'
p1315
(lp1316
I1
ag1172
asS'c:/marmalade/6.2/modules/iwui/h/IwUIMat.h'
p1317
(lp1318
I1
ag1172
asS'c:/marmalade/6.2/modules/iwui/h/IwUIAnimation.h'
p1319
(lp1320
I1
ag1172
asS'c:/marmalade/6.2/modules/iwui/h/IwUIDebug.h'
p1321
(lp1322
I1
ag1172
asS'c:/marmalade/6.2/modules/iwui/h/IwUIElementPropertyBinding.h'
p1323
(lp1324
I1
ag1172
asS'c:/marmalade/6.2/modules/iwui/h/IwUITextField.h'
p1325
(lp1326
I1
ag1172
asS'c:/marmalade/6.2/modules/iwui/h/IwPropertyDataType.h'
p1327
(lp1328
I1
ag1172
asS'c:/marmalade/6.2/modules/iwui/h/IwUIElementPtr.h'
p1329
(lp1330
I1
ag1172
asS'c:/marmalade/6.2/modules/iwui/h/IwPropertyMap.h'
p1331
(lp1332
I1
ag1172
asS'c:/marmalade/6.2/modules/iwui/h/IwUILayoutForm.h'
p1333
(lp1334
I1
ag1172
asS'c:/marmalade/6.2/modules/iwui/h/IwUICheckbox.h'
p1335
(lp1336
I1
ag1172
asS'c:/marmalade/6.2/modules/iwui/h/IwUISingleton.h'
p1337
(lp1338
I1
ag1172
asS'c:/marmalade/6.2/modules/iwui/h/IwUISoftKey.h'
p1339
(lp1340
I1
ag1172
asS'c:/marmalade/6.2/modules/iwui/h/IwUILayoutItemContainer.h'
p1341
(lp1342
I1
ag1172
asS'c:/marmalade/6.2/modules/iwui/h/IwUIHoldingPtr.h'
p1343
(lp1344
I1
ag1172
asS'c:/marmalade/6.2/modules/iwui/h/IwUILayout.h'
p1345
(lp1346
I1
ag1172
asS'c:/marmalade/6.2/modules/iwui/iwui.mkf'
p1347
(lp1348
I1
a(dp1349
asssS'(zlib)'
p1350
(dp1351
Vc:/users/dizzi/appdata/roaming/marmalade/packages/6.2.0/zlib_1.2.4/h/zconf.h
p1352
(lp1353
I1
a(dp1354
asVc:/users/dizzi/appdata/roaming/marmalade/packages/6.2.0/zlib_1.2.4/zlib.mkf
p1355
(lp1356
I1
a(dp1357
asVc:/users/dizzi/appdata/roaming/marmalade/packages/6.2.0/zlib_1.2.4/h/zlib.h
p1358
(lp1359
I1
ag1354
assS'(tinyxml)'
p1360
(dp1361
S'e:/4410-5-1-13/team-game-4410/game source/aimessage/upstream/tinyxmlparser.cpp'
p1362
(lp1363
I1
a(dp1364
asS'e:/4410-5-1-13/team-game-4410/game source/aimessage/upstream/tinyxml.cpp'
p1365
(lp1366
I1
ag1364
asS'e:/4410-5-1-13/team-game-4410/game source/aimessage/upstream/tinystr.cpp'
p1367
(lp1368
I1
ag1364
asS'e:/4410-5-1-13/team-game-4410/game source/aimessage/upstream/tinyxmlerror.cpp'
p1369
(lp1370
I1
ag1364
asS'e:/4410-5-1-13/team-game-4410/game source/aimessage/upstream/tinystr.h'
p1371
(lp1372
I1
ag1364
asS'e:/4410-5-1-13/team-game-4410/game source/aimessage/tinyxml.mkf'
p1373
(lp1374
I1
a(dp1375
asS'e:/4410-5-1-13/team-game-4410/game source/aimessage/upstream/tinyxml.h'
p1376
(lp1377
I1
ag1364
assS'Data'
p1378
(dp1379
S'e:/4410-5-1-13/team-game-4410/Game Source/AIMessage/data/main.ui'
p1380
(lp1381
I1
ag783
asS'e:/4410-5-1-13/team-game-4410/Game Source/AIMessage/data/IwUIBasicLabelCode.group'
p1382
(lp1383
I1
ag783
asS'e:/4410-5-1-13/team-game-4410/Game Source/AIMessage/data/UI.group'
p1384
(lp1385
I1
ag783
asssS'files'
p1386
(dp1387
S'IwUIMemory.h'
p1388
g240
(cmkb_main
File
p1389
g242
Ntp1390
Rp1391
(dp1392
S'flags'
p1393
g1172
sS'group'
p1394
(lp1395
S"'Marmalade Studio'"
p1396
ag1168
asg270
g1249
sbsS'IwGxFontPreparedData.h'
p1397
g240
(g1389
g242
Ntp1398
Rp1399
(dp1400
g1393
g900
sg1394
(lp1401
S"'Marmalade Studio'"
p1402
ag896
asg270
g908
sbsS'iterator'
p1403
g240
(g1389
g242
Ntp1404
Rp1405
(dp1406
g1393
(dp1407
sg1394
(lp1408
S"'Marmalade System (S3E)'"
p1409
aS'stdc headers'
p1410
aS'c++'
p1411
asg270
S'c:/marmalade/6.2/s3e/h/std/c++/iterator'
p1412
sbsS'IwUIScrollableView.h'
p1413
g240
(g1389
g242
Ntp1414
Rp1415
(dp1416
g1393
g1172
sg1394
g1395
sg270
g1217
sbsS'IwGeomPlane.h'
p1417
g240
(g1389
g242
Ntp1418
Rp1419
(dp1420
g1393
g922
sg1394
(lp1421
S"'Marmalade Studio'"
p1422
ag918
asg270
g970
sbsS'ctime'
p1423
g240
(g1389
g242
Ntp1424
Rp1425
(dp1426
g1393
g1407
sg1394
g1408
sg270
S'c:/marmalade/6.2/s3e/h/std/c++/ctime'
p1427
sbsS's3e.h'
p1428
g240
(g1389
g242
Ntp1429
Rp1430
(dp1431
g1393
g1407
sg1394
(lp1432
g1409
asg270
S'c:/marmalade/6.2/s3e/h/s3e.h'
p1433
sbsS'errno.h'
p1434
g240
(g1389
g242
Ntp1435
Rp1436
(dp1437
g1393
g1407
sg1394
(lp1438
g1409
aS'stdc headers'
p1439
asg270
S'c:/marmalade/6.2/s3e/h/std/errno.h'
p1440
sbsS'IwSingleton.h'
p1441
g240
(g1389
g242
Ntp1442
Rp1443
(dp1444
g1393
g1014
sg1394
(lp1445
S"'Marmalade Studio'"
p1446
ag1010
asg270
g1046
sbsS'getopt.h'
p1447
g240
(g1389
g242
Ntp1448
Rp1449
(dp1450
g1393
g1407
sg1394
g1438
sg270
S'c:/marmalade/6.2/s3e/h/std/getopt.h'
p1451
sbsS'dlfcn.h'
p1452
g240
(g1389
g242
Ntp1453
Rp1454
(dp1455
g1393
g1407
sg1394
g1438
sg270
S'c:/marmalade/6.2/s3e/h/std/dlfcn.h'
p1456
sbsS'stdio_streambuf'
p1457
g240
(g1389
g242
Ntp1458
Rp1459
(dp1460
g1393
g1407
sg1394
g1408
sg270
S'c:/marmalade/6.2/s3e/h/std/c++/stdio_streambuf'
p1461
sbsS'sched.h'
p1462
g240
(g1389
g242
Ntp1463
Rp1464
(dp1465
g1393
g1407
sg1394
g1438
sg270
S'c:/marmalade/6.2/s3e/h/std/sched.h'
p1466
sbsS'IwGeomFMat2D.h'
p1467
g240
(g1389
g242
Ntp1468
Rp1469
(dp1470
g1393
g922
sg1394
g1421
sg270
g980
sbsS'cassert'
p1471
g240
(g1389
g242
Ntp1472
Rp1473
(dp1474
g1393
g1407
sg1394
g1408
sg270
S'c:/marmalade/6.2/s3e/h/std/c++/cassert'
p1475
sbsS'grp.h'
p1476
g240
(g1389
g242
Ntp1477
Rp1478
(dp1479
g1393
g1407
sg1394
g1438
sg270
S'c:/marmalade/6.2/s3e/h/std/grp.h'
p1480
sbsS'dialogueRow.cpp'
p1481
g240
(g1389
g242
Ntp1482
Rp1483
(dp1484
g1393
g783
sg1394
(lp1485
g779
asg270
g786
sbsS'list'
p1486
g240
(g1389
g242
Ntp1487
Rp1488
(dp1489
g1393
g1407
sg1394
g1408
sg270
S'c:/marmalade/6.2/s3e/h/std/c++/list'
p1490
sbsS'istream'
p1491
g240
(g1389
g242
Ntp1492
Rp1493
(dp1494
g1393
g1407
sg1394
g1408
sg270
S'c:/marmalade/6.2/s3e/h/std/c++/istream'
p1495
sbsVjpeglib.h
p1496
g240
(g1389
g242
Ntp1497
Rp1498
(dp1499
g1393
g830
sg1394
(lp1500
g826
asg270
g831
sbsS'iw2d_public.defines.txt'
p1501
g240
(g1389
g242
Ntp1502
Rp1503
(dp1504
g1393
g888
sg1394
(lp1505
S"'Marmalade Studio'"
p1506
ag884
asg270
g889
sbsS'iostream.h'
p1507
g240
(g1389
g242
Ntp1508
Rp1509
(dp1510
g1393
g1407
sg1394
g1408
sg270
S'c:/marmalade/6.2/s3e/h/std/c++/iostream.h'
p1511
sbsS'string'
p1512
g240
(g1389
g242
Ntp1513
Rp1514
(dp1515
g1393
g1407
sg1394
g1408
sg270
S'c:/marmalade/6.2/s3e/h/std/c++/string'
p1516
sbsS'IwMemory.h'
p1517
g240
(g1389
g242
Ntp1518
Rp1519
(dp1520
g1393
g1014
sg1394
g1445
sg270
g1052
sbsS'IwPropertyMemory.h'
p1521
g240
(g1389
g242
Ntp1522
Rp1523
(dp1524
g1393
g1172
sg1394
g1395
sg270
g1289
sbsS'IwUILayoutPolicy.h'
p1525
g240
(g1389
g242
Ntp1526
Rp1527
(dp1528
g1393
g1172
sg1394
g1395
sg270
g1177
sbsS'IwGL.h'
p1529
g240
(g1389
g242
Ntp1530
Rp1531
(dp1532
g1393
g876
sg1394
(lp1533
S"'Marmalade Studio'"
p1534
ag872
asg270
g879
sbsS'iw2d.config.txt'
p1535
g240
(g1389
g242
Ntp1536
Rp1537
(dp1538
g1393
g888
sg1394
g1505
sg270
g891
sbsS'iomanip'
p1539
g240
(g1389
g242
Ntp1540
Rp1541
(dp1542
g1393
g1407
sg1394
g1408
sg270
S'c:/marmalade/6.2/s3e/h/std/c++/iomanip'
p1543
sbsS'iwgeom.mkf'
p1544
g240
(g1389
g242
Ntp1545
Rp1546
(dp1547
g1393
g957
sg1394
g1421
sg270
g955
sbsS'IwGxError.h'
p1548
g240
(g1389
g242
Ntp1549
Rp1550
(dp1551
g1393
g1118
sg1394
(lp1552
S"'Marmalade Studio'"
p1553
ag1114
asg270
g1139
sbsS'IwGeom.h'
p1554
g240
(g1389
g242
Ntp1555
Rp1556
(dp1557
g1393
g922
sg1394
g1421
sg270
g925
sbsS'IwGeomVec4.h'
p1558
g240
(g1389
g242
Ntp1559
Rp1560
(dp1561
g1393
g922
sg1394
g1421
sg270
g947
sbsS'dir.h'
p1562
g240
(g1389
g242
Ntp1563
Rp1564
(dp1565
g1393
g1407
sg1394
(lp1566
g1409
aS'stdc headers'
p1567
aS'sys'
p1568
asg270
S'c:/marmalade/6.2/s3e/h/std/sys/dir.h'
p1569
sbsS'locale.h'
p1570
g240
(g1389
g242
Ntp1571
Rp1572
(dp1573
g1393
g1407
sg1394
g1438
sg270
S'c:/marmalade/6.2/s3e/h/std/locale.h'
p1574
sbsS'vector'
p1575
g240
(g1389
g242
Ntp1576
Rp1577
(dp1578
g1393
g1407
sg1394
g1408
sg270
S'c:/marmalade/6.2/s3e/h/std/c++/vector'
p1579
sbsS'IwManaged.h'
p1580
g240
(g1389
g242
Ntp1581
Rp1582
(dp1583
g1393
g1014
sg1394
g1445
sg270
g1106
sbsS'IwUIDrawableImage.h'
p1584
g240
(g1389
g242
Ntp1585
Rp1586
(dp1587
g1393
g1172
sg1394
g1395
sg270
g1193
sbsS's3eCompass.h'
p1588
g240
(g1389
g242
Ntp1589
Rp1590
(dp1591
g1393
g1407
sg1394
g1432
sg270
S'c:/marmalade/6.2/s3e/h/s3eCompass.h'
p1592
sbsVcderror.h
p1593
g240
(g1389
g242
Ntp1594
Rp1595
(dp1596
g1393
g830
sg1394
g1500
sg270
g848
sbsS'climits'
p1597
g240
(g1389
g242
Ntp1598
Rp1599
(dp1600
g1393
g1407
sg1394
g1408
sg270
S'c:/marmalade/6.2/s3e/h/std/c++/climits'
p1601
sbsS's3eVibra.h'
p1602
g240
(g1389
g242
Ntp1603
Rp1604
(dp1605
g1393
g1407
sg1394
g1432
sg270
S'c:/marmalade/6.2/s3e/h/s3eVibra.h'
p1606
sbsVjversion.h
p1607
g240
(g1389
g242
Ntp1608
Rp1609
(dp1610
g1393
g830
sg1394
g1500
sg270
g852
sbsS'fnmatch.h'
p1611
g240
(g1389
g242
Ntp1612
Rp1613
(dp1614
g1393
g1407
sg1394
g1438
sg270
S'c:/marmalade/6.2/s3e/h/std/fnmatch.h'
p1615
sbsS'iostream'
p1616
g240
(g1389
g242
Ntp1617
Rp1618
(dp1619
g1393
g1407
sg1394
g1408
sg270
S'c:/marmalade/6.2/s3e/h/std/c++/iostream'
p1620
sbsS'IwGxState.h'
p1621
g240
(g1389
g242
Ntp1622
Rp1623
(dp1624
g1393
g1118
sg1394
g1552
sg270
g1166
sbsS's3eAudio.h'
p1625
g240
(g1389
g242
Ntp1626
Rp1627
(dp1628
g1393
g1407
sg1394
g1432
sg270
S'c:/marmalade/6.2/s3e/h/s3eAudio.h'
p1629
sbsS'IwUIElement.h'
p1630
g240
(g1389
g242
Ntp1631
Rp1632
(dp1633
g1393
g1172
sg1394
g1395
sg270
g1299
sbsS's3eSurface.h'
p1634
g240
(g1389
g242
Ntp1635
Rp1636
(dp1637
g1393
g1407
sg1394
g1432
sg270
S'c:/marmalade/6.2/s3e/h/s3eSurface.h'
p1638
sbsS'new'
p1639
g240
(g1389
g242
Ntp1640
Rp1641
(dp1642
g1393
g1407
sg1394
g1408
sg270
S'c:/marmalade/6.2/s3e/h/std/c++/new'
p1643
sbsS's3eWindow.h'
p1644
g240
(g1389
g242
Ntp1645
Rp1646
(dp1647
g1393
g1407
sg1394
(lp1648
g1409
aS'Extensions'
p1649
asg270
S'c:/marmalade/6.2/s3e/h/ext/s3eWindow.h'
p1650
sbsS'IwBuffer.h'
p1651
g240
(g1389
g242
Ntp1652
Rp1653
(dp1654
g1393
g1014
sg1394
g1445
sg270
g1012
sbsS'IwUIRect.h'
p1655
g240
(g1389
g242
Ntp1656
Rp1657
(dp1658
g1393
g1172
sg1394
g1395
sg270
g1267
sbsS'tinyxmlparser.cpp'
p1659
g240
(g1389
g242
Ntp1660
Rp1661
(dp1662
g1393
g1364
sg1394
(lp1663
g1360
asg270
g1362
sbsS's3eOSExec.h'
p1664
g240
(g1389
g242
Ntp1665
Rp1666
(dp1667
g1393
g1407
sg1394
g1648
sg270
S'c:/marmalade/6.2/s3e/h/ext/s3eOSExec.h'
p1668
sbsS'IwGxTransformSW.h'
p1669
g240
(g1389
g242
Ntp1670
Rp1671
(dp1672
g1393
g1118
sg1394
g1552
sg270
g1123
sbsS'unistd.h'
p1673
g240
(g1389
g242
Ntp1674
Rp1675
(dp1676
g1393
g1407
sg1394
g1438
sg270
S'c:/marmalade/6.2/s3e/h/std/unistd.h'
p1677
sbsS'iwgxfont.config.txt'
p1678
g240
(g1389
g242
Ntp1679
Rp1680
(dp1681
g1393
g900
sg1394
g1401
sg270
g914
sbsS'gl2platform.h'
p1682
g240
(g1389
g242
Ntp1683
Rp1684
(dp1685
g1393
g1407
sg1394
(lp1686
g1409
aS'GL'
p1687
aS'GLES 2.0'
p1688
asg270
S'c:/marmalade/6.2/s3e/h/GLES2/gl2platform.h'
p1689
sbsS'IwResManagerClass.h'
p1690
g240
(g1389
g242
Ntp1691
Rp1692
(dp1693
g1393
g990
sg1394
(lp1694
g870
ag986
asg270
g993
sbsS'IwUI.h'
p1695
g240
(g1389
g242
Ntp1696
Rp1697
(dp1698
g1393
g1172
sg1394
g1395
sg270
g1170
sbsS'queue'
p1699
g240
(g1389
g242
Ntp1700
Rp1701
(dp1702
g1393
g1407
sg1394
g1408
sg270
S'c:/marmalade/6.2/s3e/h/std/c++/queue'
p1703
sbsS'time_1.h'
p1704
g240
(g1389
g242
Ntp1705
Rp1706
(dp1707
g1393
g1407
sg1394
g1566
sg270
S'c:/marmalade/6.2/s3e/h/std/sys/time.h'
p1708
sbsS'Iw2D.h'
p1709
g240
(g1389
g242
Ntp1710
Rp1711
(dp1712
g1393
g888
sg1394
g1505
sg270
g886
sbsS'IwGeomVec2.h'
p1713
g240
(g1389
g242
Ntp1714
Rp1715
(dp1716
g1393
g922
sg1394
g1421
sg270
g929
sbsS'sendfile.h'
p1717
g240
(g1389
g242
Ntp1718
Rp1719
(dp1720
g1393
g1407
sg1394
g1566
sg270
S'c:/marmalade/6.2/s3e/h/std/sys/sendfile.h'
p1721
sbsS'malloc.h'
p1722
g240
(g1389
g242
Ntp1723
Rp1724
(dp1725
g1393
g1407
sg1394
g1438
sg270
S'c:/marmalade/6.2/s3e/h/std/malloc.h'
p1726
sbsS'stdarg.h'
p1727
g240
(g1389
g242
Ntp1728
Rp1729
(dp1730
g1393
g1407
sg1394
g1438
sg270
S'c:/marmalade/6.2/s3e/h/std/stdarg.h'
p1731
sbsS'IwUIElementPtr.h'
p1732
g240
(g1389
g242
Ntp1733
Rp1734
(dp1735
g1393
g1172
sg1394
g1395
sg270
g1329
sbsS'IwGeomCore.h'
p1736
g240
(g1389
g242
Ntp1737
Rp1738
(dp1739
g1393
g922
sg1394
g1421
sg270
g943
sbsS'IwUIButton.h'
p1740
g240
(g1389
g242
Ntp1741
Rp1742
(dp1743
g1393
g1172
sg1394
g1395
sg270
g1307
sbsS'endian.h'
p1744
g240
(g1389
g242
Ntp1745
Rp1746
(dp1747
g1393
g1407
sg1394
g1438
sg270
S'c:/marmalade/6.2/s3e/h/std/endian.h'
p1748
sbsS'IwProperty.h'
p1749
g240
(g1389
g242
Ntp1750
Rp1751
(dp1752
g1393
g1172
sg1394
g1395
sg270
g1305
sbsS'tinyxml.mkf'
p1753
g240
(g1389
g242
Ntp1754
Rp1755
(dp1756
g1393
g1375
sg1394
g1663
sg270
g1373
sbsS'fstream'
p1757
g240
(g1389
g242
Ntp1758
Rp1759
(dp1760
g1393
g1407
sg1394
g1408
sg270
S'c:/marmalade/6.2/s3e/h/std/c++/fstream'
p1761
sbsS's3eCamera.h'
p1762
g240
(g1389
g242
Ntp1763
Rp1764
(dp1765
g1393
g1407
sg1394
g1432
sg270
S'c:/marmalade/6.2/s3e/h/s3eCamera.h'
p1766
sbsVjconfig.h
p1767
g240
(g1389
g242
Ntp1768
Rp1769
(dp1770
g1393
g830
sg1394
g1500
sg270
g837
sbsS'memory'
p1771
g240
(g1389
g242
Ntp1772
Rp1773
(dp1774
g1393
g1407
sg1394
g1408
sg270
S'c:/marmalade/6.2/s3e/h/std/c++/memory'
p1775
sbsS'IwUILayoutVertical.h'
p1776
g240
(g1389
g242
Ntp1777
Rp1778
(dp1779
g1393
g1172
sg1394
g1395
sg270
g1179
sbsS'egl.h'
p1780
g240
(g1389
g242
Ntp1781
Rp1782
(dp1783
g1393
g1407
sg1394
(lp1784
g1409
aS'GL'
p1785
aS'EGL'
p1786
asg270
S'c:/marmalade/6.2/s3e/h/EGL/egl.h'
p1787
sbsS'IwClip.inl'
p1788
g240
(g1389
g242
Ntp1789
Rp1790
(dp1791
g1393
g1118
sg1394
g1552
sg270
g1119
sbsS'IwMemManagerDL.h'
p1792
g240
(g1389
g242
Ntp1793
Rp1794
(dp1795
g1393
g1014
sg1394
g1445
sg270
g1050
sbsS'deque'
p1796
g240
(g1389
g242
Ntp1797
Rp1798
(dp1799
g1393
g1407
sg1394
g1408
sg270
S'c:/marmalade/6.2/s3e/h/std/c++/deque'
p1800
sbsS'IwString.h'
p1801
g240
(g1389
g242
Ntp1802
Rp1803
(dp1804
g1393
g1014
sg1394
g1445
sg270
g1064
sbsS'cwchar'
p1805
g240
(g1389
g242
Ntp1806
Rp1807
(dp1808
g1393
g1407
sg1394
g1408
sg270
S'c:/marmalade/6.2/s3e/h/std/c++/cwchar'
p1809
sbsS'iwui_public.defines.txt'
p1810
g240
(g1389
g242
Ntp1811
Rp1812
(dp1813
g1393
g1172
sg1394
g1395
sg270
g1219
sbsS'iwutil.mkf'
p1814
g240
(g1389
g242
Ntp1815
Rp1816
(dp1817
g1393
g1041
sg1394
g1445
sg270
g1039
sbsS'csignal'
p1818
g240
(g1389
g242
Ntp1819
Rp1820
(dp1821
g1393
g1407
sg1394
g1408
sg270
S'c:/marmalade/6.2/s3e/h/std/c++/csignal'
p1822
sbsS'float.h'
p1823
g240
(g1389
g242
Ntp1824
Rp1825
(dp1826
g1393
g1407
sg1394
g1438
sg270
S'c:/marmalade/6.2/s3e/h/std/float.h'
p1827
sbsS'pthread_alloc'
p1828
g240
(g1389
g242
Ntp1829
Rp1830
(dp1831
g1393
g1407
sg1394
g1408
sg270
S'c:/marmalade/6.2/s3e/h/std/c++/pthread_alloc'
p1832
sbsS'IwUITextField.h'
p1833
g240
(g1389
g242
Ntp1834
Rp1835
(dp1836
g1393
g1172
sg1394
g1395
sg270
g1325
sbsS'IwOptimiseARM.h'
p1837
g240
(g1389
g242
Ntp1838
Rp1839
(dp1840
g1393
g1014
sg1394
g1445
sg270
g1035
sbsS'times.h'
p1841
g240
(g1389
g242
Ntp1842
Rp1843
(dp1844
g1393
g1407
sg1394
g1566
sg270
S'c:/marmalade/6.2/s3e/h/std/sys/times.h'
p1845
sbsS'IwGeomFSphere.h'
p1846
g240
(g1389
g242
Ntp1847
Rp1848
(dp1849
g1393
g922
sg1394
g1421
sg270
g962
sbsS'IwUIAnimManager.h'
p1850
g240
(g1389
g242
Ntp1851
Rp1852
(dp1853
g1393
g1172
sg1394
g1395
sg270
g1275
sbsS'game.h'
p1854
g240
(g1389
g242
Ntp1855
Rp1856
(dp1857
g1393
g783
sg1394
g1485
sg270
g810
sbsS'functional'
p1858
g240
(g1389
g242
Ntp1859
Rp1860
(dp1861
g1393
g1407
sg1394
g1408
sg270
S'c:/marmalade/6.2/s3e/h/std/c++/functional'
p1862
sbsS'IwTypes.h'
p1863
g240
(g1389
g242
Ntp1864
Rp1865
(dp1866
g1393
g1014
sg1394
g1445
sg270
g1104
sbsS'IwGxMetrics.h'
p1867
g240
(g1389
g242
Ntp1868
Rp1869
(dp1870
g1393
g1118
sg1394
g1552
sg270
g1152
sbsS'tinyxml.cpp'
p1871
g240
(g1389
g242
Ntp1872
Rp1873
(dp1874
g1393
g1364
sg1394
g1663
sg270
g1365
sbsS's3eCompression.h'
p1875
g240
(g1389
g242
Ntp1876
Rp1877
(dp1878
g1393
g1407
sg1394
g1432
sg270
S'c:/marmalade/6.2/s3e/h/s3eCompression.h'
p1879
sbsS'langinfo.h'
p1880
g240
(g1389
g242
Ntp1881
Rp1882
(dp1883
g1393
g1407
sg1394
g1438
sg270
S'c:/marmalade/6.2/s3e/h/std/langinfo.h'
p1884
sbsS'dialogueManager.cpp'
p1885
g240
(g1389
g242
Ntp1886
Rp1887
(dp1888
g1393
g783
sg1394
g1485
sg270
g804
sbsS's3edebugHeap.h'
p1889
g240
(g1389
g242
Ntp1890
Rp1891
(dp1892
g1393
g1407
sg1394
g1648
sg270
S'c:/marmalade/6.2/s3e/h/ext/s3edebugHeap.h'
p1893
sbsS'app.config.txt'
p1894
g240
(g1389
g242
Ntp1895
Rp1896
(dp1897
g1393
(dp1898
sg1394
g4
sg270
S'e:/4410-5-1-13/team-game-4410/Game Source/AIMessage/data/app.config.txt'
p1899
sbsS'AirplayVersion.h'
p1900
g240
(g1389
g242
Ntp1901
Rp1902
(dp1903
g1393
g1407
sg1394
g1432
sg270
S'c:/marmalade/6.2/s3e/h/AirplayVersion.h'
p1904
sbsS'dialManager.h'
p1905
g240
(g1389
g242
Ntp1906
Rp1907
(dp1908
g1393
g783
sg1394
g1485
sg270
g802
sbsS'gl2extimg.h'
p1909
g240
(g1389
g242
Ntp1910
Rp1911
(dp1912
g1393
g1407
sg1394
g1686
sg270
S'c:/marmalade/6.2/s3e/h/GLES2/gl2extimg.h'
p1913
sbsS'pthread_types.h'
p1914
g240
(g1389
g242
Ntp1915
Rp1916
(dp1917
g1393
g1407
sg1394
g1438
sg270
S'c:/marmalade/6.2/s3e/h/std/pthread_types.h'
p1918
sbsS'IwGeomSqrt.h'
p1919
g240
(g1389
g242
Ntp1920
Rp1921
(dp1922
g1393
g922
sg1394
g1421
sg270
g937
sbsS'IwUIGraphics.h'
p1923
g240
(g1389
g242
Ntp1924
Rp1925
(dp1926
g1393
g1172
sg1394
g1395
sg270
g1241
sbsVtiniconv_int.h
p1927
g240
(g1389
g242
Ntp1928
Rp1929
(dp1930
g1393
g867
sg1394
(lp1931
g860
asg270
g868
sbsS'IwUIStylesheet.h'
p1932
g240
(g1389
g242
Ntp1933
Rp1934
(dp1935
g1393
g1172
sg1394
g1395
sg270
g1233
sbsS'syslog.h'
p1936
g240
(g1389
g242
Ntp1937
Rp1938
(dp1939
g1393
g1407
sg1394
g1438
sg270
S'c:/marmalade/6.2/s3e/h/std/syslog.h'
p1940
sbsS'mem.h'
p1941
g240
(g1389
g242
Ntp1942
Rp1943
(dp1944
g1393
g1407
sg1394
g1408
sg270
S'c:/marmalade/6.2/s3e/h/std/c++/mem.h'
p1945
sbsS'IwUILayoutItemContainer.h'
p1946
g240
(g1389
g242
Ntp1947
Rp1948
(dp1949
g1393
g1172
sg1394
g1395
sg270
g1341
sbsS'IwGxFontTypes.h'
p1950
g240
(g1389
g242
Ntp1951
Rp1952
(dp1953
g1393
g900
sg1394
g1401
sg270
g912
sbsS'IwGeomFIntersect.h'
p1954
g240
(g1389
g242
Ntp1955
Rp1956
(dp1957
g1393
g922
sg1394
g1421
sg270
g939
sbsS'hash_map'
p1958
g240
(g1389
g242
Ntp1959
Rp1960
(dp1961
g1393
g1407
sg1394
g1408
sg270
S'c:/marmalade/6.2/s3e/h/std/c++/hash_map'
p1962
sbsS'slist'
p1963
g240
(g1389
g242
Ntp1964
Rp1965
(dp1966
g1393
g1407
sg1394
g1408
sg270
S'c:/marmalade/6.2/s3e/h/std/c++/slist'
p1967
sbsS's3e.mkf'
p1968
g240
(g1389
g242
Ntp1969
Rp1970
(dp1971
g1393
(dp1972
sg1394
g1432
sg270
S'c:/marmalade/6.2/s3e/s3e.mkf'
p1973
sbsS's3eOSReadString.h'
p1974
g240
(g1389
g242
Ntp1975
Rp1976
(dp1977
g1393
g1407
sg1394
g1648
sg270
S'c:/marmalade/6.2/s3e/h/ext/s3eOSReadString.h'
p1978
sbsS'IwTextDecomposer.h'
p1979
g240
(g1389
g242
Ntp1980
Rp1981
(dp1982
g1393
g1172
sg1394
g1395
sg270
g1231
sbsS'map'
p1983
g240
(g1389
g242
Ntp1984
Rp1985
(dp1986
g1393
g1407
sg1394
g1408
sg270
S'c:/marmalade/6.2/s3e/h/std/c++/map'
p1987
sbsS'IwOptimiseSpeed.h'
p1988
g240
(g1389
g242
Ntp1989
Rp1990
(dp1991
g1393
g1014
sg1394
g1445
sg270
g1023
sbsS'msl_string.h'
p1992
g240
(g1389
g242
Ntp1993
Rp1994
(dp1995
g1393
g1407
sg1394
g1408
sg270
S'c:/marmalade/6.2/s3e/h/std/c++/msl_string.h'
p1996
sbsS'sigcontext.h'
p1997
g240
(g1389
g242
Ntp1998
Rp1999
(dp2000
g1393
g1407
sg1394
g1438
sg270
S'c:/marmalade/6.2/s3e/h/std/sigcontext.h'
p2001
sbsS'select.h'
p2002
g240
(g1389
g242
Ntp2003
Rp2004
(dp2005
g1393
g1407
sg1394
g1566
sg270
S'c:/marmalade/6.2/s3e/h/std/sys/select.h'
p2006
sbsS'IwUILayoutItem.h'
p2007
g240
(g1389
g242
Ntp2008
Rp2009
(dp2010
g1393
g1172
sg1394
g1395
sg270
g1199
sbsVzlib.mkf
p2011
g240
(g1389
g242
Ntp2012
Rp2013
(dp2014
g1393
g1357
sg1394
(lp2015
g1350
asg270
g1355
sbsS'IwUITableViewItem.h'
p2016
g240
(g1389
g242
Ntp2017
Rp2018
(dp2019
g1393
g1172
sg1394
g1395
sg270
g1201
sbsS'signal.h'
p2020
g240
(g1389
g242
Ntp2021
Rp2022
(dp2023
g1393
g1407
sg1394
g1438
sg270
S'c:/marmalade/6.2/s3e/h/std/signal.h'
p2024
sbsS'iwgl.config.txt'
p2025
g240
(g1389
g242
Ntp2026
Rp2027
(dp2028
g1393
g876
sg1394
g1533
sg270
g877
sbsS'csetjmp'
p2029
g240
(g1389
g242
Ntp2030
Rp2031
(dp2032
g1393
g1407
sg1394
g1408
sg270
S'c:/marmalade/6.2/s3e/h/std/c++/csetjmp'
p2033
sbsVlibpng.mkf
p2034
g240
(g1389
g242
Ntp2035
Rp2036
(dp2037
g1393
g820
sg1394
(lp2038
g816
asg270
g818
sbsS's3eClipboard.h'
p2039
g240
(g1389
g242
Ntp2040
Rp2041
(dp2042
g1393
g1407
sg1394
g1432
sg270
S'c:/marmalade/6.2/s3e/h/s3eClipboard.h'
p2043
sbsS'IwGxFuncTable.h'
p2044
g240
(g1389
g242
Ntp2045
Rp2046
(dp2047
g1393
g1118
sg1394
g1552
sg270
g1116
sbsS'IwResHandlerGROUP.h'
p2048
g240
(g1389
g242
Ntp2049
Rp2050
(dp2051
g1393
g990
sg1394
g1694
sg270
g991
sbsS's3eDebug.h'
p2052
g240
(g1389
g242
Ntp2053
Rp2054
(dp2055
g1393
g1407
sg1394
g1432
sg270
S'c:/marmalade/6.2/s3e/h/s3eDebug.h'
p2056
sbsS'socket.h'
p2057
g240
(g1389
g242
Ntp2058
Rp2059
(dp2060
g1393
g1407
sg1394
g1566
sg270
S'c:/marmalade/6.2/s3e/h/std/sys/socket.h'
p2061
sbsS'glext.h'
p2062
g240
(g1389
g242
Ntp2063
Rp2064
(dp2065
g1393
g1407
sg1394
(lp2066
g1409
aS'GL'
p2067
aS'GLES 1.x'
p2068
asg270
S'c:/marmalade/6.2/s3e/h/GLES/glext.h'
p2069
sbsS'IwUITableView.h'
p2070
g240
(g1389
g242
Ntp2071
Rp2072
(dp2073
g1393
g1172
sg1394
g1395
sg270
g1235
sbsS'IwUILayoutGrid.h'
p2074
g240
(g1389
g242
Ntp2075
Rp2076
(dp2077
g1393
g1172
sg1394
g1395
sg270
g1173
sbsS'typeinfo.h'
p2078
g240
(g1389
g242
Ntp2079
Rp2080
(dp2081
g1393
g1407
sg1394
g1408
sg270
S'c:/marmalade/6.2/s3e/h/std/c++/typeinfo.h'
p2082
sbsS'typeinfo'
p2083
g240
(g1389
g242
Ntp2084
Rp2085
(dp2086
g1393
g1407
sg1394
g1408
sg270
S'c:/marmalade/6.2/s3e/h/std/c++/typeinfo'
p2087
sbsS'IwDivTable.h'
p2088
g240
(g1389
g242
Ntp2089
Rp2090
(dp2091
g1393
g1014
sg1394
g1445
sg270
g1082
sbsS'IwUIFocusHandlerTab.h'
p2092
g240
(g1389
g242
Ntp2093
Rp2094
(dp2095
g1393
g1172
sg1394
g1395
sg270
g1283
sbsS'main.ui'
p2096
g240
(g1389
g242
Ntp2097
Rp2098
(dp2099
g1393
g783
sg1394
(lp2100
g1378
asg270
g1380
sbsS'fstream.h'
p2101
g240
(g1389
g242
Ntp2102
Rp2103
(dp2104
g1393
g1407
sg1394
g1408
sg270
S'c:/marmalade/6.2/s3e/h/std/c++/fstream.h'
p2105
sbsS's3ePointer.h'
p2106
g240
(g1389
g242
Ntp2107
Rp2108
(dp2109
g1393
g1407
sg1394
g1432
sg270
S'c:/marmalade/6.2/s3e/h/s3ePointer.h'
p2110
sbsS'iw2d.mkf'
p2111
g240
(g1389
g242
Ntp2112
Rp2113
(dp2114
g1393
g895
sg1394
g1505
sg270
g893
sbsS's3eGL.h'
p2115
g240
(g1389
g242
Ntp2116
Rp2117
(dp2118
g1393
g1407
sg1394
g1432
sg270
S'c:/marmalade/6.2/s3e/h/s3eGL.h'
p2119
sbsS'IwGeomFVec2.h'
p2120
g240
(g1389
g242
Ntp2121
Rp2122
(dp2123
g1393
g922
sg1394
g1421
sg270
g974
sbsS'IwGeomSVec4.h'
p2124
g240
(g1389
g242
Ntp2125
Rp2126
(dp2127
g1393
g922
sg1394
g1421
sg270
g941
sbsS'complex'
p2128
g240
(g1389
g242
Ntp2129
Rp2130
(dp2131
g1393
g1407
sg1394
g1408
sg270
S'c:/marmalade/6.2/s3e/h/std/c++/complex'
p2132
sbsS'poll.h'
p2133
g240
(g1389
g242
Ntp2134
Rp2135
(dp2136
g1393
g1407
sg1394
g1438
sg270
S'c:/marmalade/6.2/s3e/h/std/poll.h'
p2137
sbsS'IwMatAnim.h'
p2138
g240
(g1389
g242
Ntp2139
Rp2140
(dp2141
g1393
g1118
sg1394
g1552
sg270
g1162
sbsS'tinystr.cpp'
p2142
g240
(g1389
g242
Ntp2143
Rp2144
(dp2145
g1393
g1364
sg1394
g1663
sg270
g1367
sbsS'iwui.mkf'
p2146
g240
(g1389
g242
Ntp2147
Rp2148
(dp2149
g1393
g1349
sg1394
g1395
sg270
g1347
sbsS'IwGeomFVec4.h'
p2150
g240
(g1389
g242
Ntp2151
Rp2152
(dp2153
g1393
g922
sg1394
g1421
sg270
g927
sbsS'IwUIHoldingPtr.h'
p2154
g240
(g1389
g242
Ntp2155
Rp2156
(dp2157
g1393
g1172
sg1394
g1395
sg270
g1343
sbsS'IwGx.h'
p2158
g240
(g1389
g242
Ntp2159
Rp2160
(dp2161
g1393
g1118
sg1394
g1552
sg270
g1158
sbsS'valarray'
p2162
g240
(g1389
g242
Ntp2163
Rp2164
(dp2165
g1393
g1407
sg1394
g1408
sg270
S'c:/marmalade/6.2/s3e/h/std/c++/valarray'
p2166
sbsS'IwUIElementEventHandler.h'
p2167
g240
(g1389
g242
Ntp2168
Rp2169
(dp2170
g1393
g1172
sg1394
g1395
sg270
g1277
sbsS'iosfwd'
p2171
g240
(g1389
g242
Ntp2172
Rp2173
(dp2174
g1393
g1407
sg1394
g1408
sg270
S'c:/marmalade/6.2/s3e/h/std/c++/iosfwd'
p2175
sbsS'gl2.h'
p2176
g240
(g1389
g242
Ntp2177
Rp2178
(dp2179
g1393
g1407
sg1394
g1686
sg270
S'c:/marmalade/6.2/s3e/h/GLES2/gl2.h'
p2180
sbsS'IwUIFocusHandler.h'
p2181
g240
(g1389
g242
Ntp2182
Rp2183
(dp2184
g1393
g1172
sg1394
g1395
sg270
g1293
sbsS'IwUIElementPropertyBinding.h'
p2185
g240
(g1389
g242
Ntp2186
Rp2187
(dp2188
g1393
g1172
sg1394
g1395
sg270
g1323
sbsS'IwUITableViewItemSource.h'
p2189
g240
(g1389
g242
Ntp2190
Rp2191
(dp2192
g1393
g1172
sg1394
g1395
sg270
g1285
sbsS'stdiostream.h'
p2193
g240
(g1389
g242
Ntp2194
Rp2195
(dp2196
g1393
g1407
sg1394
g1408
sg270
S'c:/marmalade/6.2/s3e/h/std/c++/stdiostream.h'
p2197
sbsS'npc.cpp'
p2198
g240
(g1389
g242
Ntp2199
Rp2200
(dp2201
g1393
g783
sg1394
g1485
sg270
g812
sbsS'IwPropertySet.h'
p2202
g240
(g1389
g242
Ntp2203
Rp2204
(dp2205
g1393
g1172
sg1394
g1395
sg270
g1239
sbsS'main.cpp'
p2206
g240
(g1389
g242
Ntp2207
Rp2208
(dp2209
g1393
g783
sg1394
g1485
sg270
g796
sbsVzconf.h
p2210
g240
(g1389
g242
Ntp2211
Rp2212
(dp2213
g1393
g1354
sg1394
g2015
sg270
g1352
sbsS'tinyxmlerror.cpp'
p2214
g240
(g1389
g242
Ntp2215
Rp2216
(dp2217
g1393
g1364
sg1394
g1663
sg270
g1369
sbsS's3e.config.txt'
p2218
g240
(g1389
g242
Ntp2219
Rp2220
(dp2221
g1393
g1407
sg1394
g1432
sg270
S'c:/marmalade/6.2/s3e/s3e.config.txt'
p2222
sbsS'numeric'
p2223
g240
(g1389
g242
Ntp2224
Rp2225
(dp2226
g1393
g1407
sg1394
g1408
sg270
S'c:/marmalade/6.2/s3e/h/std/c++/numeric'
p2227
sbsS'utime.h'
p2228
g240
(g1389
g242
Ntp2229
Rp2230
(dp2231
g1393
g1407
sg1394
g1438
sg270
S'c:/marmalade/6.2/s3e/h/std/utime.h'
p2232
sbsS'IwUIImage.h'
p2233
g240
(g1389
g242
Ntp2234
Rp2235
(dp2236
g1393
g1172
sg1394
g1395
sg270
g1279
sbsVjdhuff.h
p2237
g240
(g1389
g242
Ntp2238
Rp2239
(dp2240
g1393
g830
sg1394
g1500
sg270
g828
sbsS'IwUIDrawable.h'
p2241
g240
(g1389
g242
Ntp2242
Rp2243
(dp2244
g1393
g1172
sg1394
g1395
sg270
g1313
sbsS'un.h'
p2245
g240
(g1389
g242
Ntp2246
Rp2247
(dp2248
g1393
g1407
sg1394
g1566
sg270
S'c:/marmalade/6.2/s3e/h/std/sys/un.h'
p2249
sbsS'IwUILayout.h'
p2250
g240
(g1389
g242
Ntp2251
Rp2252
(dp2253
g1393
g1172
sg1394
g1395
sg270
g1345
sbsS'IwImage.h'
p2254
g240
(g1389
g242
Ntp2255
Rp2256
(dp2257
g1393
g1014
sg1394
g1445
sg270
g1029
sbsS's3eImagePicker.h'
p2258
g240
(g1389
g242
Ntp2259
Rp2260
(dp2261
g1393
g1407
sg1394
g1648
sg270
S'c:/marmalade/6.2/s3e/h/ext/s3eImagePicker.h'
p2262
sbsS'IwPropertyDataType.h'
p2263
g240
(g1389
g242
Ntp2264
Rp2265
(dp2266
g1393
g1172
sg1394
g1395
sg270
g1327
sbsS'stdlib.h'
p2267
g240
(g1389
g242
Ntp2268
Rp2269
(dp2270
g1393
g1407
sg1394
g1438
sg270
S'c:/marmalade/6.2/s3e/h/std/stdlib.h'
p2271
sbsS'IwCopyingPtr.h'
p2272
g240
(g1389
g242
Ntp2273
Rp2274
(dp2275
g1393
g1014
sg1394
g1445
sg270
g1031
sbsS'IwUIRadioButton.h'
p2276
g240
(g1389
g242
Ntp2277
Rp2278
(dp2279
g1393
g1172
sg1394
g1395
sg270
g1209
sbsVpng.h
p2280
g240
(g1389
g242
Ntp2281
Rp2282
(dp2283
g1393
g823
sg1394
g2038
sg270
g821
sbsS'stddef.h'
p2284
g240
(g1389
g242
Ntp2285
Rp2286
(dp2287
g1393
g1407
sg1394
g1438
sg270
S'c:/marmalade/6.2/s3e/h/std/stddef.h'
p2288
sbsS'setjmp_win32.h'
p2289
g240
(g1389
g242
Ntp2290
Rp2291
(dp2292
g1393
g1407
sg1394
g1438
sg270
S'c:/marmalade/6.2/s3e/h/std/setjmp_win32.h'
p2293
sbsS'IwGxPrint.h'
p2294
g240
(g1389
g242
Ntp2295
Rp2296
(dp2297
g1393
g1118
sg1394
g1552
sg270
g1145
sbsS'IwGeomSVec2.h'
p2298
g240
(g1389
g242
Ntp2299
Rp2300
(dp2301
g1393
g922
sg1394
g1421
sg270
g966
sbsS'streambuf.h'
p2302
g240
(g1389
g242
Ntp2303
Rp2304
(dp2305
g1393
g1407
sg1394
g1408
sg270
S'c:/marmalade/6.2/s3e/h/std/c++/streambuf.h'
p2306
sbsS'IwGeomFPlane.h'
p2307
g240
(g1389
g242
Ntp2308
Rp2309
(dp2310
g1393
g922
sg1394
g1421
sg270
g949
sbsS'wchar.h'
p2311
g240
(g1389
g242
Ntp2312
Rp2313
(dp2314
g1393
g1407
sg1394
g1438
sg270
S'c:/marmalade/6.2/s3e/h/std/wchar.h'
p2315
sbsS's3eCameraCapture.h'
p2316
g240
(g1389
g242
Ntp2317
Rp2318
(dp2319
g1393
g1407
sg1394
g1648
sg270
S'c:/marmalade/6.2/s3e/h/ext/s3eCameraCapture.h'
p2320
sbsS'eglext.h'
p2321
g240
(g1389
g242
Ntp2322
Rp2323
(dp2324
g1393
g1407
sg1394
g1784
sg270
S'c:/marmalade/6.2/s3e/h/EGL/eglext.h'
p2325
sbsS'IwPropertySetFuncs.h'
p2326
g240
(g1389
g242
Ntp2327
Rp2328
(dp2329
g1393
g1172
sg1394
g1395
sg270
g1221
sbsS'IwUIView.h'
p2330
g240
(g1389
g242
Ntp2331
Rp2332
(dp2333
g1393
g1172
sg1394
g1395
sg270
g1197
sbsS'IwResHandlerImage.h'
p2334
g240
(g1389
g242
Ntp2335
Rp2336
(dp2337
g1393
g990
sg1394
g1694
sg270
g995
sbsS'strstream.h'
p2338
g240
(g1389
g242
Ntp2339
Rp2340
(dp2341
g1393
g1407
sg1394
g1408
sg270
S'c:/marmalade/6.2/s3e/h/std/c++/strstream.h'
p2342
sbsVtiniconv.h
p2343
g240
(g1389
g242
Ntp2344
Rp2345
(dp2346
g1393
g867
sg1394
g1931
sg270
g865
sbsS'IwGLExt.h'
p2347
g240
(g1389
g242
Ntp2348
Rp2349
(dp2350
g1393
g876
sg1394
g1533
sg270
g874
sbsS'uio.h'
p2351
g240
(g1389
g242
Ntp2352
Rp2353
(dp2354
g1393
g1407
sg1394
g1566
sg270
S'c:/marmalade/6.2/s3e/h/std/sys/uio.h'
p2355
sbsS'app.icf'
p2356
g240
(g1389
g242
Ntp2357
Rp2358
(dp2359
g1393
(dp2360
sg1394
g4
sg270
S'e:/4410-5-1-13/team-game-4410/Game Source/AIMessage/data/app.icf'
p2361
sbsS'IwClassFactory.h'
p2362
g240
(g1389
g242
Ntp2363
Rp2364
(dp2365
g1393
g1014
sg1394
g1445
sg270
g1086
sbsS'file.h'
p2366
g240
(g1389
g242
Ntp2367
Rp2368
(dp2369
g1393
g1407
sg1394
g1566
sg270
S'c:/marmalade/6.2/s3e/h/std/sys/file.h'
p2370
sbsS'cstring'
p2371
g240
(g1389
g242
Ntp2372
Rp2373
(dp2374
g1393
g1407
sg1394
g1408
sg270
S'c:/marmalade/6.2/s3e/h/std/c++/cstring'
p2375
sbsS'iwui.config.txt'
p2376
g240
(g1389
g242
Ntp2377
Rp2378
(dp2379
g1393
g1172
sg1394
g1395
sg270
g1301
sbsS'iwutil.config.txt'
p2380
g240
(g1389
g242
Ntp2381
Rp2382
(dp2383
g1393
g1014
sg1394
g1445
sg270
g1019
sbsS's3eSMS.h'
p2384
g240
(g1389
g242
Ntp2385
Rp2386
(dp2387
g1393
g1407
sg1394
g1648
sg270
S'c:/marmalade/6.2/s3e/h/ext/s3eSMS.h'
p2388
sbsS'limits.h'
p2389
g240
(g1389
g242
Ntp2390
Rp2391
(dp2392
g1393
g1407
sg1394
g1438
sg270
S'c:/marmalade/6.2/s3e/h/std/limits.h'
p2393
sbsS'IwUIDrawableBorder.h'
p2394
g240
(g1389
g242
Ntp2395
Rp2396
(dp2397
g1393
g1172
sg1394
g1395
sg270
g1183
sbsS's3eLibrary.h'
p2398
g240
(g1389
g242
Ntp2399
Rp2400
(dp2401
g1393
g1407
sg1394
g1648
sg270
S'c:/marmalade/6.2/s3e/h/ext/s3eLibrary.h'
p2402
sbsS'iwgx_public.defines.txt'
p2403
g240
(g1389
g242
Ntp2404
Rp2405
(dp2406
g1393
g1118
sg1394
g1552
sg270
g1125
sbsS'IwMaterial.h'
p2407
g240
(g1389
g242
Ntp2408
Rp2409
(dp2410
g1393
g1118
sg1394
g1552
sg270
g1143
sbsS'dialManager.cpp'
p2411
g240
(g1389
g242
Ntp2412
Rp2413
(dp2414
g1393
g783
sg1394
g1485
sg270
g794
sbsS'dialogueManager.h'
p2415
g240
(g1389
g242
Ntp2416
Rp2417
(dp2418
g1393
g783
sg1394
g1485
sg270
g806
sbsS'IwGxSurface.h'
p2419
g240
(g1389
g242
Ntp2420
Rp2421
(dp2422
g1393
g1118
sg1394
g1552
sg270
g1154
sbsS's3eSocket.h'
p2423
g240
(g1389
g242
Ntp2424
Rp2425
(dp2426
g1393
g1407
sg1394
g1432
sg270
S'c:/marmalade/6.2/s3e/h/s3eSocket.h'
p2427
sbsS'IwAutoFile.h'
p2428
g240
(g1389
g242
Ntp2429
Rp2430
(dp2431
g1393
g1014
sg1394
g1445
sg270
g1088
sbsS'ipc.h'
p2432
g240
(g1389
g242
Ntp2433
Rp2434
(dp2435
g1393
g1407
sg1394
g1566
sg270
S'c:/marmalade/6.2/s3e/h/std/sys/ipc.h'
p2436
sbsS'poll_1.h'
p2437
g240
(g1389
g242
Ntp2438
Rp2439
(dp2440
g1393
g1407
sg1394
g1566
sg270
S'c:/marmalade/6.2/s3e/h/std/sys/poll.h'
p2441
sbsS's3eThread.h'
p2442
g240
(g1389
g242
Ntp2443
Rp2444
(dp2445
g1393
g1407
sg1394
g1432
sg270
S'c:/marmalade/6.2/s3e/h/s3eThread.h'
p2446
sbsS'IwUIAnimator.h'
p2447
g240
(g1389
g242
Ntp2448
Rp2449
(dp2450
g1393
g1172
sg1394
g1395
sg270
g1269
sbsS'ucontext.h'
p2451
g240
(g1389
g242
Ntp2452
Rp2453
(dp2454
g1393
g1407
sg1394
g1438
sg270
S'c:/marmalade/6.2/s3e/h/std/ucontext.h'
p2455
sbsS'time.h'
p2456
g240
(g1389
g242
Ntp2457
Rp2458
(dp2459
g1393
g1407
sg1394
g1438
sg270
S'c:/marmalade/6.2/s3e/h/std/time.h'
p2460
sbsVjchuff.h
p2461
g240
(g1389
g242
Ntp2462
Rp2463
(dp2464
g1393
g830
sg1394
g1500
sg270
g846
sbsS's3eSoundRecord.h'
p2465
g240
(g1389
g242
Ntp2466
Rp2467
(dp2468
g1393
g1407
sg1394
g1432
sg270
S'c:/marmalade/6.2/s3e/h/s3eSoundRecord.h'
p2469
sbsS'IwFibre.h'
p2470
g240
(g1389
g242
Ntp2471
Rp2472
(dp2473
g1393
g1014
sg1394
g1445
sg270
g1112
sbsS'IwUISoftKey.h'
p2474
g240
(g1389
g242
Ntp2475
Rp2476
(dp2477
g1393
g1172
sg1394
g1395
sg270
g1339
sbsS'IwUIAlertDialog.h'
p2478
g240
(g1389
g242
Ntp2479
Rp2480
(dp2481
g1393
g1172
sg1394
g1395
sg270
g1263
sbsS'IwUIFuncs.h'
p2482
g240
(g1389
g242
Ntp2483
Rp2484
(dp2485
g1393
g1172
sg1394
g1395
sg270
g1213
sbsS'IwGxFontGlyph.h'
p2486
g240
(g1389
g242
Ntp2487
Rp2488
(dp2489
g1393
g900
sg1394
g1401
sg270
g906
sbsS'ReplyArray.h'
p2490
g240
(g1389
g242
Ntp2491
Rp2492
(dp2493
g1393
g783
sg1394
g1485
sg270
g798
sbsS'iwgxfont.mkf'
p2494
g240
(g1389
g242
Ntp2495
Rp2496
(dp2497
g1393
g903
sg1394
g1401
sg270
g901
sbsS'npc.h'
p2498
g240
(g1389
g242
Ntp2499
Rp2500
(dp2501
g1393
g783
sg1394
g1485
sg270
g792
sbsS'signal_2.h'
p2502
g240
(g1389
g242
Ntp2503
Rp2504
(dp2505
g1393
g1407
sg1394
g1408
sg270
S'c:/marmalade/6.2/s3e/h/std/c++/signal.h'
p2506
sbsS'IwPropertyString.h'
p2507
g240
(g1389
g242
Ntp2508
Rp2509
(dp2510
g1393
g1172
sg1394
g1395
sg270
g1207
sbsS'IwUIStyle.h'
p2511
g240
(g1389
g242
Ntp2512
Rp2513
(dp2514
g1393
g1172
sg1394
g1395
sg270
g1191
sbsS'IwUIElementUtil.h'
p2515
g240
(g1389
g242
Ntp2516
Rp2517
(dp2518
g1393
g1172
sg1394
g1395
sg270
g1287
sbsS'termios.h'
p2519
g240
(g1389
g242
Ntp2520
Rp2521
(dp2522
g1393
g1407
sg1394
g1438
sg270
S'c:/marmalade/6.2/s3e/h/std/termios.h'
p2523
sbsS'IwUIPickerViewItemSource.h'
p2524
g240
(g1389
g242
Ntp2525
Rp2526
(dp2527
g1393
g1172
sg1394
g1395
sg270
g1195
sbsS'fcntl.h'
p2528
g240
(g1389
g242
Ntp2529
Rp2530
(dp2531
g1393
g1407
sg1394
g1438
sg270
S'c:/marmalade/6.2/s3e/h/std/fcntl.h'
p2532
sbsS'IwUILayoutSpacer.h'
p2533
g240
(g1389
g242
Ntp2534
Rp2535
(dp2536
g1393
g1172
sg1394
g1395
sg270
g1215
sbsS'IwUIPickerWheel.h'
p2537
g240
(g1389
g242
Ntp2538
Rp2539
(dp2540
g1393
g1172
sg1394
g1395
sg270
g1211
sbsS'cstdlib'
p2541
g240
(g1389
g242
Ntp2542
Rp2543
(dp2544
g1393
g1407
sg1394
g1408
sg270
S'c:/marmalade/6.2/s3e/h/std/c++/cstdlib'
p2545
sbsS's3eLocation.h'
p2546
g240
(g1389
g242
Ntp2547
Rp2548
(dp2549
g1393
g1407
sg1394
g1432
sg270
S'c:/marmalade/6.2/s3e/h/s3eLocation.h'
p2550
sbsS'IwPropertyList.h'
p2551
g240
(g1389
g242
Ntp2552
Rp2553
(dp2554
g1393
g1172
sg1394
g1395
sg270
g1203
sbsS'IwMemBucketHelpers.h'
p2555
g240
(g1389
g242
Ntp2556
Rp2557
(dp2558
g1393
g1014
sg1394
g1445
sg270
g1094
sbsS's3eHash.h'
p2559
g240
(g1389
g242
Ntp2560
Rp2561
(dp2562
g1393
g1407
sg1394
g1432
sg270
S'c:/marmalade/6.2/s3e/h/s3eHash.h'
p2563
sbsS'IwGeomFMat.h'
p2564
g240
(g1389
g242
Ntp2565
Rp2566
(dp2567
g1393
g922
sg1394
g1421
sg270
g972
sbsS'type_traits.h'
p2568
g240
(g1389
g242
Ntp2569
Rp2570
(dp2571
g1393
g1407
sg1394
g1408
sg270
S'c:/marmalade/6.2/s3e/h/std/c++/type_traits.h'
p2572
sbsS'IwUIEventHandler.h'
p2573
g240
(g1389
g242
Ntp2574
Rp2575
(dp2576
g1393
g1172
sg1394
g1395
sg270
g1243
sbsS'IwMenu.h'
p2577
g240
(g1389
g242
Ntp2578
Rp2579
(dp2580
g1393
g1014
sg1394
g1445
sg270
g1058
sbsS'IwResHandlerITX.h'
p2581
g240
(g1389
g242
Ntp2582
Rp2583
(dp2584
g1393
g990
sg1394
g1694
sg270
g1008
sbsS'IwArray.h'
p2585
g240
(g1389
g242
Ntp2586
Rp2587
(dp2588
g1393
g1014
sg1394
g1445
sg270
g1060
sbsS'IwUTF8.h'
p2589
g240
(g1389
g242
Ntp2590
Rp2591
(dp2592
g1393
g1014
sg1394
g1445
sg270
g1072
sbsS'math_rvct.h'
p2593
g240
(g1389
g242
Ntp2594
Rp2595
(dp2596
g1393
g1407
sg1394
g1438
sg270
S'c:/marmalade/6.2/s3e/h/std/math_rvct.h'
p2597
sbsS'IwUtil.h'
p2598
g240
(g1389
g242
Ntp2599
Rp2600
(dp2601
g1393
g1014
sg1394
g1445
sg270
g1054
sbsS'IwFColour.h'
p2602
g240
(g1389
g242
Ntp2603
Rp2604
(dp2605
g1393
g1118
sg1394
g1552
sg270
g1137
sbsS'wctype.h'
p2606
g240
(g1389
g242
Ntp2607
Rp2608
(dp2609
g1393
g1407
sg1394
g1438
sg270
S'c:/marmalade/6.2/s3e/h/std/wctype.h'
p2610
sbsS'history.h'
p2611
g240
(g1389
g242
Ntp2612
Rp2613
(dp2614
g1393
g783
sg1394
g1485
sg270
g781
sbsS'cstddef'
p2615
g240
(g1389
g242
Ntp2616
Rp2617
(dp2618
g1393
g1407
sg1394
g1408
sg270
S'c:/marmalade/6.2/s3e/h/std/c++/cstddef'
p2619
sbsS'assert.h'
p2620
g240
(g1389
g242
Ntp2621
Rp2622
(dp2623
g1393
g1407
sg1394
g1438
sg270
S'c:/marmalade/6.2/s3e/h/std/assert.h'
p2624
sbsS'mman.h'
p2625
g240
(g1389
g242
Ntp2626
Rp2627
(dp2628
g1393
g1407
sg1394
g1566
sg270
S'c:/marmalade/6.2/s3e/h/std/sys/mman.h'
p2629
sbsS'IwRandom.h'
p2630
g240
(g1389
g242
Ntp2631
Rp2632
(dp2633
g1393
g1014
sg1394
g1445
sg270
g1048
sbsS'IwPropertyBinding.h'
p2634
g240
(g1389
g242
Ntp2635
Rp2636
(dp2637
g1393
g1172
sg1394
g1395
sg270
g1237
sbsS'utsname.h'
p2638
g240
(g1389
g242
Ntp2639
Rp2640
(dp2641
g1393
g1407
sg1394
g1566
sg270
S'c:/marmalade/6.2/s3e/h/std/sys/utsname.h'
p2642
sbsS'wait.h'
p2643
g240
(g1389
g242
Ntp2644
Rp2645
(dp2646
g1393
g1407
sg1394
g1566
sg270
S'c:/marmalade/6.2/s3e/h/std/sys/wait.h'
p2647
sbsS'param.h'
p2648
g240
(g1389
g242
Ntp2649
Rp2650
(dp2651
g1393
g1407
sg1394
g1566
sg270
S'c:/marmalade/6.2/s3e/h/std/sys/param.h'
p2652
sbsS'libgen.h'
p2653
g240
(g1389
g242
Ntp2654
Rp2655
(dp2656
g1393
g1407
sg1394
g1438
sg270
S'c:/marmalade/6.2/s3e/h/std/libgen.h'
p2657
sbsS'IwDivide.h'
p2658
g240
(g1389
g242
Ntp2659
Rp2660
(dp2661
g1393
g1014
sg1394
g1445
sg270
g1100
sbsS'IwResManager.h'
p2662
g240
(g1389
g242
Ntp2663
Rp2664
(dp2665
g1393
g990
sg1394
g1694
sg270
g1006
sbsS'ostream'
p2666
g240
(g1389
g242
Ntp2667
Rp2668
(dp2669
g1393
g1407
sg1394
g1408
sg270
S'c:/marmalade/6.2/s3e/h/std/c++/ostream'
p2670
sbsS'cwctype'
p2671
g240
(g1389
g242
Ntp2672
Rp2673
(dp2674
g1393
g1407
sg1394
g1408
sg270
S'c:/marmalade/6.2/s3e/h/std/c++/cwctype'
p2675
sbsS'set'
p2676
g240
(g1389
g242
Ntp2677
Rp2678
(dp2679
g1393
g1407
sg1394
g1408
sg270
S'c:/marmalade/6.2/s3e/h/std/c++/set'
p2680
sbsS'IwGeomSQuat.h'
p2681
g240
(g1389
g242
Ntp2682
Rp2683
(dp2684
g1393
g922
sg1394
g1421
sg270
g953
sbsS'locale'
p2685
g240
(g1389
g242
Ntp2686
Rp2687
(dp2688
g1393
g1407
sg1394
g1408
sg270
S'c:/marmalade/6.2/s3e/h/std/c++/locale'
p2689
sbsS'cstdio'
p2690
g240
(g1389
g242
Ntp2691
Rp2692
(dp2693
g1393
g1407
sg1394
g1408
sg270
S'c:/marmalade/6.2/s3e/h/std/c++/cstdio'
p2694
sbsS'IwUIBasicLabelCode.group'
p2695
g240
(g1389
g242
Ntp2696
Rp2697
(dp2698
g1393
g783
sg1394
g2100
sg270
g1382
sbsVcdjpeg.h
p2699
g240
(g1389
g242
Ntp2700
Rp2701
(dp2702
g1393
g830
sg1394
g1500
sg270
g835
sbsS'IwList.h'
p2703
g240
(g1389
g242
Ntp2704
Rp2705
(dp2706
g1393
g1014
sg1394
g1445
sg270
g1080
sbsS'inttypes.h'
p2707
g240
(g1389
g242
Ntp2708
Rp2709
(dp2710
g1393
g1407
sg1394
g1438
sg270
S'c:/marmalade/6.2/s3e/h/std/inttypes.h'
p2711
sbsS'dirent.h'
p2712
g240
(g1389
g242
Ntp2713
Rp2714
(dp2715
g1393
g1407
sg1394
g1438
sg270
S'c:/marmalade/6.2/s3e/h/std/dirent.h'
p2716
sbsS'IwGeomVec3.h'
p2717
g240
(g1389
g242
Ntp2718
Rp2719
(dp2720
g1393
g922
sg1394
g1421
sg270
g984
sbsVtransupp.h
p2721
g240
(g1389
g242
Ntp2722
Rp2723
(dp2724
g1393
g830
sg1394
g1500
sg270
g839
sbsS'IwMath.h'
p2725
g240
(g1389
g242
Ntp2726
Rp2727
(dp2728
g1393
g1014
sg1394
g1445
sg270
g1037
sbsS'IwGeomQuat.h'
p2729
g240
(g1389
g242
Ntp2730
Rp2731
(dp2732
g1393
g922
sg1394
g1421
sg270
g958
sbsS'glplatform.h'
p2733
g240
(g1389
g242
Ntp2734
Rp2735
(dp2736
g1393
g1407
sg1394
g2066
sg270
S'c:/marmalade/6.2/s3e/h/GLES/glplatform.h'
p2737
sbsS'bitset'
p2738
g240
(g1389
g242
Ntp2739
Rp2740
(dp2741
g1393
g1407
sg1394
g1408
sg270
S'c:/marmalade/6.2/s3e/h/std/c++/bitset'
p2742
sbsS'alloca.h'
p2743
g240
(g1389
g242
Ntp2744
Rp2745
(dp2746
g1393
g1407
sg1394
g1438
sg270
S'c:/marmalade/6.2/s3e/h/std/alloca.h'
p2747
sbsS'IwPropertyData.h'
p2748
g240
(g1389
g242
Ntp2749
Rp2750
(dp2751
g1393
g1172
sg1394
g1395
sg270
g1255
sbsS'IwChar.h'
p2752
g240
(g1389
g242
Ntp2753
Rp2754
(dp2755
g1393
g1014
sg1394
g1445
sg270
g1110
sbsS'IwPropertyDefine.h'
p2756
g240
(g1389
g242
Ntp2757
Rp2758
(dp2759
g1393
g1172
sg1394
g1395
sg270
g1309
sbsS'IwResHandlerMTL.h'
p2760
g240
(g1389
g242
Ntp2761
Rp2762
(dp2763
g1393
g1118
sg1394
g1552
sg270
g1129
sbsS'IwRuntime.h'
p2764
g240
(g1389
g242
Ntp2765
Rp2766
(dp2767
g1393
g1014
sg1394
g1445
sg270
g1074
sbsS'limits'
p2768
g240
(g1389
g242
Ntp2769
Rp2770
(dp2771
g1393
g1407
sg1394
g1408
sg270
S'c:/marmalade/6.2/s3e/h/std/c++/limits'
p2772
sbsS'IwGeomBBox.h'
p2773
g240
(g1389
g242
Ntp2774
Rp2775
(dp2776
g1393
g922
sg1394
g1421
sg270
g945
sbsS'IwUISlider.h'
p2777
g240
(g1389
g242
Ntp2778
Rp2779
(dp2780
g1393
g1172
sg1394
g1395
sg270
g1229
sbsS's3eLicense.h'
p2781
g240
(g1389
g242
Ntp2782
Rp2783
(dp2784
g1393
g1407
sg1394
g1432
sg270
S'c:/marmalade/6.2/s3e/h/s3eLicense.h'
p2785
sbsS'IwUIElementSignal.h'
p2786
g240
(g1389
g242
Ntp2787
Rp2788
(dp2789
g1393
g1172
sg1394
g1395
sg270
g1273
sbsS'iwgx.config.txt'
p2790
g240
(g1389
g242
Ntp2791
Rp2792
(dp2793
g1393
g1118
sg1394
g1552
sg270
g1131
sbsS'IwTextParser.h'
p2794
g240
(g1389
g242
Ntp2795
Rp2796
(dp2797
g1393
g1014
sg1394
g1445
sg270
g1096
sbsS's3eTimer.h'
p2798
g240
(g1389
g242
Ntp2799
Rp2800
(dp2801
g1393
g1407
sg1394
g1432
sg270
S'c:/marmalade/6.2/s3e/h/s3eTimer.h'
p2802
sbsS'IwGeomVec.h'
p2803
g240
(g1389
g242
Ntp2804
Rp2805
(dp2806
g1393
g922
sg1394
g1421
sg270
g982
sbsS'IwSerialise.h'
p2807
g240
(g1389
g242
Ntp2808
Rp2809
(dp2810
g1393
g1014
sg1394
g1445
sg270
g1025
sbsS'IwUIAtlas.h'
p2811
g240
(g1389
g242
Ntp2812
Rp2813
(dp2814
g1393
g1172
sg1394
g1395
sg270
g1297
sbsS'cstdarg'
p2815
g240
(g1389
g242
Ntp2816
Rp2817
(dp2818
g1393
g1407
sg1394
g1408
sg270
S'c:/marmalade/6.2/s3e/h/std/c++/cstdarg'
p2819
sbsS'gl2ext.h'
p2820
g240
(g1389
g242
Ntp2821
Rp2822
(dp2823
g1393
g1407
sg1394
g1686
sg270
S'c:/marmalade/6.2/s3e/h/GLES2/gl2ext.h'
p2824
sbsS'IwPropertyBase.h'
p2825
g240
(g1389
g242
Ntp2826
Rp2827
(dp2828
g1393
g1172
sg1394
g1395
sg270
g1257
sbsS'IwResHandler.h'
p2829
g240
(g1389
g242
Ntp2830
Rp2831
(dp2832
g1393
g990
sg1394
g1694
sg270
g999
sbsS'IwUIEvent.h'
p2833
g240
(g1389
g242
Ntp2834
Rp2835
(dp2836
g1393
g1172
sg1394
g1395
sg270
g1291
sbsS's3eSound.h'
p2837
g240
(g1389
g242
Ntp2838
Rp2839
(dp2840
g1393
g1407
sg1394
g1432
sg270
S'c:/marmalade/6.2/s3e/h/s3eSound.h'
p2841
sbsS'IwOptimiseThumb.h'
p2842
g240
(g1389
g242
Ntp2843
Rp2844
(dp2845
g1393
g1014
sg1394
g1445
sg270
g1078
sbsS'exception.h'
p2846
g240
(g1389
g242
Ntp2847
Rp2848
(dp2849
g1393
g1407
sg1394
g1408
sg270
S'c:/marmalade/6.2/s3e/h/std/c++/exception.h'
p2850
sbsS'iwgeom.config.txt'
p2851
g240
(g1389
g242
Ntp2852
Rp2853
(dp2854
g1393
g922
sg1394
g1421
sg270
g951
sbsS'iwgx.mkf'
p2855
g240
(g1389
g242
Ntp2856
Rp2857
(dp2858
g1393
g1151
sg1394
g1552
sg270
g1149
sbsS'gl.h'
p2859
g240
(g1389
g242
Ntp2860
Rp2861
(dp2862
g1393
g1407
sg1394
g2066
sg270
S'c:/marmalade/6.2/s3e/h/GLES/gl.h'
p2863
sbsVzlib.h
p2864
g240
(g1389
g242
Ntp2865
Rp2866
(dp2867
g1393
g1354
sg1394
g2015
sg270
g1358
sbsS'iwgl.mkf'
p2868
g240
(g1389
g242
Ntp2869
Rp2870
(dp2871
g1393
g883
sg1394
g1533
sg270
g881
sbsS'IwColour.h'
p2872
g240
(g1389
g242
Ntp2873
Rp2874
(dp2875
g1393
g1118
sg1394
g1552
sg270
g1141
sbsS'types.h'
p2876
g240
(g1389
g242
Ntp2877
Rp2878
(dp2879
g1393
g1407
sg1394
g1566
sg270
S'c:/marmalade/6.2/s3e/h/std/sys/types.h'
p2880
sbsS'ifaddrs.h'
p2881
g240
(g1389
g242
Ntp2882
Rp2883
(dp2884
g1393
g1407
sg1394
g1438
sg270
S'c:/marmalade/6.2/s3e/h/std/ifaddrs.h'
p2885
sbsS'strstream'
p2886
g240
(g1389
g242
Ntp2887
Rp2888
(dp2889
g1393
g1407
sg1394
g1408
sg270
S'c:/marmalade/6.2/s3e/h/std/c++/strstream'
p2890
sbsS'exception'
p2891
g240
(g1389
g242
Ntp2892
Rp2893
(dp2894
g1393
g1407
sg1394
g1408
sg270
S'c:/marmalade/6.2/s3e/h/std/c++/exception'
p2895
sbsS'rlocks.h'
p2896
g240
(g1389
g242
Ntp2897
Rp2898
(dp2899
g1393
g1407
sg1394
g1408
sg270
S'c:/marmalade/6.2/s3e/h/std/c++/rlocks.h'
p2900
sbsS'IwUIPropertySet.h'
p2901
g240
(g1389
g242
Ntp2902
Rp2903
(dp2904
g1393
g1172
sg1394
g1395
sg270
g1295
sbsS'ioctl.h'
p2905
g240
(g1389
g242
Ntp2906
Rp2907
(dp2908
g1393
g1407
sg1394
g1566
sg270
S'c:/marmalade/6.2/s3e/h/std/sys/ioctl.h'
p2909
sbsS'rope'
p2910
g240
(g1389
g242
Ntp2911
Rp2912
(dp2913
g1393
g1407
sg1394
g1408
sg270
S'c:/marmalade/6.2/s3e/h/std/c++/rope'
p2914
sbsVjinclude.h
p2915
g240
(g1389
g242
Ntp2916
Rp2917
(dp2918
g1393
g830
sg1394
g1500
sg270
g858
sbsS'IwUIDelegate.h'
p2919
g240
(g1389
g242
Ntp2920
Rp2921
(dp2922
g1393
g1172
sg1394
g1395
sg270
g1189
sbsS'IwUIDebug.h'
p2923
g240
(g1389
g242
Ntp2924
Rp2925
(dp2926
g1393
g1172
sg1394
g1395
sg270
g1321
sbsS'IwEvent.h'
p2927
g240
(g1389
g242
Ntp2928
Rp2929
(dp2930
g1393
g1014
sg1394
g1445
sg270
g1108
sbsS'IwUIController.h'
p2931
g240
(g1389
g242
Ntp2932
Rp2933
(dp2934
g1393
g1172
sg1394
g1395
sg270
g1271
sbsS'IwOptimiseSize.h'
p2935
g240
(g1389
g242
Ntp2936
Rp2937
(dp2938
g1393
g1014
sg1394
g1445
sg270
g1062
sbsS'iwgxfont_public.defines.txt'
p2939
g240
(g1389
g242
Ntp2940
Rp2941
(dp2942
g1393
g900
sg1394
g1401
sg270
g898
sbsS'iconv.h'
p2943
g240
(g1389
g242
Ntp2944
Rp2945
(dp2946
g1393
g1407
sg1394
g1438
sg270
S'c:/marmalade/6.2/s3e/h/std/iconv.h'
p2947
sbsS's3eDevice.h'
p2948
g240
(g1389
g242
Ntp2949
Rp2950
(dp2951
g1393
g1407
sg1394
g1432
sg270
S'c:/marmalade/6.2/s3e/h/s3eDevice.h'
p2952
sbsS'IwGeomSphere.h'
p2953
g240
(g1389
g242
Ntp2954
Rp2955
(dp2956
g1393
g922
sg1394
g1421
sg270
g968
sbsVtiniconv.mkf
p2957
g240
(g1389
g242
Ntp2958
Rp2959
(dp2960
g1393
g864
sg1394
g1931
sg270
g862
sbsS'IwUIAnimData.h'
p2961
g240
(g1389
g242
Ntp2962
Rp2963
(dp2964
g1393
g1172
sg1394
g1395
sg270
g1281
sbsVjdct.h
p2965
g240
(g1389
g242
Ntp2966
Rp2967
(dp2968
g1393
g830
sg1394
g1500
sg270
g856
sbsS'cctype'
p2969
g240
(g1389
g242
Ntp2970
Rp2971
(dp2972
g1393
g1407
sg1394
g1408
sg270
S'c:/marmalade/6.2/s3e/h/std/c++/cctype'
p2973
sbsS's3eConfig.h'
p2974
g240
(g1389
g242
Ntp2975
Rp2976
(dp2977
g1393
g1407
sg1394
g1432
sg270
S'c:/marmalade/6.2/s3e/h/s3eConfig.h'
p2978
sbsS'IwHashString.h'
p2979
g240
(g1389
g242
Ntp2980
Rp2981
(dp2982
g1393
g1014
sg1394
g1445
sg270
g1102
sbsS'stat.h'
p2983
g240
(g1389
g242
Ntp2984
Rp2985
(dp2986
g1393
g1407
sg1394
g1566
sg270
S'c:/marmalade/6.2/s3e/h/std/sys/stat.h'
p2987
sbsS'byteswap.h'
p2988
g240
(g1389
g242
Ntp2989
Rp2990
(dp2991
g1393
g1407
sg1394
g1438
sg270
S'c:/marmalade/6.2/s3e/h/std/byteswap.h'
p2992
sbsS'iwresmanager.mkf'
p2993
g240
(g1389
g242
Ntp2994
Rp2995
(dp2996
g1393
g1003
sg1394
g1694
sg270
g1001
sbsS'IwUtilInitTerm.h'
p2997
g240
(g1389
g242
Ntp2998
Rp2999
(dp3000
g1393
g1014
sg1394
g1445
sg270
g1033
sbsS's3eVersion.h'
p3001
g240
(g1389
g242
Ntp3002
Rp3003
(dp3004
g1393
g1407
sg1394
g1432
sg270
S'c:/marmalade/6.2/s3e/h/s3eVersion.h'
p3005
sbsS'pthread_1.h'
p3006
g240
(g1389
g242
Ntp3007
Rp3008
(dp3009
g1393
g1407
sg1394
g1408
sg270
S'c:/marmalade/6.2/s3e/h/std/c++/pthread.h'
p3010
sbsS'IwMemBucket.h'
p3011
g240
(g1389
g242
Ntp3012
Rp3013
(dp3014
g1393
g1014
sg1394
g1445
sg270
g1070
sbsS's3eContacts.h'
p3015
g240
(g1389
g242
Ntp3016
Rp3017
(dp3018
g1393
g1407
sg1394
g1432
sg270
S'c:/marmalade/6.2/s3e/h/s3eContacts.h'
p3019
sbsS'game.cpp'
p3020
g240
(g1389
g242
Ntp3021
Rp3022
(dp3023
g1393
g783
sg1394
g1485
sg270
g790
sbsS'algorithm'
p3024
g240
(g1389
g242
Ntp3025
Rp3026
(dp3027
g1393
g1407
sg1394
g1408
sg270
S'c:/marmalade/6.2/s3e/h/std/c++/algorithm'
p3028
sbsS's3e.icf'
p3029
g240
(g1389
g242
Ntp3030
Rp3031
(dp3032
g1393
g1407
sg1394
g1432
sg270
S'c:/marmalade/6.2/s3e/s3e.icf'
p3033
sbsS'IwVariableBitField.h'
p3034
g240
(g1389
g242
Ntp3035
Rp3036
(dp3037
g1393
g1014
sg1394
g1445
sg270
g1076
sbsS'sem.h'
p3038
g240
(g1389
g242
Ntp3039
Rp3040
(dp3041
g1393
g1407
sg1394
g1566
sg270
S'c:/marmalade/6.2/s3e/h/std/sys/sem.h'
p3042
sbsS'IwGxFontState.h'
p3043
g240
(g1389
g242
Ntp3044
Rp3045
(dp3046
g1393
g900
sg1394
g1401
sg270
g904
sbsS'stdio.h'
p3047
g240
(g1389
g242
Ntp3048
Rp3049
(dp3050
g1393
g1407
sg1394
g1438
sg270
S'c:/marmalade/6.2/s3e/h/std/stdio.h'
p3051
sbsVjmemsys.h
p3052
g240
(g1389
g242
Ntp3053
Rp3054
(dp3055
g1393
g830
sg1394
g1500
sg270
g850
sbsS'ios'
p3056
g240
(g1389
g242
Ntp3057
Rp3058
(dp3059
g1393
g1407
sg1394
g1408
sg270
S'c:/marmalade/6.2/s3e/h/std/c++/ios'
p3060
sbsS'IwUIProgressBar.h'
p3061
g240
(g1389
g242
Ntp3062
Rp3063
(dp3064
g1393
g1172
sg1394
g1395
sg270
g1181
sbsS'stack'
p3065
g240
(g1389
g242
Ntp3066
Rp3067
(dp3068
g1393
g1407
sg1394
g1408
sg270
S'c:/marmalade/6.2/s3e/h/std/c++/stack'
p3069
sbsS'xmlloader.cpp'
p3070
g240
(g1389
g242
Ntp3071
Rp3072
(dp3073
g1393
g783
sg1394
g1485
sg270
g814
sbsS'IwUIMat.h'
p3074
g240
(g1389
g242
Ntp3075
Rp3076
(dp3077
g1393
g1172
sg1394
g1395
sg270
g1317
sbsS'new.h'
p3078
g240
(g1389
g242
Ntp3079
Rp3080
(dp3081
g1393
g1407
sg1394
g1408
sg270
S'c:/marmalade/6.2/s3e/h/std/c++/new.h'
p3082
sbsS's3eEMail.h'
p3083
g240
(g1389
g242
Ntp3084
Rp3085
(dp3086
g1393
g1407
sg1394
g1648
sg270
S'c:/marmalade/6.2/s3e/h/ext/s3eEMail.h'
p3087
sbsS's3eVideo.h'
p3088
g240
(g1389
g242
Ntp3089
Rp3090
(dp3091
g1393
g1407
sg1394
g1432
sg270
S'c:/marmalade/6.2/s3e/h/s3eVideo.h'
p3092
sbsS'IwFile.h'
p3093
g240
(g1389
g242
Ntp3094
Rp3095
(dp3096
g1393
g1014
sg1394
g1445
sg270
g1017
sbsS'pwd.h'
p3097
g240
(g1389
g242
Ntp3098
Rp3099
(dp3100
g1393
g1407
sg1394
g1438
sg270
S'c:/marmalade/6.2/s3e/h/std/pwd.h'
p3101
sbsS'xmlLoader.h'
p3102
g240
(g1389
g242
Ntp3103
Rp3104
(dp3105
g1393
g783
sg1394
g1485
sg270
g808
sbsS'IwClip.h'
p3106
g240
(g1389
g242
Ntp3107
Rp3108
(dp3109
g1393
g1118
sg1394
g1552
sg270
g1164
sbsS'iwresmanager.config.txt'
p3110
g240
(g1389
g242
Ntp3111
Rp3112
(dp3113
g1393
g990
sg1394
g1694
sg270
g997
sbsS'IwGxShaderTechnique.h'
p3114
g240
(g1389
g242
Ntp3115
Rp3116
(dp3117
g1393
g1118
sg1394
g1552
sg270
g1156
sbsS'IwCore.h'
p3118
g240
(g1389
g242
Ntp3119
Rp3120
(dp3121
g1393
g1014
sg1394
g1445
sg270
g1021
sbsS'cfloat'
p3122
g240
(g1389
g242
Ntp3123
Rp3124
(dp3125
g1393
g1407
sg1394
g1408
sg270
S'c:/marmalade/6.2/s3e/h/std/c++/cfloat'
p3126
sbsS'IwGeomMat2D.h'
p3127
g240
(g1389
g242
Ntp3128
Rp3129
(dp3130
g1393
g922
sg1394
g1421
sg270
g960
sbsS'IwAllocator.h'
p3131
g240
(g1389
g242
Ntp3132
Rp3133
(dp3134
g1393
g1014
sg1394
g1445
sg270
g1090
sbsS'IwUIPickerView.h'
p3135
g240
(g1389
g242
Ntp3136
Rp3137
(dp3138
g1393
g1172
sg1394
g1395
sg270
g1245
sbsS'IwPath.h'
p3139
g240
(g1389
g242
Ntp3140
Rp3141
(dp3142
g1393
g1014
sg1394
g1445
sg270
g1027
sbsS's3eTypes.h'
p3143
g240
(g1389
g242
Ntp3144
Rp3145
(dp3146
g1393
g1407
sg1394
g1432
sg270
S'c:/marmalade/6.2/s3e/h/s3eTypes.h'
p3147
sbsS'IwTexture.h'
p3148
g240
(g1389
g242
Ntp3149
Rp3150
(dp3151
g1393
g1118
sg1394
g1552
sg270
g1135
sbsS'IwUIDrawableText.h'
p3152
g240
(g1389
g242
Ntp3153
Rp3154
(dp3155
g1393
g1172
sg1394
g1395
sg270
g1175
sbsS'IwUIElementItem.h'
p3156
g240
(g1389
g242
Ntp3157
Rp3158
(dp3159
g1393
g1172
sg1394
g1395
sg270
g1315
sbsS's3eAccelerometer.h'
p3160
g240
(g1389
g242
Ntp3161
Rp3162
(dp3163
g1393
g1407
sg1394
g1432
sg270
S'c:/marmalade/6.2/s3e/h/s3eAccelerometer.h'
p3164
sbsS'IwUILayoutHorizontal.h'
p3165
g240
(g1389
g242
Ntp3166
Rp3167
(dp3168
g1393
g1172
sg1394
g1395
sg270
g1259
sbsS'setjmp.h'
p3169
g240
(g1389
g242
Ntp3170
Rp3171
(dp3172
g1393
g1407
sg1394
g1438
sg270
S'c:/marmalade/6.2/s3e/h/std/setjmp.h'
p3173
sbsVpngconf.h
p3174
g240
(g1389
g242
Ntp3175
Rp3176
(dp3177
g1393
g823
sg1394
g2038
sg270
g824
sbsS'IwTextParseable.h'
p3178
g240
(g1389
g242
Ntp3179
Rp3180
(dp3181
g1393
g1014
sg1394
g1445
sg270
g1098
sbsS'istream.h'
p3182
g240
(g1389
g242
Ntp3183
Rp3184
(dp3185
g1393
g1407
sg1394
g1408
sg270
S'c:/marmalade/6.2/s3e/h/std/c++/istream.h'
p3186
sbsS'stdint.h'
p3187
g240
(g1389
g242
Ntp3188
Rp3189
(dp3190
g1393
g1407
sg1394
g1438
sg270
S'c:/marmalade/6.2/s3e/h/std/stdint.h'
p3191
sbsS'semaphore.h'
p3192
g240
(g1389
g242
Ntp3193
Rp3194
(dp3195
g1393
g1407
sg1394
g1438
sg270
S'c:/marmalade/6.2/s3e/h/std/semaphore.h'
p3196
sbsS'IwUIEventHandlerSlot.h'
p3197
g240
(g1389
g242
Ntp3198
Rp3199
(dp3200
g1393
g1172
sg1394
g1395
sg270
g1253
sbsS'sstream'
p3201
g240
(g1389
g242
Ntp3202
Rp3203
(dp3204
g1393
g1407
sg1394
g1408
sg270
S'c:/marmalade/6.2/s3e/h/std/c++/sstream'
p3205
sbsS'IwUIAnimation.h'
p3206
g240
(g1389
g242
Ntp3207
Rp3208
(dp3209
g1393
g1172
sg1394
g1395
sg270
g1319
sbsS'IwUISingleton.h'
p3210
g240
(g1389
g242
Ntp3211
Rp3212
(dp3213
g1393
g1172
sg1394
g1395
sg270
g1337
sbsS'IwGeomFBBox.h'
p3214
g240
(g1389
g242
Ntp3215
Rp3216
(dp3217
g1393
g922
sg1394
g1421
sg270
g933
sbsS'IwDebugPrim.h'
p3218
g240
(g1389
g242
Ntp3219
Rp3220
(dp3221
g1393
g1118
sg1394
g1552
sg270
g1127
sbsS'ReplyArray.cpp'
p3222
g240
(g1389
g242
Ntp3223
Rp3224
(dp3225
g1393
g783
sg1394
g1485
sg270
g800
sbsS'IwDecomposable.h'
p3226
g240
(g1389
g242
Ntp3227
Rp3228
(dp3229
g1393
g1172
sg1394
g1395
sg270
g1311
sbsS'IwGxFontContainer.h'
p3230
g240
(g1389
g242
Ntp3231
Rp3232
(dp3233
g1393
g900
sg1394
g1401
sg270
g910
sbsS'IwGeomSVec3.h'
p3234
g240
(g1389
g242
Ntp3235
Rp3236
(dp3237
g1393
g922
sg1394
g1421
sg270
g964
sbsS's3eExt.h'
p3238
g240
(g1389
g242
Ntp3239
Rp3240
(dp3241
g1393
g1407
sg1394
g1432
sg270
S'c:/marmalade/6.2/s3e/h/s3eExt.h'
p3242
sbsS'IwGeomFVec3.h'
p3243
g240
(g1389
g242
Ntp3244
Rp3245
(dp3246
g1393
g922
sg1394
g1421
sg270
g923
sbsS'UI.group'
p3247
g240
(g1389
g242
Ntp3248
Rp3249
(dp3250
g1393
g783
sg1394
g2100
sg270
g1384
sbsS'IwPropertyMap.h'
p3251
g240
(g1389
g242
Ntp3252
Rp3253
(dp3254
g1393
g1172
sg1394
g1395
sg270
g1331
sbsS'streambuf'
p3255
g240
(g1389
g242
Ntp3256
Rp3257
(dp3258
g1393
g1407
sg1394
g1408
sg270
S'c:/marmalade/6.2/s3e/h/std/c++/streambuf'
p3259
sbsS's3eMetrics.h'
p3260
g240
(g1389
g242
Ntp3261
Rp3262
(dp3263
g1393
g1407
sg1394
g1648
sg270
S'c:/marmalade/6.2/s3e/h/ext/s3eMetrics.h'
p3264
sbsS'IwUICheckbox.h'
p3265
g240
(g1389
g242
Ntp3266
Rp3267
(dp3268
g1393
g1172
sg1394
g1395
sg270
g1335
sbsS'glob.h'
p3269
g240
(g1389
g242
Ntp3270
Rp3271
(dp3272
g1393
g1407
sg1394
g1438
sg270
S'c:/marmalade/6.2/s3e/h/std/glob.h'
p3273
sbsS'IwGxFont.h'
p3274
g240
(g1389
g242
Ntp3275
Rp3276
(dp3277
g1393
g900
sg1394
g1401
sg270
g916
sbsS'history.cpp'
p3278
g240
(g1389
g242
Ntp3279
Rp3280
(dp3281
g1393
g783
sg1394
g1485
sg270
g788
sbsS's3eSecureStorage.h'
p3282
g240
(g1389
g242
Ntp3283
Rp3284
(dp3285
g1393
g1407
sg1394
g1432
sg270
S'c:/marmalade/6.2/s3e/h/s3eSecureStorage.h'
p3286
sbsS'string.h'
p3287
g240
(g1389
g242
Ntp3288
Rp3289
(dp3290
g1393
g1407
sg1394
g1438
sg270
S'c:/marmalade/6.2/s3e/h/std/string.h'
p3291
sbsS'IwResource.h'
p3292
g240
(g1389
g242
Ntp3293
Rp3294
(dp3295
g1393
g1014
sg1394
g1445
sg270
g1015
sbsVlibjpeg.mkf
p3296
g240
(g1389
g242
Ntp3297
Rp3298
(dp3299
g1393
g845
sg1394
g1500
sg270
g843
sbsS'IwGxDebug.h'
p3300
g240
(g1389
g242
Ntp3301
Rp3302
(dp3303
g1393
g1118
sg1394
g1552
sg270
g1133
sbsS'IwUIVisitor.h'
p3304
g240
(g1389
g242
Ntp3305
Rp3306
(dp3307
g1393
g1172
sg1394
g1395
sg270
g1187
sbsS'iomanip.h'
p3308
g240
(g1389
g242
Ntp3309
Rp3310
(dp3311
g1393
g1407
sg1394
g1408
sg270
S'c:/marmalade/6.2/s3e/h/std/c++/iomanip.h'
p3312
sbsS'IwKeymap.h'
p3313
g240
(g1389
g242
Ntp3314
Rp3315
(dp3316
g1393
g1014
sg1394
g1445
sg270
g1068
sbsS'IwDebug.h'
p3317
g240
(g1389
g242
Ntp3318
Rp3319
(dp3320
g1393
g1014
sg1394
g1445
sg270
g1044
sbsS's3eIOSBackgroundAudio.h'
p3321
g240
(g1389
g242
Ntp3322
Rp3323
(dp3324
g1393
g1407
sg1394
g1648
sg270
S'c:/marmalade/6.2/s3e/h/ext/s3eIOSBackgroundAudio.h'
p3325
sbsS'IwGeomMenu.h'
p3326
g240
(g1389
g242
Ntp3327
Rp3328
(dp3329
g1393
g922
sg1394
g1421
sg270
g920
sbsS'IwUIFocusHandler2D.h'
p3330
g240
(g1389
g242
Ntp3331
Rp3332
(dp3333
g1393
g1172
sg1394
g1395
sg270
g1223
sbsS'IwUITabBar.h'
p3334
g240
(g1389
g242
Ntp3335
Rp3336
(dp3337
g1393
g1172
sg1394
g1395
sg270
g1227
sbsS'ctype.h'
p3338
g240
(g1389
g242
Ntp3339
Rp3340
(dp3341
g1393
g1407
sg1394
g1438
sg270
S'c:/marmalade/6.2/s3e/h/std/ctype.h'
p3342
sbsS'IwGeomMat.h'
p3343
g240
(g1389
g242
Ntp3344
Rp3345
(dp3346
g1393
g922
sg1394
g1421
sg270
g976
sbsS'IwResGroup.h'
p3347
g240
(g1389
g242
Ntp3348
Rp3349
(dp3350
g1393
g990
sg1394
g1694
sg270
g1004
sbsS'signal_1.h'
p3351
g240
(g1389
g242
Ntp3352
Rp3353
(dp3354
g1393
g1407
sg1394
g1566
sg270
S'c:/marmalade/6.2/s3e/h/std/sys/signal.h'
p3355
sbsVjerror.h
p3356
g240
(g1389
g242
Ntp3357
Rp3358
(dp3359
g1393
g830
sg1394
g1500
sg270
g841
sbsS'shm.h'
p3360
g240
(g1389
g242
Ntp3361
Rp3362
(dp3363
g1393
g1407
sg1394
g1566
sg270
S'c:/marmalade/6.2/s3e/h/std/sys/shm.h'
p3364
sbsS'IwManagedList.h'
p3365
g240
(g1389
g242
Ntp3366
Rp3367
(dp3368
g1393
g1014
sg1394
g1445
sg270
g1056
sbsS'prctl.h'
p3369
g240
(g1389
g242
Ntp3370
Rp3371
(dp3372
g1393
g1407
sg1394
g1566
sg270
S'c:/marmalade/6.2/s3e/h/std/sys/prctl.h'
p3373
sbsVjpegint.h
p3374
g240
(g1389
g242
Ntp3375
Rp3376
(dp3377
g1393
g830
sg1394
g1500
sg270
g854
sbsS'IwGxStream.h'
p3378
g240
(g1389
g242
Ntp3379
Rp3380
(dp3381
g1393
g1118
sg1394
g1552
sg270
g1160
sbsS'IwUILabel.h'
p3382
g240
(g1389
g242
Ntp3383
Rp3384
(dp3385
g1393
g1172
sg1394
g1395
sg270
g1225
sbsS'utility'
p3386
g240
(g1389
g242
Ntp3387
Rp3388
(dp3389
g1393
g1407
sg1394
g1408
sg270
S'c:/marmalade/6.2/s3e/h/std/c++/utility'
p3390
sbsS'IwGeomLegacy.h'
p3391
g240
(g1389
g242
Ntp3392
Rp3393
(dp3394
g1393
g922
sg1394
g1421
sg270
g935
sbsS'IwTPage.h'
p3395
g240
(g1389
g242
Ntp3396
Rp3397
(dp3398
g1393
g1118
sg1394
g1552
sg270
g1147
sbsS'IwUITextInput.h'
p3399
g240
(g1389
g242
Ntp3400
Rp3401
(dp3402
g1393
g1172
sg1394
g1395
sg270
g1185
sbsS'IwResSerialise.h'
p3403
g240
(g1389
g242
Ntp3404
Rp3405
(dp3406
g1393
g990
sg1394
g1694
sg270
g988
sbsS's3eCrypto.h'
p3407
g240
(g1389
g242
Ntp3408
Rp3409
(dp3410
g1393
g1407
sg1394
g1432
sg270
S'c:/marmalade/6.2/s3e/h/s3eCrypto.h'
p3411
sbsS's3eKeyboard.h'
p3412
g240
(g1389
g242
Ntp3413
Rp3414
(dp3415
g1393
g1407
sg1394
g1432
sg270
S'c:/marmalade/6.2/s3e/h/s3eKeyboard.h'
p3416
sbsS'tinystr.h'
p3417
g240
(g1389
g242
Ntp3418
Rp3419
(dp3420
g1393
g1364
sg1394
g1663
sg270
g1371
sbsS'memory.h'
p3421
g240
(g1389
g242
Ntp3422
Rp3423
(dp3424
g1393
g1407
sg1394
g1438
sg270
S'c:/marmalade/6.2/s3e/h/std/memory.h'
p3425
sbsS'IwUISoftKeyBalloon.h'
p3426
g240
(g1389
g242
Ntp3427
Rp3428
(dp3429
g1393
g1172
sg1394
g1395
sg270
g1303
sbsS'IwUIColour.h'
p3430
g240
(g1389
g242
Ntp3431
Rp3432
(dp3433
g1393
g1172
sg1394
g1395
sg270
g1251
sbsS'pthread.h'
p3434
g240
(g1389
g242
Ntp3435
Rp3436
(dp3437
g1393
g1407
sg1394
g1438
sg270
S'c:/marmalade/6.2/s3e/h/std/pthread.h'
p3438
sbsS'IwGeomIntersect.h'
p3439
g240
(g1389
g242
Ntp3440
Rp3441
(dp3442
g1393
g922
sg1394
g1421
sg270
g931
sbsS'netdb.h'
p3443
g240
(g1389
g242
Ntp3444
Rp3445
(dp3446
g1393
g1407
sg1394
g1438
sg270
S'c:/marmalade/6.2/s3e/h/std/netdb.h'
p3447
sbsS'egl_1.h'
p3448
g240
(g1389
g242
Ntp3449
Rp3450
(dp3451
g1393
g1407
sg1394
g2066
sg270
S'c:/marmalade/6.2/s3e/h/GLES/egl.h'
p3452
sbsS'IwUILayoutForm.h'
p3453
g240
(g1389
g242
Ntp3454
Rp3455
(dp3456
g1393
g1172
sg1394
g1395
sg270
g1333
sbsS'ostream.h'
p3457
g240
(g1389
g242
Ntp3458
Rp3459
(dp3460
g1393
g1407
sg1394
g1408
sg270
S'c:/marmalade/6.2/s3e/h/std/c++/ostream.h'
p3461
sbsS'stl_user_config.h'
p3462
g240
(g1389
g242
Ntp3463
Rp3464
(dp3465
g1393
g1407
sg1394
g1408
sg270
S'c:/marmalade/6.2/s3e/h/std/c++/stl_user_config.h'
p3466
sbsS'IwProfileMenu.h'
p3467
g240
(g1389
g242
Ntp3468
Rp3469
(dp3470
g1393
g1014
sg1394
g1445
sg270
g1066
sbsS'MarmaladeVersion.h'
p3471
g240
(g1389
g242
Ntp3472
Rp3473
(dp3474
g1393
g1407
sg1394
g1432
sg270
S'c:/marmalade/6.2/s3e/h/MarmaladeVersion.h'
p3475
sbsS'ios.h'
p3476
g240
(g1389
g242
Ntp3477
Rp3478
(dp3479
g1393
g1407
sg1394
g1408
sg270
S'c:/marmalade/6.2/s3e/h/std/c++/ios.h'
p3480
sbsS'IwImageHelper.h'
p3481
g240
(g1389
g242
Ntp3482
Rp3483
(dp3484
g1393
g1014
sg1394
g1445
sg270
g1092
sbsS'hash_set'
p3485
g240
(g1389
g242
Ntp3486
Rp3487
(dp3488
g1393
g1407
sg1394
g1408
sg270
S'c:/marmalade/6.2/s3e/h/std/c++/hash_set'
p3489
sbsS'IwGeomFQuat.h'
p3490
g240
(g1389
g242
Ntp3491
Rp3492
(dp3493
g1393
g922
sg1394
g1421
sg270
g978
sbsVjmorecfg.h
p3494
g240
(g1389
g242
Ntp3495
Rp3496
(dp3497
g1393
g830
sg1394
g1500
sg270
g833
sbsS'eglplatform.h'
p3498
g240
(g1389
g242
Ntp3499
Rp3500
(dp3501
g1393
g1407
sg1394
g1784
sg270
S'c:/marmalade/6.2/s3e/h/EGL/eglplatform.h'
p3502
sbsS'cmath'
p3503
g240
(g1389
g242
Ntp3504
Rp3505
(dp3506
g1393
g1407
sg1394
g1408
sg270
S'c:/marmalade/6.2/s3e/h/std/c++/cmath'
p3507
sbsS'math_gcc.h'
p3508
g240
(g1389
g242
Ntp3509
Rp3510
(dp3511
g1393
g1407
sg1394
g1438
sg270
S'c:/marmalade/6.2/s3e/h/std/math_gcc.h'
p3512
sbsS's3eMemory.h'
p3513
g240
(g1389
g242
Ntp3514
Rp3515
(dp3516
g1393
g1407
sg1394
g1432
sg270
S'c:/marmalade/6.2/s3e/h/s3eMemory.h'
p3517
sbsS'IwUISoftKeyPosition.h'
p3518
g240
(g1389
g242
Ntp3519
Rp3520
(dp3521
g1393
g1172
sg1394
g1395
sg270
g1261
sbsS'strings.h'
p3522
g240
(g1389
g242
Ntp3523
Rp3524
(dp3525
g1393
g1407
sg1394
g1438
sg270
S'c:/marmalade/6.2/s3e/h/std/strings.h'
p3526
sbsS'IwUISoftKeyboard.h'
p3527
g240
(g1389
g242
Ntp3528
Rp3529
(dp3530
g1393
g1172
sg1394
g1395
sg270
g1247
sbsS's3eFile.h'
p3531
g240
(g1389
g242
Ntp3532
Rp3533
(dp3534
g1393
g1407
sg1394
g1432
sg270
S'c:/marmalade/6.2/s3e/h/s3eFile.h'
p3535
sbsS'IwUIStyleManager.h'
p3536
g240
(g1389
g242
Ntp3537
Rp3538
(dp3539
g1393
g1172
sg1394
g1395
sg270
g1265
sbsS'IwGxTypes.h'
p3540
g240
(g1389
g242
Ntp3541
Rp3542
(dp3543
g1393
g1118
sg1394
g1552
sg270
g1121
sbsS'cerrno'
p3544
g240
(g1389
g242
Ntp3545
Rp3546
(dp3547
g1393
g1407
sg1394
g1408
sg270
S'c:/marmalade/6.2/s3e/h/std/c++/cerrno'
p3548
sbsS'resource.h'
p3549
g240
(g1389
g242
Ntp3550
Rp3551
(dp3552
g1393
g1407
sg1394
g1566
sg270
S'c:/marmalade/6.2/s3e/h/std/sys/resource.h'
p3553
sbsS'clocale'
p3554
g240
(g1389
g242
Ntp3555
Rp3556
(dp3557
g1393
g1407
sg1394
g1408
sg270
S'c:/marmalade/6.2/s3e/h/std/c++/clocale'
p3558
sbsS'IwUIAlignment.h'
p3559
g240
(g1389
g242
Ntp3560
Rp3561
(dp3562
g1393
g1172
sg1394
g1395
sg270
g1205
sbsS'dialogueRow.h'
p3563
g240
(g1389
g242
Ntp3564
Rp3565
(dp3566
g1393
g783
sg1394
g1485
sg270
g784
sbsS'IwTextParserITX.h'
p3567
g240
(g1389
g242
Ntp3568
Rp3569
(dp3570
g1393
g1014
sg1394
g1445
sg270
g1084
sbsS's3eAndroidJNI.h'
p3571
g240
(g1389
g242
Ntp3572
Rp3573
(dp3574
g1393
g1407
sg1394
g1648
sg270
S'c:/marmalade/6.2/s3e/h/ext/s3eAndroidJNI.h'
p3575
sbsS'stdexcept'
p3576
g240
(g1389
g242
Ntp3577
Rp3578
(dp3579
g1393
g1407
sg1394
g1408
sg270
S'c:/marmalade/6.2/s3e/h/std/c++/stdexcept'
p3580
sbsS'math.h'
p3581
g240
(g1389
g242
Ntp3582
Rp3583
(dp3584
g1393
g1407
sg1394
g1438
sg270
S'c:/marmalade/6.2/s3e/h/std/math.h'
p3585
sbsS'stdbool.h'
p3586
g240
(g1389
g242
Ntp3587
Rp3588
(dp3589
g1393
g1407
sg1394
g1438
sg270
S'c:/marmalade/6.2/s3e/h/std/stdbool.h'
p3590
sbsS'tinyxml.h'
p3591
g240
(g1389
g242
Ntp3592
Rp3593
(dp3594
g1393
g1364
sg1394
g1663
sg270
g1376
sbsS'IwUncopyable.h'
p3595
g240
(g1389
g242
Ntp3596
Rp3597
(dp3598
g1393
g1014
sg1394
g1445
sg270
g1042
sbssS'tests'
p3599
(lp3600
sS'project_name'
p3601
g248
sS'root_file'
p3602
g105
sS'current_root'
p3603
S'e:/4410-5-1-13/team-game-4410/Game Source/AIMessage'
p3604
sS'dependencies'
p3605
(lp3606
sS'include_paths'
p3607
(lp3608
S'e:/4410-5-1-13/team-game-4410/Game Source/AIMessage/h'
p3609
aVc:/users/dizzi/appdata/roaming/marmalade/packages/6.2.0/libjpeg_6b/h
p3610
aVc:/users/dizzi/appdata/roaming/marmalade/packages/6.2.0/zlib_1.2.4/h
p3611
aVc:/users/dizzi/appdata/roaming/marmalade/packages/6.2.0/libpng_1.2.34/h
p3612
aS'c:/marmalade/6.2/modules/iwutil/h'
p3613
aS'c:/marmalade/6.2/modules/iwgeom/h'
p3614
aS'c:/marmalade/6.2/modules/iwresmanager/h'
p3615
aS'c:/marmalade/6.2/modules/iwgl/h'
p3616
aS'c:/marmalade/6.2/modules/iwgx/h'
p3617
aVc:/users/dizzi/appdata/roaming/marmalade/packages/6.2.0/tiniconv_1.0.1/h
p3618
aS'c:/marmalade/6.2/modules/iwgxfont/h'
p3619
aS'c:/marmalade/6.2/modules/iw2d/h'
p3620
aS'e:/4410-5-1-13/team-game-4410/game source/aimessage/upstream'
p3621
aS'c:/marmalade/6.2/modules/iwui/h'
p3622
aS'c:/marmalade/6.2/s3e/h'
p3623
aS'c:/marmalade/6.2/s3e/h/ext'
p3624
aS'c:/marmalade/6.2/s3e/h/std'
p3625
aS'c:/marmalade/6.2/s3e/h/std/c++'
p3626
aS'c:/marmalade/6.2/s3e/h/ext_legacy'
p3627
aS'c:/marmalade/6.2/s3e/h/legacy'
p3628
asS'weak_frameworks'
p3629
(lp3630
sS'extprojects'
p3631
(dp3632
sg499
(dp3633
g493
(lp3634
(S'e:/4410-5-1-13/team-game-4410/Game Source/AIMessage/data-ram/data-gles1/fonts.group.bin,e:/4410-5-1-13/team-game-4410/Game Source/AIMessage/data/fonts.group.bin'
p3635
S'fonts.group.bin'
p3636
I0
tp3637
a(S'e:/4410-5-1-13/team-game-4410/Game Source/AIMessage/data-ram/data-gles1/font.gxfont.bin,e:/4410-5-1-13/team-game-4410/Game Source/AIMessage/data/font.gxfont.bin'
p3638
S'font.gxfont.bin'
p3639
I0
tp3640
a(S'e:/4410-5-1-13/team-game-4410/Game Source/AIMessage/data-ram/data-gles1/ui.group.bin,e:/4410-5-1-13/team-game-4410/Game Source/AIMessage/data/ui.group.bin'
p3641
S'ui.group.bin'
p3642
I0
tp3643
a(S'e:/4410-5-1-13/team-game-4410/Game Source/AIMessage/data-ram/data-gles1/IwUIBasicLabelCode.group.bin,e:/4410-5-1-13/team-game-4410/Game Source/AIMessage/data/IwUIBasicLabelCode.group.bin'
p3644
S'IwUIBasicLabelCode.group.bin'
p3645
I0
tp3646
a(S'e:/4410-5-1-13/team-game-4410/Game Source/AIMessage/data-ram/rickhistory.xml'
p3647
S'rickhistory.xml'
p3648
I0
tp3649
a(S'e:/4410-5-1-13/team-game-4410/Game Source/AIMessage/data-ram/ReplyOptions.xml'
p3650
S'ReplyOptions.xml'
p3651
I0
tp3652
a(S'e:/4410-5-1-13/team-game-4410/Game Source/AIMessage/data-ram/rick.xml'
p3653
S'rick.xml'
p3654
I0
tp3655
a(S'e:/4410-5-1-13/team-game-4410/Game Source/AIMessage/data/txtButton_small.png'
p3656
S'txtButton_small.png'
p3657
I0
tp3658
a(S'e:/4410-5-1-13/team-game-4410/Game Source/AIMessage/data/dialogue.xml'
p3659
S'dialogue.xml'
p3660
I0
tp3661
assS'macro_types'
p3662
(dp3663
g437
I0
sg439
I1
sg440
I0
sg441
I0
sg442
I0
sg443
I0
sg444
I0
sg445
I0
sg446
I0
sg447
I0
sg448
I0
sg450
I0
sg451
I0
sg452
I0
sg453
I0
sg454
I0
sg455
I0
sg457
I0
sg458
I0
sg459
I0
sg460
I1
sg461
I0
sg462
I0
sg463
I0
sg464
I01
sg465
I1
sg466
I0
sg467
I0
sg468
I0
sg469
I0
ssS'commands'
p3664
(lp3665
sg501
(g772
S'VC10'
p3666
S'X86ARM'
p3667
tp3668
sS'subprojectOptions'
p3669
(dp3670
g505
(lp3671
sg507
Nsg508
Nsg509
Nsg510
Nsg511
Nsg512
Nsg513
Nsg514
(lp3672
sg728
Nsg516
Nsg518
Nsg647
Nsg520
Nsg521
Nsg522
Nsg523
Nsg524
Nsg525
Nsg526
Nsg527
Nsg711
(lp3673
sg528
Nsg529
(lp3674
sg729
Nsg532
Nsg533
Nsg730
Nsg725
Nsg535
Nsg538
Nsg539
Nsg540
Nsg641
Nsg541
Nsg542
Nsg733
Nsg544
Nsg545
Nsg724
Nsg546
Nsg547
Nsg548
Nsg549
Nsg550
Nsg551
Nsg552
Nsg553
Nsg602
Nsg555
Nsg557
Nsg558
Nsg560
Nsg562
Nsg564
Nsg565
Nsg567
Nsg568
Nsg569
Nsg570
Nsg714
Nsg571
Nsg573
Nsg574
Nsg575
Nsg576
Nsg577
Nsg578
Nsg606
Nsg580
(lp3675
sg582
Nsg583
Nsg584
Nsg585
Nsg586
Nsg587
Nsg588
Nsg589
Nsg657
Nsg591
Nsg592
Nsg593
Nsg594
(lp3676
sg596
Nsg597
Nsg598
Nsg599
Nsg600
Nsg554
Nsg603
Nsg604
Nsg610
(lp3677
sg579
Nsg607
Nsg608
Nsg609
Nsg605
Nsg612
Nsg747
Nsg614
Nsg615
Nsg616
Nsg617
Nsg618
Nsg619
Nsg620
Nsg621
Nsg661
Nsg623
Nsg624
Nsg625
(lp3678
sg627
Nsg628
Nsg748
Nsg630
Nsg631
Nsg632
Nsg633
Nsg634
Nsg635
Nsg636
Nsg662
Nsg638
Nsg639
Nsg640
Nsg536
Nsg642
(lp3679
sg644
Nsg645
Nsg646
Nsg769
Nsg519
Nsg648
Nsg649
Nsg650
Nsg651
(lp3680
sg517
Nsg653
Nsg654
Nsg655
Nsg656
Nsg590
Nsg659
Nsg660
Nsg622
Nsg637
Nsg663
Nsg664
Nsg665
Nsg666
Nsg667
Nsg668
Nsg669
Nsg670
Nsg671
Nsg756
Nsg673
Nsg674
Nsg675
Nsg561
Nsg677
(lp3681
sg679
Nsg680
Nsg681
Nsg682
Nsg683
Nsg684
Nsg685
(lp3682
sg687
(lp3683
sg689
Nsg690
Nsg691
Nsg692
Nsg693
Nsg694
Nsg695
Nsg696
Nsg697
Nsg760
Nsg699
Nsg700
Nsg701
Nsg702
Nsg703
Nsg704
Nsg705
Nsg706
Nsg707
Nsg715
Nsg709
Nsg754
Nsg710
Nsg537
Nsg713
Nsg566
Nsg708
Nsg764
Nsg717
Nsg718
Nsg719
Nsg753
Nsg720
Nsg721
Nsg722
Nsg723
Nsg559
Nsg543
Nsg726
Nsg727
Nsg676
Nsg531
Nsg534
Nsg731
Nsg732
Nsg658
Nsg734
Nsg735
Nsg736
Nsg737
Nsg738
Nsg739
Nsg740
Nsg741
Nsg742
Nsg743
(lp3684
sg745
Nsg746
Nsg613
Nsg629
Nsg749
Nsg750
Nsg751
Nsg752
Nsg572
Nsg563
Nsg755
Nsg672
Nsg757
Nsg758
Nsg759
Nsg698
Nsg761
Nsg762
Nsg763
Nsg716
Nsg765
Nsg766
Nsg767
Nsg768
Nsg556
Nsg770
NssS'build_libs'
p3685
(dp3686
sS'frameworks'
p3687
(lp3688
sS'environ'
p3689
(dp3690
sS'target_name_debug'
p3691
g248
sS'builders'
p3692
(dp3693
S'.S'
p3694
(dp3695
S'rvct'
p3696
(lp3697
S'.obj'
p3698
aS'echo ARM Assembling(RVCT) ${SOURCE}...'
p3699
aS'c:/marmalade/6.2/s3e\\rvct\\bin\\armasm -o ${TARGET} ${SOURCE}'
p3700
asg353
(lp3701
g3698
aS'echo ARM Assembling(GCC) ${SOURCE}...'
p3702
aS'c:/marmalade/6.2/s3e\\gcc\\bin\\arm-none-eabi-gcc -c -o ${TARGET} ${SOURCE}'
p3703
asS'ppu'
p3704
(lp3705
S'.a'
p3706
aS'echo PPU Assembling(SNC) ${SOURCE}...'
p3707
aS'c:/marmalade/6.2/s3e\\rvct\\bin\\armasm -o ${TARGET} ${SOURCE}'
p3708
assS'.s'
p3709
g3695
sS'.vp'
p3710
(lp3711
NaS'"C:/Marmalade/6.2/s3e/python/python.exe" "c:/marmalade/6.2/modules/iwgx/tools/compile_shaders.py" ${SOURCE}'
p3712
assg503
g0
sbtp3713
.