	.arch armv5te
	.eabi_attribute 27, 3
	.fpu vfp
	.eabi_attribute 20, 1
	.eabi_attribute 21, 1
	.eabi_attribute 23, 3
	.eabi_attribute 24, 1
	.eabi_attribute 25, 1
	.eabi_attribute 26, 2
	.eabi_attribute 30, 2
	.eabi_attribute 18, 2
	.file	"tinyxmlparser.cpp"
	.section	.text._ZN9TiXmlBaseD1Ev,"axG",%progbits,_ZN9TiXmlBaseD1Ev,comdat
	.align	2
	.weak	_ZN9TiXmlBaseD1Ev
	.hidden	_ZN9TiXmlBaseD1Ev
	.type	_ZN9TiXmlBaseD1Ev, %function
_ZN9TiXmlBaseD1Ev:
	@ args = 0, pretend = 0, frame = 0
	@ frame_needed = 0, uses_anonymous_args = 0
	@ link register save eliminated.
	ldr	r3, .L3
	str	r3, [r0, #0]
	bx	lr
.L4:
	.align	2
.L3:
	.word	_ZTV9TiXmlBase+8
	.size	_ZN9TiXmlBaseD1Ev, .-_ZN9TiXmlBaseD1Ev
	.section	.text._ZNK9TiXmlNode9ToElementEv,"axG",%progbits,_ZNK9TiXmlNode9ToElementEv,comdat
	.align	2
	.weak	_ZNK9TiXmlNode9ToElementEv
	.hidden	_ZNK9TiXmlNode9ToElementEv
	.type	_ZNK9TiXmlNode9ToElementEv, %function
_ZNK9TiXmlNode9ToElementEv:
	@ args = 0, pretend = 0, frame = 0
	@ frame_needed = 0, uses_anonymous_args = 0
	@ link register save eliminated.
	mov	r0, #0
	bx	lr
	.size	_ZNK9TiXmlNode9ToElementEv, .-_ZNK9TiXmlNode9ToElementEv
	.section	.text._ZNK9TiXmlNode9ToCommentEv,"axG",%progbits,_ZNK9TiXmlNode9ToCommentEv,comdat
	.align	2
	.weak	_ZNK9TiXmlNode9ToCommentEv
	.hidden	_ZNK9TiXmlNode9ToCommentEv
	.type	_ZNK9TiXmlNode9ToCommentEv, %function
_ZNK9TiXmlNode9ToCommentEv:
	@ args = 0, pretend = 0, frame = 0
	@ frame_needed = 0, uses_anonymous_args = 0
	@ link register save eliminated.
	mov	r0, #0
	bx	lr
	.size	_ZNK9TiXmlNode9ToCommentEv, .-_ZNK9TiXmlNode9ToCommentEv
	.section	.text._ZNK9TiXmlNode9ToUnknownEv,"axG",%progbits,_ZNK9TiXmlNode9ToUnknownEv,comdat
	.align	2
	.weak	_ZNK9TiXmlNode9ToUnknownEv
	.hidden	_ZNK9TiXmlNode9ToUnknownEv
	.type	_ZNK9TiXmlNode9ToUnknownEv, %function
_ZNK9TiXmlNode9ToUnknownEv:
	@ args = 0, pretend = 0, frame = 0
	@ frame_needed = 0, uses_anonymous_args = 0
	@ link register save eliminated.
	mov	r0, #0
	bx	lr
	.size	_ZNK9TiXmlNode9ToUnknownEv, .-_ZNK9TiXmlNode9ToUnknownEv
	.section	.text._ZNK9TiXmlNode6ToTextEv,"axG",%progbits,_ZNK9TiXmlNode6ToTextEv,comdat
	.align	2
	.weak	_ZNK9TiXmlNode6ToTextEv
	.hidden	_ZNK9TiXmlNode6ToTextEv
	.type	_ZNK9TiXmlNode6ToTextEv, %function
_ZNK9TiXmlNode6ToTextEv:
	@ args = 0, pretend = 0, frame = 0
	@ frame_needed = 0, uses_anonymous_args = 0
	@ link register save eliminated.
	mov	r0, #0
	bx	lr
	.size	_ZNK9TiXmlNode6ToTextEv, .-_ZNK9TiXmlNode6ToTextEv
	.section	.text._ZNK9TiXmlNode13ToDeclarationEv,"axG",%progbits,_ZNK9TiXmlNode13ToDeclarationEv,comdat
	.align	2
	.weak	_ZNK9TiXmlNode13ToDeclarationEv
	.hidden	_ZNK9TiXmlNode13ToDeclarationEv
	.type	_ZNK9TiXmlNode13ToDeclarationEv, %function
_ZNK9TiXmlNode13ToDeclarationEv:
	@ args = 0, pretend = 0, frame = 0
	@ frame_needed = 0, uses_anonymous_args = 0
	@ link register save eliminated.
	mov	r0, #0
	bx	lr
	.size	_ZNK9TiXmlNode13ToDeclarationEv, .-_ZNK9TiXmlNode13ToDeclarationEv
	.section	.text._ZN9TiXmlNode9ToElementEv,"axG",%progbits,_ZN9TiXmlNode9ToElementEv,comdat
	.align	2
	.weak	_ZN9TiXmlNode9ToElementEv
	.hidden	_ZN9TiXmlNode9ToElementEv
	.type	_ZN9TiXmlNode9ToElementEv, %function
_ZN9TiXmlNode9ToElementEv:
	@ args = 0, pretend = 0, frame = 0
	@ frame_needed = 0, uses_anonymous_args = 0
	@ link register save eliminated.
	mov	r0, #0
	bx	lr
	.size	_ZN9TiXmlNode9ToElementEv, .-_ZN9TiXmlNode9ToElementEv
	.section	.text._ZN9TiXmlNode9ToCommentEv,"axG",%progbits,_ZN9TiXmlNode9ToCommentEv,comdat
	.align	2
	.weak	_ZN9TiXmlNode9ToCommentEv
	.hidden	_ZN9TiXmlNode9ToCommentEv
	.type	_ZN9TiXmlNode9ToCommentEv, %function
_ZN9TiXmlNode9ToCommentEv:
	@ args = 0, pretend = 0, frame = 0
	@ frame_needed = 0, uses_anonymous_args = 0
	@ link register save eliminated.
	mov	r0, #0
	bx	lr
	.size	_ZN9TiXmlNode9ToCommentEv, .-_ZN9TiXmlNode9ToCommentEv
	.section	.text._ZN9TiXmlNode9ToUnknownEv,"axG",%progbits,_ZN9TiXmlNode9ToUnknownEv,comdat
	.align	2
	.weak	_ZN9TiXmlNode9ToUnknownEv
	.hidden	_ZN9TiXmlNode9ToUnknownEv
	.type	_ZN9TiXmlNode9ToUnknownEv, %function
_ZN9TiXmlNode9ToUnknownEv:
	@ args = 0, pretend = 0, frame = 0
	@ frame_needed = 0, uses_anonymous_args = 0
	@ link register save eliminated.
	mov	r0, #0
	bx	lr
	.size	_ZN9TiXmlNode9ToUnknownEv, .-_ZN9TiXmlNode9ToUnknownEv
	.section	.text._ZN9TiXmlNode6ToTextEv,"axG",%progbits,_ZN9TiXmlNode6ToTextEv,comdat
	.align	2
	.weak	_ZN9TiXmlNode6ToTextEv
	.hidden	_ZN9TiXmlNode6ToTextEv
	.type	_ZN9TiXmlNode6ToTextEv, %function
_ZN9TiXmlNode6ToTextEv:
	@ args = 0, pretend = 0, frame = 0
	@ frame_needed = 0, uses_anonymous_args = 0
	@ link register save eliminated.
	mov	r0, #0
	bx	lr
	.size	_ZN9TiXmlNode6ToTextEv, .-_ZN9TiXmlNode6ToTextEv
	.section	.text._ZN9TiXmlNode13ToDeclarationEv,"axG",%progbits,_ZN9TiXmlNode13ToDeclarationEv,comdat
	.align	2
	.weak	_ZN9TiXmlNode13ToDeclarationEv
	.hidden	_ZN9TiXmlNode13ToDeclarationEv
	.type	_ZN9TiXmlNode13ToDeclarationEv, %function
_ZN9TiXmlNode13ToDeclarationEv:
	@ args = 0, pretend = 0, frame = 0
	@ frame_needed = 0, uses_anonymous_args = 0
	@ link register save eliminated.
	mov	r0, #0
	bx	lr
	.size	_ZN9TiXmlNode13ToDeclarationEv, .-_ZN9TiXmlNode13ToDeclarationEv
	.section	.text._ZNK13TiXmlDocument10ToDocumentEv,"axG",%progbits,_ZNK13TiXmlDocument10ToDocumentEv,comdat
	.align	2
	.weak	_ZNK13TiXmlDocument10ToDocumentEv
	.hidden	_ZNK13TiXmlDocument10ToDocumentEv
	.type	_ZNK13TiXmlDocument10ToDocumentEv, %function
_ZNK13TiXmlDocument10ToDocumentEv:
	@ args = 0, pretend = 0, frame = 0
	@ frame_needed = 0, uses_anonymous_args = 0
	@ link register save eliminated.
	bx	lr
	.size	_ZNK13TiXmlDocument10ToDocumentEv, .-_ZNK13TiXmlDocument10ToDocumentEv
	.section	.text._ZN13TiXmlDocument10ToDocumentEv,"axG",%progbits,_ZN13TiXmlDocument10ToDocumentEv,comdat
	.align	2
	.weak	_ZN13TiXmlDocument10ToDocumentEv
	.hidden	_ZN13TiXmlDocument10ToDocumentEv
	.type	_ZN13TiXmlDocument10ToDocumentEv, %function
_ZN13TiXmlDocument10ToDocumentEv:
	@ args = 0, pretend = 0, frame = 0
	@ frame_needed = 0, uses_anonymous_args = 0
	@ link register save eliminated.
	bx	lr
	.size	_ZN13TiXmlDocument10ToDocumentEv, .-_ZN13TiXmlDocument10ToDocumentEv
	.section	.text._ZN9TiXmlBase18ConvertUTF32ToUTF8EmPcPi,"ax",%progbits
	.align	2
	.global	_ZN9TiXmlBase18ConvertUTF32ToUTF8EmPcPi
	.hidden	_ZN9TiXmlBase18ConvertUTF32ToUTF8EmPcPi
	.type	_ZN9TiXmlBase18ConvertUTF32ToUTF8EmPcPi, %function
_ZN9TiXmlBase18ConvertUTF32ToUTF8EmPcPi:
	@ args = 0, pretend = 0, frame = 32
	@ frame_needed = 0, uses_anonymous_args = 0
	@ link register save eliminated.
	stmfd	sp!, {r4, r5, r6, r7}
	ldr	r7, .L41
	mov	ip, r0
	mov	r6, r1
	mov	r5, r2
	ldmia	r7!, {r0, r1, r2, r3}
	sub	sp, sp, #32
	add	r4, sp, #4
	stmia	r4!, {r0, r1, r2, r3}
	ldmia	r7, {r0, r1, r2}
	cmp	ip, #127
	mov	r3, r4
	movls	r3, #1
	stmia	r4, {r0, r1, r2}
	addls	r6, r6, r3
	strls	r3, [r5, #0]
	bls	.L31
	cmp	ip, #2048
	movcc	r3, #2
	strcc	r3, [r5, #0]
	addcc	r6, r6, r3
	bcs	.L40
.L33:
	and	r3, ip, #63
	mvn	r1, r3, asl #25
	mvn	r2, r1, lsr #25
	strb	r2, [r6, #-1]
	ldr	r3, [r5, #0]
	mov	ip, ip, lsr #6
	sub	r6, r6, #1
.L31:
	add	r2, sp, #32
	add	r1, r2, r3, asl #2
	ldr	r0, [r1, #-28]
	orr	ip, r0, ip
	strb	ip, [r6, #-1]
.L38:
	add	sp, sp, #32
	ldmfd	sp!, {r4, r5, r6, r7}
	bx	lr
.L40:
	cmp	ip, #65536
	movcc	r3, #3
	strcc	r3, [r5, #0]
	addcc	r2, r6, r3
	bcc	.L35
	cmp	ip, #2097152
	movcs	r3, #0
	strcs	r3, [r5, #0]
	bcs	.L38
	and	r1, ip, #63
	mov	r2, #4
	mvn	r0, r1, asl #25
	str	r2, [r5, #0]
	mvn	r3, r0, lsr #25
	mov	ip, ip, lsr #6
	add	r2, r6, #3
	strb	r3, [r6, #3]
.L35:
	and	r0, ip, #63
	mvn	r6, r0, asl #25
	mvn	r3, r6, lsr #25
	mov	ip, ip, lsr #6
	sub	r6, r2, #1
	strb	r3, [r2, #-1]
	b	.L33
.L42:
	.align	2
.L41:
	.word	.LANCHOR0
	.size	_ZN9TiXmlBase18ConvertUTF32ToUTF8EmPcPi, .-_ZN9TiXmlBase18ConvertUTF32ToUTF8EmPcPi
	.global	__aeabi_idiv
	.section	.text._ZN16TiXmlParsingData5StampEPKc13TiXmlEncoding,"ax",%progbits
	.align	2
	.global	_ZN16TiXmlParsingData5StampEPKc13TiXmlEncoding
	.hidden	_ZN16TiXmlParsingData5StampEPKc13TiXmlEncoding
	.type	_ZN16TiXmlParsingData5StampEPKc13TiXmlEncoding, %function
_ZN16TiXmlParsingData5StampEPKc13TiXmlEncoding:
	@ args = 0, pretend = 0, frame = 0
	@ frame_needed = 0, uses_anonymous_args = 0
	stmfd	sp!, {r4, r5, r6, r7, r8, r9, sl, lr}
	ldr	r6, [r0, #12]
	mov	r5, r0
	cmp	r6, #0
	mov	r4, r1
	mov	sl, r2
	ldmlefd	sp!, {r4, r5, r6, r7, r8, r9, sl, pc}
	ldr	r7, [r0, #8]
	ldr	r8, [r0, #0]
	cmp	r7, r1
	ldr	r0, [r0, #4]
	bcs	.L45
	ldr	r9, .L71
.L63:
	ldrb	r3, [r7, #0]	@ zero_extendqisi2
	cmp	r3, #10
	beq	.L48
	bhi	.L51
	cmp	r3, #0
	ldmeqfd	sp!, {r4, r5, r6, r7, r8, r9, sl, pc}
	cmp	r3, #9
	beq	.L68
.L46:
	cmp	sl, #1
	beq	.L69
.L58:
	add	r7, r7, #1
	add	r0, r0, #1
.L53:
	cmp	r4, r7
	bhi	.L63
.L45:
	str	r7, [r5, #8]
	str	r8, [r5, #0]
	str	r0, [r5, #4]
	ldmfd	sp!, {r4, r5, r6, r7, r8, r9, sl, pc}
.L68:
	mov	r1, r6
	bl	__aeabi_idiv
	add	r7, r7, #1
	mla	r0, r6, r0, r6
	b	.L53
.L51:
	cmp	r3, #13
	beq	.L49
	cmp	r3, #239
	bne	.L46
	cmp	sl, #1
	bne	.L58
	ldrb	r3, [r7, #1]	@ zero_extendqisi2
	cmp	r3, #0
	beq	.L53
	ldrb	r2, [r7, #2]	@ zero_extendqisi2
	cmp	r2, #0
	beq	.L53
	cmp	r3, #187
	beq	.L57
	cmp	r3, #191
	beq	.L70
.L56:
	add	r7, r7, #3
	add	r0, r0, #1
	b	.L53
.L49:
	ldrb	r3, [r7, #1]!	@ zero_extendqisi2
	add	r8, r8, #1
	cmp	r3, #10
	beq	.L65
.L52:
	mov	r0, #0
	b	.L53
.L48:
	ldrb	r0, [r7, #1]!	@ zero_extendqisi2
	add	r8, r8, #1
	cmp	r0, #13
	bne	.L52
.L65:
	add	r7, r7, #1
	mov	r0, #0
	b	.L53
.L69:
	add	r2, r9, r3, asl #2
	ldr	r1, [r2, #28]
	add	r0, r0, #1
	cmp	r1, #0
	moveq	r1, #1
	add	r7, r7, r1
	b	.L53
.L70:
	cmp	r2, #190
	beq	.L66
.L57:
	cmp	r2, #191
	bne	.L56
.L66:
	add	r7, r7, #3
	b	.L53
.L72:
	.align	2
.L71:
	.word	.LANCHOR0
	.size	_ZN16TiXmlParsingData5StampEPKc13TiXmlEncoding, .-_ZN16TiXmlParsingData5StampEPKc13TiXmlEncoding
	.section	.text._ZNK14TiXmlAttribute5PrintEP8__XXFILEi,"axG",%progbits,_ZNK14TiXmlAttribute5PrintEP8__XXFILEi,comdat
	.align	2
	.weak	_ZNK14TiXmlAttribute5PrintEP8__XXFILEi
	.hidden	_ZNK14TiXmlAttribute5PrintEP8__XXFILEi
	.type	_ZNK14TiXmlAttribute5PrintEP8__XXFILEi, %function
_ZNK14TiXmlAttribute5PrintEP8__XXFILEi:
	@ args = 0, pretend = 0, frame = 0
	@ frame_needed = 0, uses_anonymous_args = 0
	@ link register save eliminated.
	mov	r3, #0
	b	_ZNK14TiXmlAttribute5PrintEP8__XXFILEiP11TiXmlString
	.size	_ZNK14TiXmlAttribute5PrintEP8__XXFILEi, .-_ZNK14TiXmlAttribute5PrintEP8__XXFILEi
	.section	.text._ZN9TiXmlBaseD0Ev,"axG",%progbits,_ZN9TiXmlBaseD0Ev,comdat
	.align	2
	.weak	_ZN9TiXmlBaseD0Ev
	.hidden	_ZN9TiXmlBaseD0Ev
	.type	_ZN9TiXmlBaseD0Ev, %function
_ZN9TiXmlBaseD0Ev:
	@ args = 0, pretend = 0, frame = 0
	@ frame_needed = 0, uses_anonymous_args = 0
	ldr	r3, .L77
	stmfd	sp!, {r4, lr}
	mov	r4, r0
	str	r3, [r0, #0]
	bl	_ZdlPv
	mov	r0, r4
	ldmfd	sp!, {r4, pc}
.L78:
	.align	2
.L77:
	.word	_ZTV9TiXmlBase+8
	.size	_ZN9TiXmlBaseD0Ev, .-_ZN9TiXmlBaseD0Ev
	.section	.text._ZN9TiXmlBase10IsAlphaNumEh13TiXmlEncoding,"ax",%progbits
	.align	2
	.global	_ZN9TiXmlBase10IsAlphaNumEh13TiXmlEncoding
	.hidden	_ZN9TiXmlBase10IsAlphaNumEh13TiXmlEncoding
	.type	_ZN9TiXmlBase10IsAlphaNumEh13TiXmlEncoding, %function
_ZN9TiXmlBase10IsAlphaNumEh13TiXmlEncoding:
	@ args = 0, pretend = 0, frame = 0
	@ frame_needed = 0, uses_anonymous_args = 0
	@ link register save eliminated.
	cmp	r0, #126
	bhi	.L83
	b	isalnum
.L83:
	mov	r0, #1
	bx	lr
	.size	_ZN9TiXmlBase10IsAlphaNumEh13TiXmlEncoding, .-_ZN9TiXmlBase10IsAlphaNumEh13TiXmlEncoding
	.section	.text._ZN9TiXmlBase7IsAlphaEh13TiXmlEncoding,"ax",%progbits
	.align	2
	.global	_ZN9TiXmlBase7IsAlphaEh13TiXmlEncoding
	.hidden	_ZN9TiXmlBase7IsAlphaEh13TiXmlEncoding
	.type	_ZN9TiXmlBase7IsAlphaEh13TiXmlEncoding, %function
_ZN9TiXmlBase7IsAlphaEh13TiXmlEncoding:
	@ args = 0, pretend = 0, frame = 0
	@ frame_needed = 0, uses_anonymous_args = 0
	@ link register save eliminated.
	cmp	r0, #126
	bhi	.L88
	b	isalpha
.L88:
	mov	r0, #1
	bx	lr
	.size	_ZN9TiXmlBase7IsAlphaEh13TiXmlEncoding, .-_ZN9TiXmlBase7IsAlphaEh13TiXmlEncoding
	.section	.text._ZNK9TiXmlText5BlankEv,"ax",%progbits
	.align	2
	.global	_ZNK9TiXmlText5BlankEv
	.hidden	_ZNK9TiXmlText5BlankEv
	.type	_ZNK9TiXmlText5BlankEv, %function
_ZNK9TiXmlText5BlankEv:
	@ args = 0, pretend = 0, frame = 0
	@ frame_needed = 0, uses_anonymous_args = 0
	stmfd	sp!, {r4, r5, r6, r7, r8, lr}
	ldr	r4, [r0, #32]
	ldr	r8, [r4, #0]
	cmp	r8, #0
	beq	.L90
	ldrb	r5, [r4, #8]	@ zero_extendqisi2
	sub	r7, r8, #1
	mov	r0, r5
	bl	isspace
	cmp	r5, #10
	movne	r3, #0
	moveq	r3, #1
	and	r7, r7, #3
	cmp	r0, #0
	orrne	r3, r3, #1
	cmp	r3, #0
	bne	.L96
	cmp	r5, #13
	beq	.L96
.L118:
	mov	r0, #0
	ldmfd	sp!, {r4, r5, r6, r7, r8, pc}
.L96:
	mov	r6, #1
	cmp	r8, r6
	add	r4, r4, r6
	bls	.L90
	cmp	r7, #0
	beq	.L93
	cmp	r7, r6
	beq	.L114
	cmp	r7, #2
	beq	.L115
	ldrb	r5, [r4, #8]	@ zero_extendqisi2
	mov	r0, r5
	bl	isspace
	cmp	r5, #10
	movne	ip, #0
	moveq	ip, #1
	cmp	r0, #0
	orrne	ip, ip, #1
	cmp	ip, #0
	bne	.L98
	cmp	r5, #13
	bne	.L118
.L98:
	add	r6, r6, #1
	add	r4, r4, #1
.L115:
	ldrb	r5, [r4, #8]	@ zero_extendqisi2
	mov	r0, r5
	bl	isspace
	cmp	r5, #10
	movne	r3, #0
	moveq	r3, #1
	cmp	r0, #0
	orrne	r3, r3, #1
	cmp	r3, #0
	bne	.L101
	cmp	r5, #13
	bne	.L118
.L101:
	add	r6, r6, #1
	add	r4, r4, #1
.L114:
	ldrb	r5, [r4, #8]	@ zero_extendqisi2
	mov	r0, r5
	bl	isspace
	cmp	r5, #10
	movne	r1, #0
	moveq	r1, #1
	cmp	r0, #0
	orrne	r1, r1, #1
	cmp	r1, #0
	bne	.L104
	cmp	r5, #13
	bne	.L118
.L104:
	add	r6, r6, #1
	cmp	r8, r6
	add	r4, r4, #1
	bls	.L90
.L93:
	add	r5, r4, #1
	ldrb	r4, [r4, #8]	@ zero_extendqisi2
	add	r6, r6, #1
	mov	r0, r4
	bl	isspace
	cmp	r4, #10
	movne	r1, #0
	moveq	r1, #1
	cmp	r0, #0
	orrne	r1, r1, #1
	cmp	r1, #0
	bne	.L91
	cmp	r4, #13
	bne	.L118
.L91:
	ldrb	r4, [r5, #8]	@ zero_extendqisi2
	mov	r0, r4
	bl	isspace
	cmp	r4, #10
	movne	r2, #0
	moveq	r2, #1
	cmp	r0, #0
	orrne	r2, r2, #1
	cmp	r2, #0
	bne	.L107
	cmp	r4, #13
	bne	.L118
.L107:
	ldrb	r4, [r5, #9]	@ zero_extendqisi2
	mov	r0, r4
	bl	isspace
	cmp	r4, #10
	movne	r2, #0
	moveq	r2, #1
	cmp	r0, #0
	orrne	r2, r2, #1
	cmp	r2, #0
	bne	.L109
	cmp	r4, #13
	bne	.L118
.L109:
	ldrb	r7, [r5, #10]	@ zero_extendqisi2
	add	r6, r6, #3
	mov	r0, r7
	bl	isspace
	cmp	r7, #10
	movne	ip, #0
	moveq	ip, #1
	add	r4, r5, #3
	cmp	r0, #0
	orrne	ip, ip, #1
	cmp	ip, #0
	bne	.L111
	cmp	r7, #13
	bne	.L118
.L111:
	cmp	r8, r6
	bhi	.L93
.L90:
	mov	r0, #1
	ldmfd	sp!, {r4, r5, r6, r7, r8, pc}
	.size	_ZNK9TiXmlText5BlankEv, .-_ZNK9TiXmlText5BlankEv
	.section	.text._ZN9TiXmlBase14SkipWhiteSpaceEPKc13TiXmlEncoding,"ax",%progbits
	.align	2
	.global	_ZN9TiXmlBase14SkipWhiteSpaceEPKc13TiXmlEncoding
	.hidden	_ZN9TiXmlBase14SkipWhiteSpaceEPKc13TiXmlEncoding
	.type	_ZN9TiXmlBase14SkipWhiteSpaceEPKc13TiXmlEncoding, %function
_ZN9TiXmlBase14SkipWhiteSpaceEPKc13TiXmlEncoding:
	@ args = 0, pretend = 0, frame = 0
	@ frame_needed = 0, uses_anonymous_args = 0
	stmfd	sp!, {r3, r4, r5, lr}
	subs	r4, r0, #0
	bne	.L138
.L120:
	mov	r0, r4
	ldmfd	sp!, {r3, r4, r5, pc}
.L138:
	ldrb	r5, [r4, #0]	@ zero_extendqisi2
	cmp	r5, #0
	moveq	r4, r5
	beq	.L120
	cmp	r1, #1
	beq	.L132
.L133:
	mov	r0, r5
	bl	isspace
	subs	r0, r0, #0
	movne	r0, #1
	cmp	r5, #10
	orreq	r0, r0, #1
	cmp	r0, #0
	bne	.L129
	cmp	r5, #13
	bne	.L120
.L129:
	ldrb	r5, [r4, #1]!	@ zero_extendqisi2
	cmp	r5, #0
	beq	.L120
	b	.L133
.L127:
	add	r4, r4, #1
.L125:
	ldrb	r5, [r4, #0]	@ zero_extendqisi2
	cmp	r5, #0
	beq	.L120
.L132:
	cmp	r5, #239
	beq	.L139
.L123:
	mov	r0, r5
	bl	isspace
	cmp	r5, #10
	movne	r1, #0
	moveq	r1, #1
	cmp	r0, #0
	orrne	r1, r1, #1
	cmp	r1, #0
	bne	.L127
	cmp	r5, #13
	beq	.L127
	mov	r0, r4
	ldmfd	sp!, {r3, r4, r5, pc}
.L139:
	ldrb	r3, [r4, #1]	@ zero_extendqisi2
	cmp	r3, #187
	beq	.L140
	cmp	r3, #191
	bne	.L123
	ldrb	r3, [r4, #2]	@ zero_extendqisi2
	cmp	r3, #190
	beq	.L130
	cmp	r3, #191
	bne	.L123
.L130:
	add	r4, r4, #3
	b	.L125
.L140:
	ldrb	r3, [r4, #2]	@ zero_extendqisi2
	cmp	r3, #191
	bne	.L123
	add	r4, r4, #3
	b	.L125
	.size	_ZN9TiXmlBase14SkipWhiteSpaceEPKc13TiXmlEncoding, .-_ZN9TiXmlBase14SkipWhiteSpaceEPKc13TiXmlEncoding
	.section	.text._ZN14TiXmlAttributeD0Ev,"axG",%progbits,_ZN14TiXmlAttributeD0Ev,comdat
	.align	2
	.weak	_ZN14TiXmlAttributeD0Ev
	.hidden	_ZN14TiXmlAttributeD0Ev
	.type	_ZN14TiXmlAttributeD0Ev, %function
_ZN14TiXmlAttributeD0Ev:
	@ args = 0, pretend = 0, frame = 0
	@ frame_needed = 0, uses_anonymous_args = 0
	stmfd	sp!, {r3, r4, r5, lr}
	mov	r4, r0
	ldr	r5, .L145
	ldr	r0, [r0, #24]
	ldr	r3, .L145+4
	cmp	r0, r5
	str	r3, [r4, #0]
	beq	.L142
	cmp	r0, #0
	beq	.L142
	bl	_ZdaPv
.L142:
	ldr	r0, [r4, #20]
	cmp	r0, r5
	beq	.L143
	cmp	r0, #0
	beq	.L143
	bl	_ZdaPv
.L143:
	ldr	r0, .L145+8
	str	r0, [r4, #0]
	mov	r0, r4
	bl	_ZdlPv
	mov	r0, r4
	ldmfd	sp!, {r3, r4, r5, pc}
.L146:
	.align	2
.L145:
	.word	_ZN11TiXmlString8nullrep_E
	.word	.LANCHOR0+1064
	.word	_ZTV9TiXmlBase+8
	.size	_ZN14TiXmlAttributeD0Ev, .-_ZN14TiXmlAttributeD0Ev
	.section	.text._ZN14TiXmlAttributeD1Ev,"axG",%progbits,_ZN14TiXmlAttributeD1Ev,comdat
	.align	2
	.weak	_ZN14TiXmlAttributeD1Ev
	.hidden	_ZN14TiXmlAttributeD1Ev
	.type	_ZN14TiXmlAttributeD1Ev, %function
_ZN14TiXmlAttributeD1Ev:
	@ args = 0, pretend = 0, frame = 0
	@ frame_needed = 0, uses_anonymous_args = 0
	stmfd	sp!, {r3, r4, r5, lr}
	mov	r4, r0
	ldr	r5, .L151
	ldr	r0, [r0, #24]
	ldr	r3, .L151+4
	cmp	r0, r5
	str	r3, [r4, #0]
	beq	.L148
	cmp	r0, #0
	beq	.L148
	bl	_ZdaPv
.L148:
	ldr	r0, [r4, #20]
	cmp	r0, r5
	beq	.L149
	cmp	r0, #0
	beq	.L149
	bl	_ZdaPv
.L149:
	ldr	r0, .L151+8
	str	r0, [r4, #0]
	mov	r0, r4
	ldmfd	sp!, {r3, r4, r5, pc}
.L152:
	.align	2
.L151:
	.word	_ZN11TiXmlString8nullrep_E
	.word	.LANCHOR0+1064
	.word	_ZTV9TiXmlBase+8
	.size	_ZN14TiXmlAttributeD1Ev, .-_ZN14TiXmlAttributeD1Ev
	.section	.text._ZN13TiXmlDocumentD0Ev,"axG",%progbits,_ZN13TiXmlDocumentD0Ev,comdat
	.align	2
	.weak	_ZN13TiXmlDocumentD0Ev
	.hidden	_ZN13TiXmlDocumentD0Ev
	.type	_ZN13TiXmlDocumentD0Ev, %function
_ZN13TiXmlDocumentD0Ev:
	@ args = 0, pretend = 0, frame = 0
	@ frame_needed = 0, uses_anonymous_args = 0
	stmfd	sp!, {r4, lr}
	ldr	r1, .L156
	mov	r4, r0
	ldr	r0, [r0, #52]
	ldr	r3, .L156+4
	cmp	r0, r1
	str	r3, [r4, #0]
	beq	.L154
	cmp	r0, #0
	beq	.L154
	bl	_ZdaPv
.L154:
	mov	r0, r4
	bl	_ZN9TiXmlNodeD2Ev
	mov	r0, r4
	bl	_ZdlPv
	mov	r0, r4
	ldmfd	sp!, {r4, pc}
.L157:
	.align	2
.L156:
	.word	_ZN11TiXmlString8nullrep_E
	.word	.LANCHOR0+1088
	.size	_ZN13TiXmlDocumentD0Ev, .-_ZN13TiXmlDocumentD0Ev
	.section	.text._ZN13TiXmlDocumentD1Ev,"axG",%progbits,_ZN13TiXmlDocumentD1Ev,comdat
	.align	2
	.weak	_ZN13TiXmlDocumentD1Ev
	.hidden	_ZN13TiXmlDocumentD1Ev
	.type	_ZN13TiXmlDocumentD1Ev, %function
_ZN13TiXmlDocumentD1Ev:
	@ args = 0, pretend = 0, frame = 0
	@ frame_needed = 0, uses_anonymous_args = 0
	stmfd	sp!, {r4, lr}
	ldr	r1, .L161
	mov	r4, r0
	ldr	r0, [r0, #52]
	ldr	r3, .L161+4
	cmp	r0, r1
	str	r3, [r4, #0]
	beq	.L159
	cmp	r0, #0
	beq	.L159
	bl	_ZdaPv
.L159:
	mov	r0, r4
	bl	_ZN9TiXmlNodeD2Ev
	mov	r0, r4
	ldmfd	sp!, {r4, pc}
.L162:
	.align	2
.L161:
	.word	_ZN11TiXmlString8nullrep_E
	.word	.LANCHOR0+1088
	.size	_ZN13TiXmlDocumentD1Ev, .-_ZN13TiXmlDocumentD1Ev
	.section	.text._ZN9TiXmlBase9GetEntityEPKcPcPi13TiXmlEncoding,"ax",%progbits
	.align	2
	.global	_ZN9TiXmlBase9GetEntityEPKcPcPi13TiXmlEncoding
	.hidden	_ZN9TiXmlBase9GetEntityEPKcPcPi13TiXmlEncoding
	.type	_ZN9TiXmlBase9GetEntityEPKcPcPi13TiXmlEncoding, %function
_ZN9TiXmlBase9GetEntityEPKcPcPi13TiXmlEncoding:
	@ args = 0, pretend = 0, frame = 8
	@ frame_needed = 0, uses_anonymous_args = 0
	stmfd	sp!, {r4, r5, r6, r7, r8, r9, sl, fp, lr}
	mov	r7, #0
	mov	r5, r2
	str	r7, [r2, #0]
	ldrb	r2, [r0, #1]	@ zero_extendqisi2
	sub	sp, sp, #12
	cmp	r2, #35
	mov	r4, r0
	mov	r6, r1
	add	r8, r0, #1
	beq	.L189
.L165:
	ldr	r7, .L194
	mov	r1, r4
	ldmia	r7, {r0, r2}	@ phole ldm
	bl	strncmp
	cmp	r0, #0
	moveq	r3, r0
	beq	.L168
	ldr	r0, [r7, #12]
	mov	r1, r4
	ldr	r2, [r7, #16]
	bl	strncmp
	cmp	r0, #0
	moveq	r3, #1
	beq	.L168
	ldr	r0, [r7, #24]
	mov	r1, r4
	ldr	r2, [r7, #28]
	bl	strncmp
	cmp	r0, #0
	moveq	r3, #2
	beq	.L168
	ldr	r0, [r7, #36]
	mov	r1, r4
	ldr	r2, [r7, #40]
	bl	strncmp
	cmp	r0, #0
	moveq	r3, #3
	beq	.L168
	ldr	r0, [r7, #48]
	mov	r1, r4
	ldr	r2, [r7, #52]
	bl	strncmp
	cmp	r0, #0
	beq	.L190
	ldrb	lr, [r4, #0]	@ zero_extendqisi2
	strb	lr, [r6, #0]
.L186:
	mov	r0, r8
	add	sp, sp, #12
	ldmfd	sp!, {r4, r5, r6, r7, r8, r9, sl, fp, pc}
.L190:
	mov	r3, #4
.L168:
	add	r8, r3, r3, asl #1
	add	r7, r7, r8, asl #2
	ldrb	r1, [r7, #8]	@ zero_extendqisi2
	mov	r2, #1
	strb	r1, [r6, #0]
	str	r2, [r5, #0]
	ldr	r3, [r7, #4]
	add	r8, r4, r3
	b	.L186
.L189:
	ldrb	r2, [r0, #2]	@ zero_extendqisi2
	add	r0, r0, #2
	cmp	r2, r7
	beq	.L165
	cmp	r2, #120
	beq	.L191
	mov	r1, #59
	str	r3, [sp, #4]
	bl	strchr
	ldr	r3, [sp, #4]
	cmp	r0, #0
	bne	.L192
.L175:
	mov	r8, #0
	b	.L186
.L192:
	ldrb	ip, [r0, #0]	@ zero_extendqisi2
	cmp	ip, #0
	beq	.L175
	ldrb	r1, [r0, #-1]	@ zero_extendqisi2
	rsb	r8, r4, r0
	cmp	r1, #35
	beq	.L176
	sub	r1, r1, #48
	and	r2, r1, #255
	cmp	r2, #9
	movls	ip, r0
	movls	r2, #1
	movls	r0, r7
	bls	.L182
	b	.L175
.L183:
	cmp	r7, #9
	sub	ip, ip, #1
	bhi	.L175
.L182:
	ldrb	r7, [ip, #-2]	@ zero_extendqisi2
	mla	r0, r2, r1, r0
	add	sl, r2, r2, asl #2
	cmp	r7, #35
	sub	r1, r7, #48
	and	r7, r1, #255
	mov	r2, sl, asl #1
	bne	.L183
.L180:
	cmp	r3, #1
	movne	r3, #1
	strneb	r0, [r6, #0]
	strne	r3, [r5, #0]
	beq	.L193
.L185:
	add	r0, r8, #1
	add	r8, r4, r0
	b	.L186
.L191:
	ldrb	r1, [r4, #3]	@ zero_extendqisi2
	add	r0, r4, #3
	cmp	r1, #0
	beq	.L175
	mov	r1, #59
	str	r3, [sp, #4]
	bl	strchr
	ldr	r3, [sp, #4]
	cmp	r0, #0
	beq	.L175
	ldrb	r8, [r0, #0]	@ zero_extendqisi2
	cmp	r8, #0
	beq	.L175
	ldrb	r2, [r0, #-1]	@ zero_extendqisi2
	rsb	r8, r4, r0
	cmp	r2, #120
	beq	.L176
	mov	ip, r0
	mov	r1, #1
	mov	r0, r7
	b	.L181
.L178:
	ldrb	r2, [ip, #-2]	@ zero_extendqisi2
	mov	r1, r1, asl #4
	cmp	r2, #120
	sub	ip, ip, #1
	beq	.L180
.L181:
	sub	r7, r2, #48
	and	r9, r7, #255
	cmp	r9, #9
	sub	fp, r2, #87
	sub	sl, r2, #97
	mlals	r0, r1, r7, r0
	bls	.L178
	cmp	sl, #5
	mlals	r0, r1, fp, r0
	bls	.L178
	sub	lr, r2, #65
	sub	r7, r2, #55
	cmp	lr, #5
	mla	r0, r1, r7, r0
	bls	.L178
	b	.L175
.L176:
	mov	r0, #0
	b	.L180
.L193:
	mov	r1, r6
	mov	r2, r5
	bl	_ZN9TiXmlBase18ConvertUTF32ToUTF8EmPcPi
	b	.L185
.L195:
	.align	2
.L194:
	.word	.LANCHOR1
	.size	_ZN9TiXmlBase9GetEntityEPKcPcPi13TiXmlEncoding, .-_ZN9TiXmlBase9GetEntityEPKcPcPi13TiXmlEncoding
	.section	.text._ZN9TiXmlBase11StringEqualEPKcS1_b13TiXmlEncoding,"ax",%progbits
	.align	2
	.global	_ZN9TiXmlBase11StringEqualEPKcS1_b13TiXmlEncoding
	.hidden	_ZN9TiXmlBase11StringEqualEPKcS1_b13TiXmlEncoding
	.type	_ZN9TiXmlBase11StringEqualEPKcS1_b13TiXmlEncoding, %function
_ZN9TiXmlBase11StringEqualEPKcS1_b13TiXmlEncoding:
	@ args = 0, pretend = 0, frame = 0
	@ frame_needed = 0, uses_anonymous_args = 0
	subs	ip, r0, #0
	stmfd	sp!, {r3, r4, r5, r6, r7, lr}
	mov	r4, r1
	beq	.L197
	ldrb	r0, [ip, #0]	@ zero_extendqisi2
	cmp	r0, #0
	beq	.L197
	cmp	r2, #0
	beq	.L217
	ldrb	r5, [r1, #0]	@ zero_extendqisi2
	cmp	r5, #0
	bne	.L218
.L200:
	mov	r0, #1
	ldmfd	sp!, {r3, r4, r5, r6, r7, pc}
.L217:
	ldrb	r3, [r1, #0]	@ zero_extendqisi2
	cmp	r3, #0
	beq	.L200
	cmp	r0, r3
	bne	.L197
.L209:
	ldrb	r2, [ip, #1]	@ zero_extendqisi2
	add	r4, r4, #1
	cmp	r2, #0
	bne	.L210
	ldrb	r0, [r4, #0]	@ zero_extendqisi2
	rsbs	r0, r0, #1
	movcc	r0, #0
	ldmfd	sp!, {r3, r4, r5, r6, r7, pc}
.L218:
	cmp	r3, #1
	mov	r6, ip
	beq	.L202
.L204:
	bl	tolower
	mov	r7, r0
	mov	r0, r5
	bl	tolower
	cmp	r7, r0
	beq	.L219
.L203:
	rsbs	r0, r5, #1
	movcc	r0, #0
	ldmfd	sp!, {r3, r4, r5, r6, r7, pc}
.L205:
	cmp	r5, #127
	mov	r0, r5
	mov	r3, r5
	bgt	.L206
	bl	tolower
	mov	r3, r0
.L206:
	cmp	r7, r3
	bne	.L203
	ldrb	r0, [r6, #1]	@ zero_extendqisi2
	add	r4, r4, #1
	cmp	r0, #0
	beq	.L215
	ldrb	r5, [r4, #0]	@ zero_extendqisi2
	add	r6, r6, #1
	cmp	r5, #0
	beq	.L200
.L202:
	mov	r7, r0
	cmp	r7, #127
	bgt	.L205
	bl	tolower
	mov	r7, r0
	b	.L205
.L210:
	ldrb	r3, [r4, #0]	@ zero_extendqisi2
	add	ip, ip, #1
	cmp	r3, #0
	beq	.L200
	cmp	r2, r3
	beq	.L209
.L197:
	mov	r0, #0
	ldmfd	sp!, {r3, r4, r5, r6, r7, pc}
.L219:
	ldrb	r0, [r6, #1]	@ zero_extendqisi2
	add	r4, r4, #1
	cmp	r0, #0
	beq	.L215
	ldrb	r5, [r4, #0]	@ zero_extendqisi2
	add	r6, r6, #1
	cmp	r5, #0
	bne	.L204
	mov	r0, #1
	ldmfd	sp!, {r3, r4, r5, r6, r7, pc}
.L215:
	ldrb	r5, [r4, #0]	@ zero_extendqisi2
	b	.L203
	.size	_ZN9TiXmlBase11StringEqualEPKcS1_b13TiXmlEncoding, .-_ZN9TiXmlBase11StringEqualEPKcS1_b13TiXmlEncoding
	.section	.text._ZN9TiXmlBase8ReadTextEPKcP11TiXmlStringbS1_b13TiXmlEncoding,"ax",%progbits
	.align	2
	.global	_ZN9TiXmlBase8ReadTextEPKcP11TiXmlStringbS1_b13TiXmlEncoding
	.hidden	_ZN9TiXmlBase8ReadTextEPKcP11TiXmlStringbS1_b13TiXmlEncoding
	.type	_ZN9TiXmlBase8ReadTextEPKcP11TiXmlStringbS1_b13TiXmlEncoding, %function
_ZN9TiXmlBase8ReadTextEPKcP11TiXmlStringbS1_b13TiXmlEncoding:
	@ args = 8, pretend = 0, frame = 16
	@ frame_needed = 0, uses_anonymous_args = 0
	stmfd	sp!, {r4, r5, r6, r7, r8, r9, sl, fp, lr}
	mov	r6, r1
	sub	sp, sp, #20
	mov	r5, r2
	mov	r4, r0
	ldr	r1, .L280
	mov	r0, r6
	mov	r2, #0
	mov	r9, r3
	ldr	r8, [sp, #60]
	ldrb	fp, [sp, #56]	@ zero_extendqisi2
	bl	_ZN11TiXmlString6assignEPKcj
	cmp	r5, #0
	beq	.L224
	ldr	r1, .L280+4
	ldrb	r0, [r1, #0]	@ zero_extendqisi2
	cmp	r0, #0
	bne	.L273
.L224:
	cmp	r4, #0
	beq	.L252
	ldrb	r3, [r4, #0]	@ zero_extendqisi2
	cmp	r3, #0
	bne	.L274
.L222:
	cmp	r4, #0
	beq	.L252
	mov	r0, r9
	bl	strlen
	add	r4, r4, r0
.L252:
	mov	r0, r4
	add	sp, sp, #20
	ldmfd	sp!, {r4, r5, r6, r7, r8, r9, sl, fp, pc}
.L274:
	ldr	sl, .L280+8
	add	r5, sp, #4
	mov	r7, #1
	b	.L260
.L228:
	ldr	r2, [sp, #12]
	add	r4, r4, #1
	strb	r3, [sp, #4]
.L229:
	mov	r0, r6
	mov	r1, r5
	bl	_ZN11TiXmlString6appendEPKcj
	cmp	r4, #0
	beq	.L252
	ldrb	ip, [r4, #0]	@ zero_extendqisi2
	cmp	ip, #0
	beq	.L222
.L260:
	mov	r0, r4
	mov	r1, r9
	mov	r2, fp
	mov	r3, r8
	bl	_ZN9TiXmlBase11StringEqualEPKcS1_b13TiXmlEncoding
	cmp	r0, #0
	bne	.L222
	cmp	r8, #1
	strb	r0, [sp, #4]
	strb	r0, [sp, #5]
	strb	r0, [sp, #6]
	strb	r0, [sp, #7]
	strne	r7, [sp, #12]
	beq	.L275
.L226:
	ldrb	r3, [r4, #0]	@ zero_extendqisi2
	cmp	r3, #38
	bne	.L228
	mov	r0, r4
	add	r2, sp, #12
	mov	r1, r5
	mov	r3, r8
	bl	_ZN9TiXmlBase9GetEntityEPKcPcPi13TiXmlEncoding
	ldr	r2, [sp, #12]
	mov	r4, r0
	b	.L229
.L275:
	ldrb	r2, [r4, #0]	@ zero_extendqisi2
	add	r3, sl, r2, asl #2
	ldr	r2, [r3, #28]
	str	r2, [sp, #12]
	cmp	r2, #1
	beq	.L226
	cmp	r2, #0
	beq	.L230
	ldrb	r1, [r4, #0]	@ zero_extendqisi2
	cmp	r1, #0
	beq	.L231
	cmp	r2, #0
	movgt	r3, r0
	ble	.L231
.L232:
	add	r3, r3, #1
	strb	r1, [r5, r0]
	ldrb	r1, [r4, r3]	@ zero_extendqisi2
	mov	r0, r3
	cmp	r1, #0
	bne	.L233
	ldr	r2, [sp, #12]
.L231:
	add	r4, r4, r2
	b	.L229
.L233:
	ldr	r2, [sp, #12]
	cmp	r3, r2
	blt	.L232
	add	r4, r4, r2
	b	.L229
.L230:
	mov	sl, r2
	mov	r0, r6
	add	r1, sp, #4
	bl	_ZN11TiXmlString6appendEPKcj
	mov	r4, sl
	b	.L252
.L273:
	mov	r0, r4
	mov	r1, r8
	bl	_ZN9TiXmlBase14SkipWhiteSpaceEPKc13TiXmlEncoding
	subs	r4, r0, #0
	beq	.L252
	ldrb	lr, [r4, #0]	@ zero_extendqisi2
	cmp	lr, #0
	beq	.L222
	mov	r5, #0
	mov	r7, r5
	add	sl, sp, #4
	b	.L236
.L271:
	add	r4, r4, #1
	mov	r5, #1
.L237:
	cmp	r4, #0
	beq	.L252
	ldrb	r0, [r4, #0]	@ zero_extendqisi2
	cmp	r0, #0
	beq	.L222
.L236:
	mov	r0, r4
	mov	r1, r9
	mov	r2, fp
	mov	r3, r8
	bl	_ZN9TiXmlBase11StringEqualEPKcS1_b13TiXmlEncoding
	cmp	r0, #0
	bne	.L222
	ldrb	r0, [r4, #0]	@ zero_extendqisi2
	cmp	r0, #13
	cmpne	r0, #10
	beq	.L271
	bl	isspace
	cmp	r0, #0
	bne	.L271
	cmp	r5, #0
	bne	.L276
.L254:
	cmp	r8, #1
	movne	r3, #1
	strb	r7, [sp, #4]
	strb	r7, [sp, #5]
	strb	r7, [sp, #6]
	strb	r7, [sp, #7]
	strne	r3, [sp, #8]
	beq	.L277
.L240:
	ldrb	r3, [r4, #0]	@ zero_extendqisi2
	cmp	r3, #38
	strneb	r3, [sp, #4]
	addne	r4, r4, #1
	beq	.L278
.L244:
	mov	r0, r6
	add	r1, sp, #12
	mov	r2, #1
	strb	r3, [sp, #12]
	mov	r5, #0
	bl	_ZN11TiXmlString6appendEPKcj
	b	.L237
.L276:
	mov	r5, #32
	mov	r0, r6
	add	r1, sp, #12
	mov	r2, #1
	strb	r5, [sp, #12]
	bl	_ZN11TiXmlString6appendEPKcj
	b	.L254
.L277:
	ldrb	r3, [r4, #0]	@ zero_extendqisi2
	ldr	r1, .L280+8
	add	r3, r1, r3, asl #2
	ldr	r2, [r3, #28]
	str	r2, [sp, #8]
	cmp	r2, #1
	beq	.L240
	cmp	r2, #0
	beq	.L245
	ldrb	r1, [r4, #0]	@ zero_extendqisi2
	cmp	r1, #0
	beq	.L246
	cmp	r2, #0
	movgt	r0, #0
	movgt	r3, r0
	ble	.L246
.L247:
	add	r3, r3, #1
	strb	r1, [sl, r0]
	ldrb	r1, [r4, r3]	@ zero_extendqisi2
	mov	r0, r3
	cmp	r1, #0
	bne	.L248
	ldr	r2, [sp, #8]
.L246:
	add	r4, r4, r2
.L243:
	cmp	r2, #1
	beq	.L279
.L249:
	mov	r0, r6
	mov	r1, sl
	bl	_ZN11TiXmlString6appendEPKcj
	mov	r5, #0
	b	.L237
.L248:
	ldr	r2, [sp, #8]
	cmp	r3, r2
	bge	.L246
	b	.L247
.L278:
	mov	r0, r4
	add	r2, sp, #8
	mov	r1, sl
	mov	r3, r8
	bl	_ZN9TiXmlBase9GetEntityEPKcPcPi13TiXmlEncoding
	ldr	r2, [sp, #8]
	mov	r4, r0
	b	.L243
.L245:
	mov	r4, r2
	b	.L249
.L279:
	ldrb	r3, [sp, #4]	@ zero_extendqisi2
	b	.L244
.L281:
	.align	2
.L280:
	.word	.LC0
	.word	_ZN9TiXmlBase18condenseWhiteSpaceE
	.word	.LANCHOR0
	.size	_ZN9TiXmlBase8ReadTextEPKcP11TiXmlStringbS1_b13TiXmlEncoding, .-_ZN9TiXmlBase8ReadTextEPKcP11TiXmlStringbS1_b13TiXmlEncoding
	.section	.text._ZN9TiXmlBase8ReadNameEPKcP11TiXmlString13TiXmlEncoding,"ax",%progbits
	.align	2
	.global	_ZN9TiXmlBase8ReadNameEPKcP11TiXmlString13TiXmlEncoding
	.hidden	_ZN9TiXmlBase8ReadNameEPKcP11TiXmlString13TiXmlEncoding
	.type	_ZN9TiXmlBase8ReadNameEPKcP11TiXmlString13TiXmlEncoding, %function
_ZN9TiXmlBase8ReadNameEPKcP11TiXmlString13TiXmlEncoding:
	@ args = 0, pretend = 0, frame = 0
	@ frame_needed = 0, uses_anonymous_args = 0
	stmfd	sp!, {r4, r5, r6, r7, r8, lr}
	mov	r6, r1
	mov	r4, r0
	ldr	r1, .L322
	mov	r0, r6
	mov	r2, #0
	bl	_ZN11TiXmlString6assignEPKcj
	cmp	r4, #0
	beq	.L283
	ldrb	r7, [r4, #0]	@ zero_extendqisi2
	cmp	r7, #0
	bne	.L321
.L284:
	mov	r4, #0
.L283:
	mov	r0, r4
	ldmfd	sp!, {r4, r5, r6, r7, r8, pc}
.L321:
	cmp	r7, #126
	bhi	.L285
	mov	r0, r7
	bl	isalpha
	cmp	r0, #0
	bne	.L285
	cmp	r7, #95
	bne	.L284
.L285:
	mvn	r8, r4
	ands	r8, r8, #3
	mov	r5, r4
	beq	.L286
	cmp	r7, #126
	bhi	.L293
	mov	r0, r7
	bl	isalnum
	cmp	r0, #0
	bne	.L293
	cmp	r7, #95
	beq	.L293
	cmp	r7, #45
	beq	.L293
	cmp	r7, #46
	beq	.L293
	cmp	r7, #58
	bne	.L287
.L293:
	mov	r5, r4
	ldrb	r7, [r5, #1]!	@ zero_extendqisi2
	cmp	r7, #0
	beq	.L287
	cmp	r8, #1
	beq	.L286
	cmp	r8, #2
	beq	.L316
	cmp	r7, #126
	bhi	.L296
	mov	r0, r7
	bl	isalnum
	cmp	r0, #0
	bne	.L296
	cmp	r7, #95
	beq	.L296
	cmp	r7, #45
	beq	.L296
	cmp	r7, #46
	beq	.L296
	cmp	r7, #58
	bne	.L287
.L296:
	ldrb	r7, [r5, #1]!	@ zero_extendqisi2
	cmp	r7, #0
	beq	.L287
.L316:
	cmp	r7, #126
	bhi	.L300
	mov	r0, r7
	bl	isalnum
	cmp	r0, #0
	bne	.L300
	cmp	r7, #95
	beq	.L300
	cmp	r7, #45
	beq	.L300
	cmp	r7, #46
	beq	.L300
	cmp	r7, #58
	bne	.L287
.L300:
	ldrb	r7, [r5, #1]!	@ zero_extendqisi2
	cmp	r7, #0
	beq	.L287
.L286:
	cmp	r7, #126
	bhi	.L288
	mov	r0, r7
	bl	isalnum
	cmp	r0, #0
	bne	.L288
	cmp	r7, #95
	beq	.L288
	cmp	r7, #45
	beq	.L288
	cmp	r7, #46
	beq	.L288
	cmp	r7, #58
	beq	.L288
.L287:
	rsb	r2, r4, r5
	cmp	r2, #0
	ble	.L320
	mov	r1, r4
	mov	r0, r6
	bl	_ZN11TiXmlString6assignEPKcj
.L320:
	mov	r4, r5
	mov	r0, r4
	ldmfd	sp!, {r4, r5, r6, r7, r8, pc}
.L288:
	add	r5, r5, #1
	cmp	r5, #0
	mov	r8, r5
	beq	.L287
	ldrb	r7, [r5, #0]	@ zero_extendqisi2
	cmp	r7, #0
	beq	.L287
	cmp	r7, #126
	bhi	.L305
	mov	r0, r7
	bl	isalnum
	cmp	r0, #0
	bne	.L305
	cmp	r7, #95
	beq	.L305
	cmp	r7, #45
	beq	.L305
	cmp	r7, #46
	beq	.L305
	cmp	r7, #58
	bne	.L287
.L305:
	ldrb	r7, [r8, #1]	@ zero_extendqisi2
	add	r5, r8, #1
	cmp	r7, #0
	beq	.L287
	cmp	r7, #126
	bhi	.L308
	mov	r0, r7
	bl	isalnum
	cmp	r0, #0
	bne	.L308
	cmp	r7, #95
	beq	.L308
	cmp	r7, #45
	beq	.L308
	cmp	r7, #46
	beq	.L308
	cmp	r7, #58
	bne	.L287
.L308:
	ldrb	r7, [r8, #2]	@ zero_extendqisi2
	add	r5, r8, #2
	cmp	r7, #0
	beq	.L287
	cmp	r7, #126
	bhi	.L311
	mov	r0, r7
	bl	isalnum
	cmp	r0, #0
	bne	.L311
	cmp	r7, #95
	beq	.L311
	cmp	r7, #45
	beq	.L311
	cmp	r7, #46
	beq	.L311
	cmp	r7, #58
	bne	.L287
.L311:
	ldrb	r7, [r8, #3]	@ zero_extendqisi2
	add	r5, r8, #3
	cmp	r7, #0
	beq	.L287
	b	.L286
.L323:
	.align	2
.L322:
	.word	.LC0
	.size	_ZN9TiXmlBase8ReadNameEPKcP11TiXmlString13TiXmlEncoding, .-_ZN9TiXmlBase8ReadNameEPKcP11TiXmlString13TiXmlEncoding
	.section	.text.T.135,"ax",%progbits
	.align	2
	.type	T.135, %function
T.135:
	@ args = 4, pretend = 0, frame = 16
	@ frame_needed = 0, uses_anonymous_args = 0
	stmfd	sp!, {r4, r5, r6, r7, r8, r9, sl, fp, lr}
	mov	r6, r1
	sub	sp, sp, #20
	mov	r5, r2
	mov	r4, r0
	ldr	r1, .L378
	mov	r0, r6
	mov	r2, #0
	mov	r9, r3
	ldr	r8, [sp, #56]
	bl	_ZN11TiXmlString6assignEPKcj
	cmp	r5, #0
	beq	.L325
	ldr	r0, .L378+4
	ldrb	r3, [r0, #0]	@ zero_extendqisi2
	cmp	r3, #0
	bne	.L326
.L325:
	cmp	r4, #0
	beq	.L355
	ldrb	r1, [r4, #0]	@ zero_extendqisi2
	cmp	r1, #0
	bne	.L328
.L327:
	cmp	r4, #0
	beq	.L355
	mov	r0, r9
	bl	strlen
	add	r4, r4, r0
.L355:
	mov	r0, r4
	add	sp, sp, #20
	ldmfd	sp!, {r4, r5, r6, r7, r8, r9, sl, fp, pc}
.L328:
	ldr	fp, .L378+8
	add	r5, sp, #4
	add	sl, sp, #12
	mov	r7, #1
	b	.L362
.L331:
	ldr	r2, [sp, #12]
	add	r4, r4, #1
	strb	r3, [sp, #4]
.L332:
	mov	r0, r6
	mov	r1, r5
	bl	_ZN11TiXmlString6appendEPKcj
	cmp	r4, #0
	beq	.L355
	ldrb	ip, [r4, #0]	@ zero_extendqisi2
	cmp	ip, #0
	beq	.L327
.L362:
	mov	r0, r4
	mov	r1, r9
	mov	r2, #0
	mov	r3, r8
	bl	_ZN9TiXmlBase11StringEqualEPKcS1_b13TiXmlEncoding
	cmp	r0, #0
	bne	.L327
	cmp	r8, #1
	strb	r0, [sp, #4]
	strb	r0, [sp, #5]
	strb	r0, [sp, #6]
	strb	r0, [sp, #7]
	beq	.L337
	str	r7, [sp, #12]
.L329:
	ldrb	r3, [r4, #0]	@ zero_extendqisi2
	cmp	r3, #38
	bne	.L331
	mov	r0, r4
	mov	r2, sl
	mov	r1, r5
	mov	r3, r8
	bl	_ZN9TiXmlBase9GetEntityEPKcPcPi13TiXmlEncoding
	ldr	r2, [sp, #12]
	mov	r4, r0
	b	.L332
.L337:
	ldrb	r2, [r4, #0]	@ zero_extendqisi2
	add	r3, fp, r2, asl #2
	ldr	r2, [r3, #28]
	str	r2, [sp, #12]
	cmp	r2, #1
	beq	.L329
	cmp	r2, #0
	beq	.L333
	ldrb	r1, [r4, #0]	@ zero_extendqisi2
	cmp	r1, #0
	beq	.L334
	cmp	r2, #0
	movgt	r3, r0
	ble	.L334
.L335:
	add	r3, r3, #1
	strb	r1, [r5, r0]
	ldrb	r1, [r4, r3]	@ zero_extendqisi2
	mov	r0, r3
	cmp	r1, #0
	bne	.L336
	ldr	r2, [sp, #12]
.L334:
	add	r4, r4, r2
	b	.L332
.L333:
	mov	sl, r2
	mov	r0, r6
	add	r1, sp, #4
	bl	_ZN11TiXmlString6appendEPKcj
	mov	r4, sl
	b	.L355
.L326:
	mov	r0, r4
	mov	r1, r8
	bl	_ZN9TiXmlBase14SkipWhiteSpaceEPKc13TiXmlEncoding
	subs	r4, r0, #0
	beq	.L355
	ldrb	lr, [r4, #0]	@ zero_extendqisi2
	cmp	lr, #0
	beq	.L327
	mov	r5, #0
	mov	r7, r5
	add	sl, sp, #4
	mov	fp, #1
	b	.L339
.L373:
	add	r4, r4, #1
	mov	r5, #1
.L340:
	cmp	r4, #0
	beq	.L355
	ldrb	r0, [r4, #0]	@ zero_extendqisi2
	cmp	r0, #0
	beq	.L327
.L339:
	mov	r0, r4
	mov	r1, r9
	mov	r2, #0
	mov	r3, r8
	bl	_ZN9TiXmlBase11StringEqualEPKcS1_b13TiXmlEncoding
	cmp	r0, #0
	bne	.L327
	ldrb	r0, [r4, #0]	@ zero_extendqisi2
	cmp	r0, #13
	cmpne	r0, #10
	beq	.L373
	bl	isspace
	cmp	r0, #0
	bne	.L373
	cmp	r5, #0
	bne	.L356
.L357:
	cmp	r8, #1
	strb	r7, [sp, #4]
	strb	r7, [sp, #5]
	strb	r7, [sp, #6]
	strb	r7, [sp, #7]
	beq	.L375
	str	fp, [sp, #8]
.L343:
	ldrb	r3, [r4, #0]	@ zero_extendqisi2
	cmp	r3, #38
	beq	.L376
	add	r4, r4, #1
	strb	r3, [sp, #4]
.L347:
	mov	r0, r6
	add	r1, sp, #12
	mov	r2, #1
	strb	r3, [sp, #12]
	mov	r5, #0
	bl	_ZN11TiXmlString6appendEPKcj
	b	.L340
.L356:
	mov	r5, #32
	mov	r0, r6
	add	r1, sp, #12
	mov	r2, #1
	strb	r5, [sp, #12]
	bl	_ZN11TiXmlString6appendEPKcj
	b	.L357
.L375:
	ldrb	r3, [r4, #0]	@ zero_extendqisi2
	ldr	r1, .L378+8
	add	r3, r1, r3, asl #2
	ldr	r2, [r3, #28]
	str	r2, [sp, #8]
	cmp	r2, #1
	beq	.L343
	cmp	r2, #0
	beq	.L348
	ldrb	r1, [r4, #0]	@ zero_extendqisi2
	cmp	r1, #0
	beq	.L349
	cmp	r2, #0
	movgt	r0, #0
	movgt	r3, r0
	ble	.L349
.L350:
	add	r3, r3, #1
	strb	r1, [sl, r0]
	ldrb	r1, [r4, r3]	@ zero_extendqisi2
	mov	r0, r3
	cmp	r1, #0
	bne	.L351
	ldr	r2, [sp, #8]
.L349:
	add	r4, r4, r2
.L346:
	cmp	r2, #1
	beq	.L377
.L352:
	mov	r0, r6
	mov	r1, sl
	bl	_ZN11TiXmlString6appendEPKcj
	mov	r5, #0
	b	.L340
.L351:
	ldr	r2, [sp, #8]
	cmp	r3, r2
	bge	.L349
	b	.L350
.L376:
	mov	r0, r4
	add	r2, sp, #8
	mov	r1, sl
	mov	r3, r8
	bl	_ZN9TiXmlBase9GetEntityEPKcPcPi13TiXmlEncoding
	ldr	r2, [sp, #8]
	mov	r4, r0
	b	.L346
.L348:
	mov	r4, r2
	b	.L352
.L336:
	ldr	r2, [sp, #12]
	cmp	r3, r2
	blt	.L335
	add	r4, r4, r2
	b	.L332
.L377:
	ldrb	r3, [sp, #4]	@ zero_extendqisi2
	b	.L347
.L379:
	.align	2
.L378:
	.word	.LC0
	.word	_ZN9TiXmlBase18condenseWhiteSpaceE
	.word	.LANCHOR0
	.size	T.135, .-T.135
	.section	.text._ZN12TiXmlComment5ParseEPKcP16TiXmlParsingData13TiXmlEncoding,"ax",%progbits
	.align	2
	.global	_ZN12TiXmlComment5ParseEPKcP16TiXmlParsingData13TiXmlEncoding
	.hidden	_ZN12TiXmlComment5ParseEPKcP16TiXmlParsingData13TiXmlEncoding
	.type	_ZN12TiXmlComment5ParseEPKcP16TiXmlParsingData13TiXmlEncoding, %function
_ZN12TiXmlComment5ParseEPKcP16TiXmlParsingData13TiXmlEncoding:
	@ args = 0, pretend = 0, frame = 8
	@ frame_needed = 0, uses_anonymous_args = 0
	stmfd	sp!, {r4, r5, r6, r7, r8, r9, sl, fp, lr}
	sub	sp, sp, #12
	mov	r4, r1
	mov	r5, r3
	mov	r6, r2
	add	r7, r0, #32
	mov	r8, r0
	bl	_ZNK9TiXmlNode11GetDocumentEv
	mov	r2, #0
	ldr	r1, .L427
	str	r0, [sp, #4]
	mov	r0, r7
	bl	_ZN11TiXmlString6assignEPKcj
	mov	r0, r4
	mov	r1, r5
	bl	_ZN9TiXmlBase14SkipWhiteSpaceEPKc13TiXmlEncoding
	cmp	r6, #0
	mov	r4, r0
	beq	.L381
	ldr	r9, [r6, #12]
	cmp	r9, #0
	ble	.L382
	ldr	sl, [r6, #8]
	ldr	fp, [r6, #0]
	cmp	r0, sl
	ldr	r0, [r6, #4]
	bls	.L383
.L408:
	ldrb	r3, [sl, #0]	@ zero_extendqisi2
	cmp	r3, #10
	beq	.L386
	bhi	.L389
	cmp	r3, #0
	bne	.L420
.L382:
	ldmia	r6, {r0, r1}
	add	r8, r8, #4
	stmia	r8, {r0, r1}
.L381:
	mov	r0, r4
	ldr	r1, .L427+4
	mov	r2, #0
	mov	r3, r5
	bl	_ZN9TiXmlBase11StringEqualEPKcS1_b13TiXmlEncoding
	cmp	r0, #0
	beq	.L421
	add	r6, r4, #4
	mov	r0, r7
	ldr	r1, .L427
	mov	r2, #0
	bl	_ZN11TiXmlString6assignEPKcj
	cmp	r6, #0
	beq	.L402
	ldrb	r0, [r4, #4]	@ zero_extendqisi2
	cmp	r0, #0
	bne	.L422
.L404:
	add	r6, r6, #3
.L402:
	mov	r0, r6
	add	sp, sp, #12
	ldmfd	sp!, {r4, r5, r6, r7, r8, r9, sl, fp, pc}
.L389:
	cmp	r3, #13
	beq	.L387
	cmp	r3, #239
	beq	.L423
.L384:
	cmp	r5, #1
	beq	.L424
.L396:
	add	sl, sl, #1
	add	r0, r0, #1
.L391:
	cmp	r4, sl
	bhi	.L408
.L383:
	str	fp, [r6, #0]
	stmib	r6, {r0, sl}	@ phole stm
	b	.L382
.L420:
	cmp	r3, #9
	bne	.L384
	mov	r1, r9
	bl	__aeabi_idiv
	add	sl, sl, #1
	mla	r0, r9, r0, r9
	b	.L391
.L422:
	tst	r6, #1
	beq	.L415
.L413:
	ldr	r1, .L427+8
	mov	r2, #0
	mov	r3, r5
	mov	r0, r6
	bl	_ZN9TiXmlBase11StringEqualEPKcS1_b13TiXmlEncoding
	mov	r1, r6
	mov	r2, #1
	subs	r4, r0, #0
	mov	r0, r7
	bne	.L404
	bl	_ZN11TiXmlString6appendEPKcj
	adds	r6, r6, #1
	beq	.L402
	ldrb	ip, [r6, #0]	@ zero_extendqisi2
	cmp	ip, #0
	beq	.L404
	mov	r2, r4
	ldr	r1, .L427+8
	mov	r0, r6
	mov	r3, r5
	bl	_ZN9TiXmlBase11StringEqualEPKcS1_b13TiXmlEncoding
	mov	r1, r6
	mov	r2, #1
	cmp	r0, #0
	mov	r0, r7
	bne	.L404
	bl	_ZN11TiXmlString6appendEPKcj
	ldrb	r2, [r6, #1]!	@ zero_extendqisi2
	cmp	r2, #0
	beq	.L404
	b	.L413
.L423:
	cmp	r5, #1
	bne	.L396
	ldrb	r3, [sl, #1]	@ zero_extendqisi2
	cmp	r3, #0
	beq	.L391
	ldrb	r2, [sl, #2]	@ zero_extendqisi2
	cmp	r2, #0
	beq	.L391
	cmp	r3, #187
	beq	.L395
	cmp	r3, #191
	beq	.L425
.L394:
	add	sl, sl, #3
	add	r0, r0, #1
	b	.L391
.L415:
	mov	r0, r6
	ldr	r1, .L427+8
	mov	r2, #0
	mov	r3, r5
	bl	_ZN9TiXmlBase11StringEqualEPKcS1_b13TiXmlEncoding
	cmp	r0, #0
	bne	.L404
	mov	r1, r6
	mov	r0, r7
	mov	r6, r4
	mov	r2, #1
	bl	_ZN11TiXmlString6appendEPKcj
	ldrb	r1, [r6, #5]!	@ zero_extendqisi2
	cmp	r1, #0
	beq	.L404
	b	.L413
.L387:
	ldrb	r3, [sl, #1]!	@ zero_extendqisi2
	add	fp, fp, #1
	cmp	r3, #10
	beq	.L416
.L390:
	mov	r0, #0
	b	.L391
.L386:
	ldrb	r0, [sl, #1]!	@ zero_extendqisi2
	add	fp, fp, #1
	cmp	r0, #13
	bne	.L390
.L416:
	add	sl, sl, #1
	mov	r0, #0
	b	.L391
.L424:
	ldr	r2, .L427+12
	add	r0, r0, #1
	add	ip, r2, r3, asl #2
	ldr	r1, [ip, #28]
	cmp	r1, #0
	moveq	r1, #1
	add	sl, sl, r1
	b	.L391
.L421:
	ldr	r3, [sp, #4]
	ldrb	r7, [r3, #44]	@ zero_extendqisi2
	cmp	r7, #0
	beq	.L426
.L401:
	mov	r6, #0
	b	.L402
.L426:
	ldr	lr, .L427+16
	mov	r2, #1
	mov	r1, #11
	strb	r2, [r3, #44]
	str	r1, [r3, #48]
	ldr	r8, [lr, #44]
	mov	r0, r8
	bl	strlen
	ldr	ip, [sp, #4]
	mov	r1, r8
	mov	r2, r0
	add	r0, ip, #52
	bl	_ZN11TiXmlString6assignEPKcj
	ldr	r0, [sp, #4]
	mvn	r3, #0
	cmp	r4, #0
	cmpne	r6, #0
	str	r3, [r0, #60]
	str	r3, [r0, #64]
	beq	.L401
	mov	r0, r6
	mov	r1, r4
	mov	r2, r5
	bl	_ZN16TiXmlParsingData5StampEPKc13TiXmlEncoding
	ldr	r3, [sp, #4]
	ldmia	r6, {r0, r1}
	add	r6, r3, #60
	stmia	r6, {r0, r1}
	mov	r6, r7
	b	.L402
.L425:
	cmp	r2, #190
	beq	.L418
.L395:
	cmp	r2, #191
	bne	.L394
.L418:
	add	sl, sl, #3
	b	.L391
.L428:
	.align	2
.L427:
	.word	.LC0
	.word	.LC1
	.word	.LC2
	.word	.LANCHOR0
	.word	_ZN9TiXmlBase11errorStringE
	.size	_ZN12TiXmlComment5ParseEPKcP16TiXmlParsingData13TiXmlEncoding, .-_ZN12TiXmlComment5ParseEPKcP16TiXmlParsingData13TiXmlEncoding
	.section	.text._ZN13TiXmlDocument8SetErrorEiPKcP16TiXmlParsingData13TiXmlEncoding,"ax",%progbits
	.align	2
	.global	_ZN13TiXmlDocument8SetErrorEiPKcP16TiXmlParsingData13TiXmlEncoding
	.hidden	_ZN13TiXmlDocument8SetErrorEiPKcP16TiXmlParsingData13TiXmlEncoding
	.type	_ZN13TiXmlDocument8SetErrorEiPKcP16TiXmlParsingData13TiXmlEncoding, %function
_ZN13TiXmlDocument8SetErrorEiPKcP16TiXmlParsingData13TiXmlEncoding:
	@ args = 4, pretend = 0, frame = 0
	@ frame_needed = 0, uses_anonymous_args = 0
	stmfd	sp!, {r3, r4, r5, r6, r7, r8, r9, sl, fp, lr}
	mov	r4, r0
	ldrb	r0, [r0, #44]	@ zero_extendqisi2
	mov	r5, r2
	cmp	r0, #0
	mov	r6, r3
	ldr	r7, [sp, #40]
	ldmnefd	sp!, {r3, r4, r5, r6, r7, r8, r9, sl, fp, pc}
	ldr	r2, .L459
	mov	r8, #1
	str	r1, [r4, #48]
	strb	r8, [r4, #44]
	ldr	r8, [r2, r1, asl #2]
	mov	r0, r8
	bl	strlen
	mov	r1, r8
	mov	r2, r0
	add	r0, r4, #52
	bl	_ZN11TiXmlString6assignEPKcj
	mvn	r3, #0
	cmp	r6, #0
	cmpne	r5, #0
	str	r3, [r4, #60]
	str	r3, [r4, #64]
	ldmeqfd	sp!, {r3, r4, r5, r6, r7, r8, r9, sl, fp, pc}
	ldr	sl, [r6, #12]
	cmp	sl, #0
	ble	.L431
	ldr	r8, [r6, #8]
	ldr	r9, [r6, #0]
	cmp	r5, r8
	ldr	r0, [r6, #4]
	bls	.L432
	ldr	fp, .L459+4
.L450:
	ldrb	r3, [r8, #0]	@ zero_extendqisi2
	cmp	r3, #10
	beq	.L435
	bhi	.L438
	cmp	r3, #0
	beq	.L431
	cmp	r3, #9
	beq	.L456
.L433:
	cmp	r7, #1
	beq	.L457
.L445:
	add	r8, r8, #1
	add	r0, r0, #1
.L440:
	cmp	r5, r8
	bhi	.L450
.L432:
	str	r9, [r6, #0]
	stmib	r6, {r0, r8}	@ phole stm
.L431:
	ldmia	r6, {r0, r1}
	add	r4, r4, #60
	stmia	r4, {r0, r1}
	ldmfd	sp!, {r3, r4, r5, r6, r7, r8, r9, sl, fp, pc}
.L438:
	cmp	r3, #13
	beq	.L436
	cmp	r3, #239
	bne	.L433
	cmp	r7, #1
	bne	.L445
	ldrb	r3, [r8, #1]	@ zero_extendqisi2
	cmp	r3, #0
	beq	.L440
	ldrb	r2, [r8, #2]	@ zero_extendqisi2
	cmp	r2, #0
	beq	.L440
	cmp	r3, #187
	beq	.L444
	cmp	r3, #191
	beq	.L458
.L443:
	add	r8, r8, #3
	add	r0, r0, #1
	b	.L440
.L456:
	mov	r1, sl
	bl	__aeabi_idiv
	add	r8, r8, #1
	mla	r0, sl, r0, sl
	b	.L440
.L436:
	ldrb	r1, [r8, #1]!	@ zero_extendqisi2
	add	r9, r9, #1
	cmp	r1, #10
	beq	.L452
.L439:
	mov	r0, #0
	b	.L440
.L435:
	ldrb	ip, [r8, #1]!	@ zero_extendqisi2
	add	r9, r9, #1
	cmp	ip, #13
	bne	.L439
.L452:
	add	r8, r8, #1
	mov	r0, #0
	b	.L440
.L457:
	add	r3, fp, r3, asl #2
	ldr	lr, [r3, #28]
	add	r0, r0, #1
	cmp	lr, #0
	moveq	lr, #1
	add	r8, r8, lr
	b	.L440
.L458:
	cmp	r2, #190
	beq	.L454
.L444:
	cmp	r2, #191
	bne	.L443
.L454:
	add	r8, r8, #3
	b	.L440
.L460:
	.align	2
.L459:
	.word	_ZN9TiXmlBase11errorStringE
	.word	.LANCHOR0
	.size	_ZN13TiXmlDocument8SetErrorEiPKcP16TiXmlParsingData13TiXmlEncoding, .-_ZN13TiXmlDocument8SetErrorEiPKcP16TiXmlParsingData13TiXmlEncoding
	.section	.text._ZN12TiXmlUnknown5ParseEPKcP16TiXmlParsingData13TiXmlEncoding,"ax",%progbits
	.align	2
	.global	_ZN12TiXmlUnknown5ParseEPKcP16TiXmlParsingData13TiXmlEncoding
	.hidden	_ZN12TiXmlUnknown5ParseEPKcP16TiXmlParsingData13TiXmlEncoding
	.type	_ZN12TiXmlUnknown5ParseEPKcP16TiXmlParsingData13TiXmlEncoding, %function
_ZN12TiXmlUnknown5ParseEPKcP16TiXmlParsingData13TiXmlEncoding:
	@ args = 0, pretend = 0, frame = 8
	@ frame_needed = 0, uses_anonymous_args = 0
	stmfd	sp!, {r4, r5, r6, r7, r8, r9, sl, fp, lr}
	sub	sp, sp, #20
	mov	r7, r1
	mov	r4, r3
	mov	r5, r2
	mov	r6, r0
	bl	_ZNK9TiXmlNode11GetDocumentEv
	mov	r1, r4
	mov	r8, r0
	mov	r0, r7
	bl	_ZN9TiXmlBase14SkipWhiteSpaceEPKc13TiXmlEncoding
	cmp	r5, #0
	mov	r7, r0
	beq	.L462
	ldr	r9, [r5, #12]
	cmp	r9, #0
	ble	.L463
	ldr	sl, [r5, #8]
	ldr	fp, [r5, #0]
	cmp	r0, sl
	ldr	r0, [r5, #4]
	bls	.L464
.L495:
	ldrb	r3, [sl, #0]	@ zero_extendqisi2
	cmp	r3, #10
	beq	.L467
	bhi	.L470
	cmp	r3, #0
	bne	.L514
.L463:
	ldmia	r5, {r0, r1}
	add	lr, r6, #4
	stmia	lr, {r0, r1}
.L462:
	cmp	r7, #0
	beq	.L481
	ldrb	r3, [r7, #0]	@ zero_extendqisi2
	cmp	r3, #0
	beq	.L481
	cmp	r3, #60
	bne	.L481
	add	r6, r6, #32
	add	r5, r7, #1
	mov	r0, r6
	ldr	r1, .L519
	mov	r2, #0
	bl	_ZN11TiXmlString6assignEPKcj
	cmp	r5, #0
	beq	.L485
	ldrb	r3, [r7, #1]	@ zero_extendqisi2
	cmp	r3, #0
	beq	.L484
	cmp	r3, #62
	beq	.L494
	mvn	sl, r5
	ands	sl, sl, #3
	add	r7, sp, #15
	beq	.L487
	mov	r0, r6
	mov	r1, r7
	mov	r2, #1
	strb	r3, [sp, #15]
	bl	_ZN11TiXmlString6appendEPKcj
	ldrb	r3, [r5, #1]!	@ zero_extendqisi2
	cmp	r3, #0
	beq	.L484
	cmp	r3, #62
	beq	.L494
	cmp	sl, #1
	beq	.L487
	cmp	sl, #2
	beq	.L506
	mov	r0, r6
	mov	r1, r7
	mov	r2, #1
	strb	r3, [sp, #15]
	bl	_ZN11TiXmlString6appendEPKcj
	ldrb	r3, [r5, #1]!	@ zero_extendqisi2
	cmp	r3, #0
	beq	.L484
	cmp	r3, #62
	beq	.L494
.L506:
	mov	r0, r6
	mov	r1, r7
	mov	r2, #1
	strb	r3, [sp, #15]
	bl	_ZN11TiXmlString6appendEPKcj
	ldrb	r3, [r5, #1]!	@ zero_extendqisi2
	cmp	r3, #0
	beq	.L484
.L512:
	cmp	r3, #62
	beq	.L494
.L487:
	add	r5, r5, #1
	mov	r1, r7
	mov	r2, #1
	mov	r0, r6
	strb	r3, [sp, #15]
	bl	_ZN11TiXmlString6appendEPKcj
	cmp	r5, #0
	mov	sl, r5
	beq	.L485
	ldrb	r3, [r5, #0]	@ zero_extendqisi2
	cmp	r3, #0
	beq	.L484
	cmp	r3, #62
	mov	r1, r7
	mov	r2, #1
	mov	r0, r6
	beq	.L494
	strb	r3, [sp, #15]
	bl	_ZN11TiXmlString6appendEPKcj
	ldrb	r3, [r5, #1]!	@ zero_extendqisi2
	cmp	r3, #0
	beq	.L484
	cmp	r3, #62
	mov	r1, r7
	mov	r2, #1
	mov	r0, r6
	beq	.L494
	strb	r3, [sp, #15]
	bl	_ZN11TiXmlString6appendEPKcj
	ldrb	r3, [sl, #2]	@ zero_extendqisi2
	add	r5, sl, #2
	cmp	r3, #0
	beq	.L484
	cmp	r3, #62
	mov	r0, r6
	mov	r1, r7
	mov	r2, #1
	beq	.L494
	strb	r3, [sp, #15]
	bl	_ZN11TiXmlString6appendEPKcj
	ldrb	r3, [sl, #3]	@ zero_extendqisi2
	add	r5, sl, #3
	cmp	r3, #0
	bne	.L512
.L484:
	mov	r0, r5
	add	sp, sp, #20
	ldmfd	sp!, {r4, r5, r6, r7, r8, r9, sl, fp, pc}
.L470:
	cmp	r3, #13
	beq	.L468
	cmp	r3, #239
	beq	.L515
.L465:
	cmp	r4, #1
	beq	.L516
.L477:
	add	sl, sl, #1
	add	r0, r0, #1
.L472:
	cmp	r7, sl
	bhi	.L495
.L464:
	str	fp, [r5, #0]
	stmib	r5, {r0, sl}	@ phole stm
	b	.L463
.L514:
	cmp	r3, #9
	bne	.L465
	mov	r1, r9
	bl	__aeabi_idiv
	add	sl, sl, #1
	mla	r0, r9, r0, r9
	b	.L472
.L515:
	cmp	r4, #1
	bne	.L477
	ldrb	r3, [sl, #1]	@ zero_extendqisi2
	cmp	r3, #0
	beq	.L472
	ldrb	r2, [sl, #2]	@ zero_extendqisi2
	cmp	r2, #0
	beq	.L472
	cmp	r3, #187
	beq	.L476
	cmp	r3, #191
	beq	.L517
.L475:
	add	sl, sl, #3
	add	r0, r0, #1
	b	.L472
.L485:
	cmp	r8, #0
	beq	.L518
	mov	r2, #0
	mov	r3, r2
	mov	r0, r8
	mov	r1, #10
	mov	r5, #0
	str	r4, [sp, #0]
	bl	_ZN13TiXmlDocument8SetErrorEiPKcP16TiXmlParsingData13TiXmlEncoding
	ldrb	r3, [r5, #0]	@ zero_extendqisi2
.L491:
	cmp	r3, #62
	bne	.L484
.L494:
	add	r5, r5, #1
	b	.L484
.L481:
	cmp	r8, #0
	moveq	r5, r8
	beq	.L484
	mov	r3, r5
	mov	r0, r8
	mov	r2, r7
	mov	r1, #10
	str	r4, [sp, #0]
	mov	r5, #0
	bl	_ZN13TiXmlDocument8SetErrorEiPKcP16TiXmlParsingData13TiXmlEncoding
	b	.L484
.L468:
	ldrb	r3, [sl, #1]!	@ zero_extendqisi2
	add	fp, fp, #1
	cmp	r3, #10
	beq	.L509
.L471:
	mov	r0, #0
	b	.L472
.L467:
	ldrb	r0, [sl, #1]!	@ zero_extendqisi2
	add	fp, fp, #1
	cmp	r0, #13
	bne	.L471
.L509:
	add	sl, sl, #1
	mov	r0, #0
	b	.L472
.L518:
	mov	r5, r8
	ldrb	r3, [r8, #0]	@ zero_extendqisi2
	b	.L491
.L516:
	ldr	r2, .L519+4
	add	r0, r0, #1
	add	ip, r2, r3, asl #2
	ldr	r1, [ip, #28]
	cmp	r1, #0
	moveq	r1, #1
	add	sl, sl, r1
	b	.L472
.L517:
	cmp	r2, #190
	beq	.L511
.L476:
	cmp	r2, #191
	bne	.L475
.L511:
	add	sl, sl, #3
	b	.L472
.L520:
	.align	2
.L519:
	.word	.LC0
	.word	.LANCHOR0
	.size	_ZN12TiXmlUnknown5ParseEPKcP16TiXmlParsingData13TiXmlEncoding, .-_ZN12TiXmlUnknown5ParseEPKcP16TiXmlParsingData13TiXmlEncoding
	.section	.text._ZN9TiXmlText5ParseEPKcP16TiXmlParsingData13TiXmlEncoding,"ax",%progbits
	.align	2
	.global	_ZN9TiXmlText5ParseEPKcP16TiXmlParsingData13TiXmlEncoding
	.hidden	_ZN9TiXmlText5ParseEPKcP16TiXmlParsingData13TiXmlEncoding
	.type	_ZN9TiXmlText5ParseEPKcP16TiXmlParsingData13TiXmlEncoding, %function
_ZN9TiXmlText5ParseEPKcP16TiXmlParsingData13TiXmlEncoding:
	@ args = 0, pretend = 0, frame = 16
	@ frame_needed = 0, uses_anonymous_args = 0
	stmfd	sp!, {r4, r5, r6, r7, r8, r9, sl, fp, lr}
	add	r8, r0, #32
	sub	sp, sp, #28
	mov	r7, r0
	mov	r5, r2
	mov	r4, r1
	mov	r2, #0
	ldr	r1, .L572
	mov	r0, r8
	mov	r6, r3
	bl	_ZN11TiXmlString6assignEPKcj
	mov	r0, r7
	bl	_ZNK9TiXmlNode11GetDocumentEv
	cmp	r5, #0
	str	r0, [sp, #12]
	beq	.L522
	ldr	r9, [r5, #12]
	cmp	r9, #0
	ble	.L523
	ldr	sl, [r5, #8]
	ldr	fp, [r5, #0]
	cmp	r4, sl
	ldr	r0, [r5, #4]
	bls	.L524
.L553:
	ldrb	r3, [sl, #0]	@ zero_extendqisi2
	cmp	r3, #10
	beq	.L527
	bhi	.L530
	cmp	r3, #0
	bne	.L565
.L523:
	ldmia	r5, {r0, r1}
	add	lr, r7, #4
	stmia	lr, {r0, r1}
.L522:
	ldrb	r2, [r7, #44]	@ zero_extendqisi2
	cmp	r2, #0
	beq	.L566
.L541:
	mov	sl, #1
	strb	sl, [r7, #44]
	mov	r0, r4
	ldr	r1, .L572+4
	mov	r2, #0
	mov	r3, r6
	bl	_ZN9TiXmlBase11StringEqualEPKcS1_b13TiXmlEncoding
	subs	r7, r0, #0
	beq	.L567
	adds	r5, r4, #9
	beq	.L545
	ldrb	r7, [r4, #9]	@ zero_extendqisi2
	cmp	r7, #0
	bne	.L568
.L545:
	ldr	r4, .L572+8
	add	r1, sp, #24
	str	r4, [r1, #-8]!
	mov	r0, r5
	mov	r2, #0
	ldr	r3, .L572+12
	str	r6, [sp, #0]
	bl	T.135
	mov	r7, r0
	ldr	r0, [sp, #16]
	cmp	r0, r4
	beq	.L544
	cmp	r0, #0
	beq	.L544
	bl	_ZdaPv
.L544:
	mov	r0, r7
	add	sp, sp, #28
	ldmfd	sp!, {r4, r5, r6, r7, r8, r9, sl, fp, pc}
.L530:
	cmp	r3, #13
	beq	.L528
	cmp	r3, #239
	beq	.L569
.L525:
	cmp	r6, #1
	beq	.L570
.L537:
	add	sl, sl, #1
	add	r0, r0, #1
.L532:
	cmp	r4, sl
	bhi	.L553
.L524:
	str	fp, [r5, #0]
	stmib	r5, {r0, sl}	@ phole stm
	b	.L523
.L565:
	cmp	r3, #9
	bne	.L525
	mov	r1, r9
	bl	__aeabi_idiv
	add	sl, sl, #1
	mla	r0, r9, r0, r9
	b	.L532
.L569:
	cmp	r6, #1
	bne	.L537
	ldrb	r3, [sl, #1]	@ zero_extendqisi2
	cmp	r3, #0
	beq	.L532
	ldrb	r2, [sl, #2]	@ zero_extendqisi2
	cmp	r2, #0
	beq	.L532
	cmp	r3, #187
	beq	.L536
	cmp	r3, #191
	beq	.L571
.L535:
	add	sl, sl, #3
	add	r0, r0, #1
	b	.L532
.L527:
	ldrb	r0, [sl, #1]!	@ zero_extendqisi2
	add	fp, fp, #1
	cmp	r0, #13
	beq	.L561
.L531:
	mov	r0, #0
	b	.L532
.L528:
	ldrb	r3, [sl, #1]!	@ zero_extendqisi2
	add	fp, fp, #1
	cmp	r3, #10
	bne	.L531
.L561:
	add	sl, sl, #1
	mov	r0, #0
	b	.L532
.L566:
	mov	r0, r4
	ldr	r1, .L572+4
	mov	r3, r6
	bl	_ZN9TiXmlBase11StringEqualEPKcS1_b13TiXmlEncoding
	cmp	r0, #0
	bne	.L541
	mov	r0, r4
	mov	r1, r8
	mov	r2, #1
	ldr	r3, .L572+16
	str	r6, [sp, #0]
	bl	T.135
	subs	r7, r0, #0
	subne	r7, r7, #1
	b	.L544
.L568:
	tst	r5, #1
	add	r7, sp, #23
	beq	.L560
.L558:
	ldr	r1, .L572+12
	mov	r2, #0
	mov	r0, r5
	mov	r3, r6
	bl	_ZN9TiXmlBase11StringEqualEPKcS1_b13TiXmlEncoding
	mov	r1, r7
	mov	r2, #1
	subs	r4, r0, #0
	mov	r0, r8
	bne	.L545
	ldrb	ip, [r5], #1	@ zero_extendqisi2
	strb	ip, [sp, #23]
	bl	_ZN11TiXmlString6appendEPKcj
	cmp	r5, #0
	beq	.L545
	ldrb	r3, [r5, #0]	@ zero_extendqisi2
	cmp	r3, #0
	beq	.L545
	mov	r2, r4
	ldr	r1, .L572+12
	mov	r0, r5
	mov	r3, r6
	bl	_ZN9TiXmlBase11StringEqualEPKcS1_b13TiXmlEncoding
	mov	r1, r7
	mov	r2, #1
	cmp	r0, #0
	mov	r0, r8
	bne	.L545
	ldrb	r3, [r5, #0]	@ zero_extendqisi2
	strb	r3, [sp, #23]
	bl	_ZN11TiXmlString6appendEPKcj
	ldrb	r0, [r5, #1]!	@ zero_extendqisi2
	cmp	r0, #0
	beq	.L545
	b	.L558
.L560:
	mov	r0, r5
	ldr	r1, .L572+12
	mov	r2, #0
	mov	r3, r6
	bl	_ZN9TiXmlBase11StringEqualEPKcS1_b13TiXmlEncoding
	cmp	r0, #0
	bne	.L545
	ldrb	lr, [r5, #0]	@ zero_extendqisi2
	mov	r2, sl
	mov	r5, r4
	mov	r0, r8
	mov	r1, r7
	strb	lr, [sp, #23]
	bl	_ZN11TiXmlString6appendEPKcj
	ldrb	r4, [r5, #10]!	@ zero_extendqisi2
	cmp	r4, #0
	beq	.L545
	b	.L558
.L570:
	ldr	r2, .L572+20
	add	r0, r0, #1
	add	ip, r2, r3, asl #2
	ldr	r1, [ip, #28]
	cmp	r1, #0
	moveq	r1, #1
	add	sl, sl, r1
	b	.L532
.L567:
	ldr	r0, [sp, #12]
	mov	r2, r4
	mov	r3, r5
	mov	r1, #15
	str	r6, [sp, #0]
	bl	_ZN13TiXmlDocument8SetErrorEiPKcP16TiXmlParsingData13TiXmlEncoding
	b	.L544
.L571:
	cmp	r2, #190
	beq	.L563
.L536:
	cmp	r2, #191
	bne	.L535
.L563:
	add	sl, sl, #3
	b	.L532
.L573:
	.align	2
.L572:
	.word	.LC0
	.word	.LC3
	.word	_ZN11TiXmlString8nullrep_E
	.word	.LC4
	.word	.LC5
	.word	.LANCHOR0
	.size	_ZN9TiXmlText5ParseEPKcP16TiXmlParsingData13TiXmlEncoding, .-_ZN9TiXmlText5ParseEPKcP16TiXmlParsingData13TiXmlEncoding
	.section	.text._ZN9TiXmlNode8IdentifyEPKc13TiXmlEncoding,"ax",%progbits
	.align	2
	.global	_ZN9TiXmlNode8IdentifyEPKc13TiXmlEncoding
	.hidden	_ZN9TiXmlNode8IdentifyEPKc13TiXmlEncoding
	.type	_ZN9TiXmlNode8IdentifyEPKc13TiXmlEncoding, %function
_ZN9TiXmlNode8IdentifyEPKc13TiXmlEncoding:
	@ args = 0, pretend = 0, frame = 0
	@ frame_needed = 0, uses_anonymous_args = 0
	stmfd	sp!, {r4, r5, r6, r7, r8, lr}
	mov	r5, r0
	sub	sp, sp, #8
	mov	r0, r1
	mov	r1, r2
	mov	r4, r2
	bl	_ZN9TiXmlBase14SkipWhiteSpaceEPKc13TiXmlEncoding
	subs	r6, r0, #0
	bne	.L589
.L575:
	mov	r4, #0
.L587:
	mov	r0, r4
	add	sp, sp, #8
	ldmfd	sp!, {r4, r5, r6, r7, r8, pc}
.L589:
	ldrb	r3, [r6, #0]	@ zero_extendqisi2
	cmp	r3, #0
	beq	.L575
	cmp	r3, #60
	bne	.L575
	mov	r0, r5
	bl	_ZNK9TiXmlNode11GetDocumentEv
	mov	r1, r4
	mov	r8, r0
	mov	r0, r6
	bl	_ZN9TiXmlBase14SkipWhiteSpaceEPKc13TiXmlEncoding
	subs	r6, r0, #0
	beq	.L575
	ldrb	r3, [r6, #0]	@ zero_extendqisi2
	cmp	r3, #0
	beq	.L575
	mov	r2, #1
	ldr	r1, .L590
	mov	r3, r4
	bl	_ZN9TiXmlBase11StringEqualEPKcS1_b13TiXmlEncoding
	subs	r2, r0, #0
	beq	.L576
	mov	r0, #56
	bl	_Znwj
	mov	r1, #5
	mov	r4, r0
	bl	_ZN9TiXmlNodeC2ENS_8NodeTypeE
	ldr	r0, .L590+4
	ldr	r2, .L590+8
	str	r2, [r4, #0]
	str	r0, [r4, #52]
	str	r0, [r4, #44]
	str	r0, [r4, #48]
.L579:
	cmp	r4, #0
	strne	r5, [r4, #16]
	bne	.L587
	cmp	r8, #0
	beq	.L587
	mov	r0, r8
	mov	r1, #3
	mov	r2, r4
	mov	r3, r4
	str	r4, [sp, #0]
	bl	_ZN13TiXmlDocument8SetErrorEiPKcP16TiXmlParsingData13TiXmlEncoding
	b	.L587
.L576:
	mov	r0, r6
	ldr	r1, .L590+12
	mov	r3, r4
	bl	_ZN9TiXmlBase11StringEqualEPKcS1_b13TiXmlEncoding
	subs	r7, r0, #0
	beq	.L580
	mov	r0, #44
	bl	_Znwj
	mov	r1, #2
	mov	r4, r0
	bl	_ZN9TiXmlNodeC2ENS_8NodeTypeE
	ldr	r1, .L590+16
	str	r1, [r4, #0]
	b	.L579
.L580:
	mov	r2, r7
	mov	r0, r6
	ldr	r1, .L590+20
	mov	r3, r4
	bl	_ZN9TiXmlBase11StringEqualEPKcS1_b13TiXmlEncoding
	subs	r2, r0, #0
	beq	.L581
	mov	r0, #48
	bl	_Znwj
	mov	r1, #4
	mov	r4, r0
	bl	_ZN9TiXmlNodeC2ENS_8NodeTypeE
	mov	r0, r4
	ldr	r3, .L590+24
	str	r3, [r0], #32
	mov	r2, r7
	ldr	r1, .L590+28
	bl	_ZN11TiXmlString6assignEPKcj
	mov	ip, #1
	strb	ip, [r4, #44]
	b	.L579
.L581:
	mov	r0, r6
	ldr	r1, .L590+32
	mov	r3, r4
	bl	_ZN9TiXmlBase11StringEqualEPKcS1_b13TiXmlEncoding
	cmp	r0, #0
	bne	.L585
	ldrb	r6, [r6, #1]	@ zero_extendqisi2
	mov	r1, r4
	mov	r0, r6
	bl	_ZN9TiXmlBase7IsAlphaEh13TiXmlEncoding
	cmp	r0, #0
	bne	.L584
	cmp	r6, #95
	beq	.L584
.L585:
	mov	r0, #44
	bl	_Znwj
	mov	r1, #3
	mov	r4, r0
	bl	_ZN9TiXmlNodeC2ENS_8NodeTypeE
	ldr	r0, .L590+36
	str	r0, [r4, #0]
	b	.L579
.L584:
	mov	r0, #80
	bl	_Znwj
	ldr	r1, .L590+28
	mov	r4, r0
	bl	_ZN12TiXmlElementC1EPKc
	b	.L579
.L591:
	.align	2
.L590:
	.word	.LC6
	.word	_ZN11TiXmlString8nullrep_E
	.word	_ZTV16TiXmlDeclaration+8
	.word	.LC1
	.word	_ZTV12TiXmlComment+8
	.word	.LC3
	.word	_ZTV9TiXmlText+8
	.word	.LC0
	.word	.LC7
	.word	_ZTV12TiXmlUnknown+8
	.size	_ZN9TiXmlNode8IdentifyEPKc13TiXmlEncoding, .-_ZN9TiXmlNode8IdentifyEPKc13TiXmlEncoding
	.section	.text._ZN12TiXmlElement9ReadValueEPKcP16TiXmlParsingData13TiXmlEncoding,"ax",%progbits
	.align	2
	.global	_ZN12TiXmlElement9ReadValueEPKcP16TiXmlParsingData13TiXmlEncoding
	.hidden	_ZN12TiXmlElement9ReadValueEPKcP16TiXmlParsingData13TiXmlEncoding
	.type	_ZN12TiXmlElement9ReadValueEPKcP16TiXmlParsingData13TiXmlEncoding, %function
_ZN12TiXmlElement9ReadValueEPKcP16TiXmlParsingData13TiXmlEncoding:
	@ args = 0, pretend = 0, frame = 24
	@ frame_needed = 0, uses_anonymous_args = 0
	stmfd	sp!, {r4, r5, r6, r7, r8, r9, sl, fp, lr}
	sub	sp, sp, #36
	mov	r7, r3
	mov	sl, r1
	mov	r8, r2
	mov	r5, r0
	bl	_ZNK9TiXmlNode11GetDocumentEv
	mov	r1, r7
	str	r0, [sp, #28]
	mov	r0, sl
	bl	_ZN9TiXmlBase14SkipWhiteSpaceEPKc13TiXmlEncoding
	subs	r6, r0, #0
	beq	.L593
	ldrb	r3, [r6, #0]	@ zero_extendqisi2
	cmp	r3, #0
	movne	r9, #0
	beq	.L594
.L595:
	cmp	r3, #60
	beq	.L641
	mov	r0, #48
	bl	_Znwj
	mov	r1, #4
	mov	r4, r0
	bl	_ZN9TiXmlNodeC2ENS_8NodeTypeE
	mov	r0, r4
	ldr	r1, .L644
	str	r1, [r0], #32
	mov	r2, #0
	ldr	r1, .L644+4
	bl	_ZN11TiXmlString6assignEPKcj
	ldr	r2, .L644+8
	strb	r9, [r4, #44]
	ldrb	r0, [r2, #0]	@ zero_extendqisi2
	ldr	r3, [r4, #0]
	cmp	r0, #0
	movne	r1, r6
	moveq	r1, sl
	ldr	ip, [r3, #12]
	mov	r0, r4
	mov	r3, r7
	mov	r2, r8
	blx	ip
	ldr	r6, [r4, #32]
	ldr	r3, [r6, #0]
	str	r3, [sp, #24]
	cmp	r3, #0
	mov	sl, r0
	beq	.L598
	ldrb	fp, [r6, #8]	@ zero_extendqisi2
	sub	r3, r3, #1
	and	lr, r3, #3
	mov	r0, fp
	str	lr, [sp, #12]
	bl	isspace
	cmp	fp, #10
	movne	ip, #0
	moveq	ip, #1
	ldr	r3, [sp, #12]
	cmp	r0, #0
	orrne	ip, ip, #1
	cmp	ip, #0
	bne	.L608
	cmp	fp, #13
	beq	.L608
.L600:
	mov	r1, r4
	mov	r0, r5
	bl	_ZN9TiXmlNode12LinkEndChildEPS_
.L602:
	mov	r0, sl
	mov	r1, r7
	bl	_ZN9TiXmlBase14SkipWhiteSpaceEPKc13TiXmlEncoding
	subs	r6, r0, #0
	beq	.L593
.L643:
	ldrb	r3, [r6, #0]	@ zero_extendqisi2
	cmp	r3, #0
	bne	.L595
.L594:
	mov	r0, r6
	add	sp, sp, #36
	ldmfd	sp!, {r4, r5, r6, r7, r8, r9, sl, fp, pc}
.L608:
	ldr	r0, [sp, #24]
	mov	fp, #1
	cmp	fp, r0
	add	r6, r6, fp
	bcs	.L598
	cmp	r3, #0
	beq	.L636
	cmp	r3, fp
	beq	.L626
	cmp	r3, #2
	beq	.L627
	ldrb	r3, [r6, #8]	@ zero_extendqisi2
	str	r3, [sp, #12]
	mov	r0, r3
	bl	isspace
	ldr	r3, [sp, #12]
	cmp	r3, #10
	movne	r2, #0
	moveq	r2, #1
	cmp	r0, #0
	orrne	r2, r2, #1
	cmp	r2, #0
	bne	.L610
	cmp	r3, #13
	bne	.L600
.L610:
	add	fp, fp, #1
	add	r6, r6, #1
.L627:
	ldrb	ip, [r6, #8]	@ zero_extendqisi2
	str	ip, [sp, #12]
	mov	r0, ip
	bl	isspace
	ldr	r3, [sp, #12]
	cmp	r3, #10
	movne	r1, #0
	moveq	r1, #1
	cmp	r0, #0
	orrne	r1, r1, #1
	cmp	r1, #0
	bne	.L613
	cmp	r3, #13
	bne	.L600
.L613:
	add	fp, fp, #1
	add	r6, r6, #1
.L626:
	ldrb	lr, [r6, #8]	@ zero_extendqisi2
	str	lr, [sp, #12]
	mov	r0, lr
	bl	isspace
	ldr	r3, [sp, #12]
	cmp	r3, #10
	movne	r2, #0
	moveq	r2, #1
	cmp	r0, #0
	orrne	r2, r2, #1
	cmp	r2, #0
	bne	.L616
	cmp	r3, #13
	bne	.L600
.L616:
	ldr	r0, [sp, #24]
	add	fp, fp, #1
	cmp	fp, r0
	add	r6, r6, #1
	bcs	.L598
.L636:
	mov	r2, r7
	mov	r3, fp
	mov	r7, r5
	mov	r5, r4
.L601:
	add	fp, r6, #1
	ldrb	r6, [r6, #8]	@ zero_extendqisi2
	add	r4, r3, #1
	mov	r0, r6
	str	r2, [sp, #16]
	bl	isspace
	cmp	r6, #10
	movne	r2, #0
	moveq	r2, #1
	cmp	r0, #0
	orrne	r2, r2, #1
	cmp	r2, #0
	ldr	r2, [sp, #16]
	bne	.L599
	cmp	r6, #13
	beq	.L599
.L639:
	mov	r4, r5
	mov	r5, r7
	mov	r7, r2
	b	.L600
.L599:
	ldrb	r6, [fp, #8]	@ zero_extendqisi2
	str	r2, [sp, #16]
	mov	r0, r6
	bl	isspace
	cmp	r6, #10
	movne	r1, #0
	moveq	r1, #1
	ldr	r2, [sp, #16]
	cmp	r0, #0
	orrne	r1, r1, #1
	cmp	r1, #0
	beq	.L629
.L619:
	ldrb	r6, [fp, #9]	@ zero_extendqisi2
	str	r2, [sp, #16]
	mov	r0, r6
	bl	isspace
	cmp	r6, #10
	movne	r3, #0
	moveq	r3, #1
	ldr	r2, [sp, #16]
	cmp	r0, #0
	orrne	r3, r3, #1
	cmp	r3, #0
	beq	.L642
.L621:
	ldrb	r1, [fp, #10]	@ zero_extendqisi2
	add	r6, r4, #3
	mov	r0, r1
	str	r1, [sp, #20]
	str	r2, [sp, #16]
	str	r6, [sp, #12]
	bl	isspace
	ldr	r1, [sp, #20]
	add	r6, fp, #3
	cmp	r1, #10
	movne	ip, #0
	moveq	ip, #1
	ldr	r2, [sp, #16]
	ldr	r3, [sp, #12]
	cmp	r0, #0
	moveq	r4, ip
	orrne	r4, ip, #1
	cmp	r4, #0
	bne	.L623
	cmp	r1, #13
	bne	.L639
.L623:
	ldr	lr, [sp, #24]
	cmp	r3, lr
	bcc	.L601
	mov	r4, r5
	mov	r5, r7
	mov	r7, r2
.L598:
	ldr	lr, [r4, #0]
	mov	r0, r4
	ldr	ip, [lr, #4]
	blx	ip
	mov	r0, sl
	mov	r1, r7
	bl	_ZN9TiXmlBase14SkipWhiteSpaceEPKc13TiXmlEncoding
	subs	r6, r0, #0
	bne	.L643
.L593:
	ldr	r1, [sp, #28]
	cmp	r1, #0
	beq	.L603
	mov	r2, #0
	mov	r0, r1
	mov	r3, r2
	mov	r1, #6
	str	r7, [sp, #0]
	mov	r6, #0
	bl	_ZN13TiXmlDocument8SetErrorEiPKcP16TiXmlParsingData13TiXmlEncoding
	b	.L594
.L641:
	mov	r0, r6
	ldr	r1, .L644+12
	mov	r2, #0
	mov	r3, r7
	bl	_ZN9TiXmlBase11StringEqualEPKcS1_b13TiXmlEncoding
	cmp	r0, #0
	bne	.L594
	mov	r0, r5
	mov	r1, r6
	mov	r2, r7
	bl	_ZN9TiXmlNode8IdentifyEPKc13TiXmlEncoding
	subs	r4, r0, #0
	beq	.L603
	ldr	sl, [r4, #0]
	mov	r1, r6
	mov	r2, r8
	ldr	r6, [sl, #12]
	mov	r3, r7
	blx	r6
	mov	r1, r4
	mov	sl, r0
	mov	r0, r5
	bl	_ZN9TiXmlNode12LinkEndChildEPS_
	b	.L602
.L629:
	cmp	r6, #13
	bne	.L639
	b	.L619
.L642:
	cmp	r6, #13
	bne	.L639
	b	.L621
.L603:
	mov	r6, #0
	b	.L594
.L645:
	.align	2
.L644:
	.word	_ZTV9TiXmlText+8
	.word	.LC0
	.word	_ZN9TiXmlBase18condenseWhiteSpaceE
	.word	.LC8
	.size	_ZN12TiXmlElement9ReadValueEPKcP16TiXmlParsingData13TiXmlEncoding, .-_ZN12TiXmlElement9ReadValueEPKcP16TiXmlParsingData13TiXmlEncoding
	.section	.text._ZN13TiXmlDocument5ParseEPKcP16TiXmlParsingData13TiXmlEncoding,"ax",%progbits
	.align	2
	.global	_ZN13TiXmlDocument5ParseEPKcP16TiXmlParsingData13TiXmlEncoding
	.hidden	_ZN13TiXmlDocument5ParseEPKcP16TiXmlParsingData13TiXmlEncoding
	.type	_ZN13TiXmlDocument5ParseEPKcP16TiXmlParsingData13TiXmlEncoding, %function
_ZN13TiXmlDocument5ParseEPKcP16TiXmlParsingData13TiXmlEncoding:
	@ args = 0, pretend = 0, frame = 16
	@ frame_needed = 0, uses_anonymous_args = 0
	stmfd	sp!, {r4, r5, r6, r7, r8, sl, lr}
	mov	r6, #0
	add	sl, r0, #52
	mov	r7, r0
	mov	r5, r1
	strb	r6, [r0, #44]
	str	r6, [r0, #48]
	sub	sp, sp, #28
	mov	r8, r2
	mov	r0, sl
	ldr	r1, .L670
	mov	r2, r6
	mov	r4, r3
	bl	_ZN11TiXmlString6assignEPKcj
	cmp	r5, r6
	str	r6, [r7, #60]
	str	r6, [r7, #64]
	beq	.L647
	ldrb	r3, [r5, #0]	@ zero_extendqisi2
	cmp	r3, r6
	beq	.L647
	cmp	r8, #0
	mvn	lr, #0
	str	lr, [r7, #4]
	str	lr, [r7, #8]
	moveq	lr, r8
	streq	r8, [r7, #4]
	streq	r8, [r7, #8]
	ldrne	lr, [r8, #4]
	ldrne	r2, [r8, #0]
	moveq	r2, lr
	add	r8, sp, #8
	strne	r2, [r7, #4]
	strne	lr, [r7, #8]
	str	r2, [sp, #8]
	str	lr, [sp, #12]
	ldmia	r8, {r0, r1}
	ldr	r6, [r7, #56]
	add	ip, r7, #4
	cmp	r4, #0
	stmia	ip, {r0, r1}
	str	r6, [sp, #20]
	str	r5, [sp, #16]
	beq	.L665
.L654:
	mov	r0, r5
	mov	r1, r4
	bl	_ZN9TiXmlBase14SkipWhiteSpaceEPKc13TiXmlEncoding
	subs	r6, r0, #0
	beq	.L655
.L664:
	ldrb	r3, [r6, #0]	@ zero_extendqisi2
	cmp	r3, #0
	bne	.L666
.L656:
	ldr	r5, [r7, #24]
	cmp	r5, #0
	beq	.L667
.L650:
	mov	r0, r6
	add	sp, sp, #28
	ldmfd	sp!, {r4, r5, r6, r7, r8, sl, pc}
.L666:
	mov	r1, r6
	mov	r2, r4
	mov	r0, r7
	bl	_ZN9TiXmlNode8IdentifyEPKc13TiXmlEncoding
	mov	r1, r6
	mov	r3, r4
	mov	r2, r8
	subs	r5, r0, #0
	beq	.L656
	ldr	ip, [r5, #0]
	ldr	r6, [ip, #12]
	blx	r6
	mov	r1, r5
	mov	r6, r0
	mov	r0, r7
	bl	_ZN9TiXmlNode12LinkEndChildEPS_
	cmp	r4, #0
	beq	.L668
.L658:
	mov	r0, r6
	mov	r1, r4
	bl	_ZN9TiXmlBase14SkipWhiteSpaceEPKc13TiXmlEncoding
	subs	r6, r0, #0
	bne	.L664
	b	.L656
.L668:
	ldr	r2, [r5, #0]
	mov	r0, r5
	ldr	r1, [r2, #60]
	blx	r1
	cmp	r0, #0
	mov	r0, r5
	beq	.L658
	ldr	lr, [r5, #0]
	ldr	r5, [lr, #60]
	blx	r5
	ldr	r5, [r0, #48]
	ldrb	r0, [r5, #8]	@ zero_extendqisi2
	cmp	r0, #0
	bne	.L669
.L659:
	mov	r4, #1
	b	.L658
.L669:
	add	r5, r5, #8
	mov	r3, r4
	ldr	r1, .L670+4
	mov	r2, #1
	mov	r0, r5
	bl	_ZN9TiXmlBase11StringEqualEPKcS1_b13TiXmlEncoding
	cmp	r0, #0
	bne	.L659
	mov	r3, r4
	mov	r0, r5
	ldr	r1, .L670+8
	mov	r2, #1
	bl	_ZN9TiXmlBase11StringEqualEPKcS1_b13TiXmlEncoding
	mov	r4, #2
	cmp	r0, #0
	movne	r4, #1
	b	.L658
.L665:
	ldrb	r3, [r5, #0]	@ zero_extendqisi2
	cmp	r3, #239
	bne	.L654
	ldrb	r3, [r5, #1]	@ zero_extendqisi2
	cmp	r3, #0
	beq	.L654
	cmp	r3, #187
	bne	.L654
	ldrb	r3, [r5, #2]	@ zero_extendqisi2
	cmp	r3, #0
	beq	.L654
	cmp	r3, #191
	moveq	r3, #1
	moveq	r4, r3
	streqb	r3, [r7, #68]
	b	.L654
.L647:
	ldrb	r6, [r7, #44]	@ zero_extendqisi2
	cmp	r6, #0
	movne	r6, #0
	bne	.L650
	ldr	r1, .L670+12
	mov	r2, #13
	mov	r4, #1
	str	r2, [r7, #48]
	strb	r4, [r7, #44]
	ldr	r4, [r1, #52]
	mov	r0, r4
	bl	strlen
	mov	r1, r4
	mov	r2, r0
	mov	r0, sl
	bl	_ZN11TiXmlString6assignEPKcj
	mvn	r0, #0
	str	r0, [r7, #60]
	str	r0, [r7, #64]
	b	.L650
.L667:
	mov	r0, r7
	mov	r1, #13
	mov	r2, r5
	mov	r3, r5
	str	r4, [sp, #0]
	mov	r6, r5
	bl	_ZN13TiXmlDocument8SetErrorEiPKcP16TiXmlParsingData13TiXmlEncoding
	b	.L650
.L655:
	mov	r0, r7
	mov	r1, #13
	mov	r2, r6
	mov	r3, r6
	str	r6, [sp, #0]
	bl	_ZN13TiXmlDocument8SetErrorEiPKcP16TiXmlParsingData13TiXmlEncoding
	b	.L650
.L671:
	.align	2
.L670:
	.word	.LC0
	.word	.LC9
	.word	.LC10
	.word	_ZN9TiXmlBase11errorStringE
	.size	_ZN13TiXmlDocument5ParseEPKcP16TiXmlParsingData13TiXmlEncoding, .-_ZN13TiXmlDocument5ParseEPKcP16TiXmlParsingData13TiXmlEncoding
	.section	.text._ZN14TiXmlAttribute5ParseEPKcP16TiXmlParsingData13TiXmlEncoding,"ax",%progbits
	.align	2
	.global	_ZN14TiXmlAttribute5ParseEPKcP16TiXmlParsingData13TiXmlEncoding
	.hidden	_ZN14TiXmlAttribute5ParseEPKcP16TiXmlParsingData13TiXmlEncoding
	.type	_ZN14TiXmlAttribute5ParseEPKcP16TiXmlParsingData13TiXmlEncoding, %function
_ZN14TiXmlAttribute5ParseEPKcP16TiXmlParsingData13TiXmlEncoding:
	@ args = 0, pretend = 0, frame = 8
	@ frame_needed = 0, uses_anonymous_args = 0
	stmfd	sp!, {r4, r5, r6, r7, r8, r9, sl, fp, lr}
	mov	sl, r0
	sub	sp, sp, #20
	mov	r0, r1
	mov	r1, r3
	mov	r4, r3
	mov	r7, r2
	bl	_ZN9TiXmlBase14SkipWhiteSpaceEPKc13TiXmlEncoding
	subs	r6, r0, #0
	bne	.L717
.L673:
	mov	r0, r6
	add	sp, sp, #20
	ldmfd	sp!, {r4, r5, r6, r7, r8, r9, sl, fp, pc}
.L717:
	ldrb	r3, [r6, #0]	@ zero_extendqisi2
	cmp	r3, #0
	beq	.L674
	cmp	r7, #0
	beq	.L675
	ldr	r8, [r7, #12]
	cmp	r8, #0
	ble	.L676
	ldr	r5, [r7, #8]
	ldr	r9, [r7, #0]
	cmp	r6, r5
	ldr	r0, [r7, #4]
	bls	.L677
	ldr	fp, .L724
.L706:
	ldrb	r3, [r5, #0]	@ zero_extendqisi2
	cmp	r3, #10
	beq	.L680
	bhi	.L683
	cmp	r3, #0
	beq	.L676
	cmp	r3, #9
	beq	.L718
.L678:
	cmp	r4, #1
	beq	.L719
.L690:
	add	r5, r5, #1
	add	r0, r0, #1
.L685:
	cmp	r6, r5
	bhi	.L706
.L677:
	str	r9, [r7, #0]
	stmib	r7, {r0, r5}	@ phole stm
.L676:
	ldmia	r7, {r0, r1}
	add	lr, sl, #4
	stmia	lr, {r0, r1}
.L675:
	mov	r0, r6
	add	r1, sl, #20
	mov	r2, r4
	bl	_ZN9TiXmlBase8ReadNameEPKcP11TiXmlString13TiXmlEncoding
	subs	r3, r0, #0
	beq	.L698
	ldrb	r3, [r3, #0]	@ zero_extendqisi2
	cmp	r3, #0
	beq	.L698
	mov	r1, r4
	bl	_ZN9TiXmlBase14SkipWhiteSpaceEPKc13TiXmlEncoding
	subs	r2, r0, #0
	beq	.L696
	ldrb	r3, [r2, #0]	@ zero_extendqisi2
	cmp	r3, #0
	beq	.L696
	cmp	r3, #61
	bne	.L696
	add	r0, r2, #1
	mov	r1, r4
	bl	_ZN9TiXmlBase14SkipWhiteSpaceEPKc13TiXmlEncoding
	subs	r6, r0, #0
	beq	.L698
	ldrb	r3, [r6, #0]	@ zero_extendqisi2
	cmp	r3, #0
	beq	.L698
	cmp	r3, #39
	beq	.L720
	cmp	r3, #34
	beq	.L721
	add	r9, sl, #24
	mov	r0, r9
	ldr	r1, .L724+4
	mov	r2, #0
	bl	_ZN11TiXmlString6assignEPKcj
	ldrb	r8, [r6, #0]	@ zero_extendqisi2
	cmp	r8, #0
	beq	.L673
	add	fp, sp, #15
	b	.L708
.L709:
	strb	r8, [sp, #15]
	bl	_ZN11TiXmlString6appendEPKcj
	adds	r6, r6, #1
	beq	.L673
	ldrb	r8, [r6, #0]	@ zero_extendqisi2
	cmp	r8, #0
	beq	.L673
.L708:
	mov	r0, r8
	bl	isspace
	subs	r0, r0, #0
	movne	r0, #1
	cmp	r8, #10
	movne	r5, r0
	orreq	r5, r0, #1
	cmp	r5, #0
	bne	.L673
	cmp	r8, #13
	beq	.L673
	cmp	r8, #47
	mov	r0, r9
	mov	r1, fp
	mov	r2, #1
	beq	.L673
	cmp	r8, #62
	beq	.L673
	cmp	r8, #39
	cmpne	r8, #34
	bne	.L709
	ldr	r0, [sl, #16]
	cmp	r0, #0
	beq	.L674
	mov	r2, r6
	mov	r3, r7
	mov	r1, #7
	str	r4, [sp, #0]
	mov	r6, r5
	bl	_ZN13TiXmlDocument8SetErrorEiPKcP16TiXmlParsingData13TiXmlEncoding
	b	.L673
.L698:
	ldr	r0, [sl, #16]
	cmp	r0, #0
	bne	.L722
.L674:
	mov	r6, #0
	b	.L673
.L683:
	cmp	r3, #13
	beq	.L681
	cmp	r3, #239
	bne	.L678
	cmp	r4, #1
	bne	.L690
	ldrb	r3, [r5, #1]	@ zero_extendqisi2
	cmp	r3, #0
	beq	.L685
	ldrb	r2, [r5, #2]	@ zero_extendqisi2
	cmp	r2, #0
	beq	.L685
	cmp	r3, #187
	beq	.L689
	cmp	r3, #191
	beq	.L723
.L688:
	add	r5, r5, #3
	add	r0, r0, #1
	b	.L685
.L681:
	ldrb	r0, [r5, #1]!	@ zero_extendqisi2
	add	r9, r9, #1
	cmp	r0, #10
	beq	.L710
.L684:
	mov	r0, #0
	b	.L685
.L680:
	ldrb	r1, [r5, #1]!	@ zero_extendqisi2
	add	r9, r9, #1
	cmp	r1, #13
	bne	.L684
.L710:
	add	r5, r5, #1
	mov	r0, #0
	b	.L685
.L718:
	mov	r1, r8
	bl	__aeabi_idiv
	add	r5, r5, #1
	mla	r0, r8, r0, r8
	b	.L685
.L696:
	ldr	r0, [sl, #16]
	cmp	r0, #0
	beq	.L674
.L714:
	mov	r3, r7
	mov	r1, #7
	str	r4, [sp, #0]
	mov	r6, #0
	bl	_ZN13TiXmlDocument8SetErrorEiPKcP16TiXmlParsingData13TiXmlEncoding
	b	.L673
.L719:
	add	ip, fp, r3, asl #2
	ldr	r2, [ip, #28]
	add	r0, r0, #1
	cmp	r2, #0
	moveq	r2, #1
	add	r5, r5, r2
	b	.L685
.L721:
	add	r0, r6, #1
	add	r1, sl, #24
	mov	r2, #0
	ldr	r3, .L724+8
	str	r4, [sp, #0]
	bl	T.135
	mov	r6, r0
	b	.L673
.L722:
	mov	r2, r6
	b	.L714
.L720:
	add	r0, r6, #1
	add	r1, sl, #24
	mov	r2, #0
	ldr	r3, .L724+12
	str	r4, [sp, #0]
	bl	T.135
	mov	r6, r0
	b	.L673
.L723:
	cmp	r2, #190
	beq	.L712
.L689:
	cmp	r2, #191
	bne	.L688
.L712:
	add	r5, r5, #3
	b	.L685
.L725:
	.align	2
.L724:
	.word	.LANCHOR0
	.word	.LC0
	.word	.LC12
	.word	.LC11
	.size	_ZN14TiXmlAttribute5ParseEPKcP16TiXmlParsingData13TiXmlEncoding, .-_ZN14TiXmlAttribute5ParseEPKcP16TiXmlParsingData13TiXmlEncoding
	.section	.text._ZN16TiXmlDeclaration5ParseEPKcP16TiXmlParsingData13TiXmlEncoding,"ax",%progbits
	.align	2
	.global	_ZN16TiXmlDeclaration5ParseEPKcP16TiXmlParsingData13TiXmlEncoding
	.hidden	_ZN16TiXmlDeclaration5ParseEPKcP16TiXmlParsingData13TiXmlEncoding
	.type	_ZN16TiXmlDeclaration5ParseEPKcP16TiXmlParsingData13TiXmlEncoding, %function
_ZN16TiXmlDeclaration5ParseEPKcP16TiXmlParsingData13TiXmlEncoding:
	@ args = 0, pretend = 0, frame = 56
	@ frame_needed = 0, uses_anonymous_args = 0
	stmfd	sp!, {r4, r5, r6, r7, r8, r9, sl, fp, lr}
	mov	r4, r0
	sub	sp, sp, #60
	mov	r0, r1
	mov	r1, r3
	mov	r6, r3
	str	r2, [sp, #0]
	bl	_ZN9TiXmlBase14SkipWhiteSpaceEPKc13TiXmlEncoding
	mov	r5, r0
	mov	r0, r4
	bl	_ZNK9TiXmlNode11GetDocumentEv
	cmp	r5, #0
	mov	r7, r0
	beq	.L727
	ldrb	r3, [r5, #0]	@ zero_extendqisi2
	cmp	r3, #0
	bne	.L815
.L727:
	cmp	r7, #0
	beq	.L729
	ldrb	r4, [r7, #44]	@ zero_extendqisi2
	cmp	r4, #0
	beq	.L816
.L729:
	mov	r4, #0
	b	.L730
.L815:
	mov	r0, r5
	ldr	r1, .L820
	mov	r2, #1
	mov	r3, r6
	bl	_ZN9TiXmlBase11StringEqualEPKcS1_b13TiXmlEncoding
	cmp	r0, #0
	beq	.L727
	ldr	r3, [sp, #0]
	cmp	r3, #0
	beq	.L769
	ldr	r8, [r3, #12]
	cmp	r8, #0
	ble	.L731
	ldr	r7, [r3, #8]
	ldr	sl, [r3, #0]
	cmp	r5, r7
	ldr	r0, [r3, #4]
	bls	.L732
	ldr	r9, .L820+4
.L773:
	ldrb	r3, [r7, #0]	@ zero_extendqisi2
	cmp	r3, #10
	beq	.L735
	bhi	.L738
	cmp	r3, #0
	beq	.L731
	cmp	r3, #9
	beq	.L817
.L733:
	cmp	r6, #1
	beq	.L818
.L745:
	add	r7, r7, #1
	add	r0, r0, #1
.L740:
	cmp	r5, r7
	bhi	.L773
.L732:
	ldr	r2, [sp, #0]
	str	sl, [r2, #0]
	stmib	r2, {r0, r7}	@ phole stm
.L731:
	ldr	lr, [sp, #0]
	add	ip, r4, #4
	ldmia	lr, {r0, r1}
	stmia	ip, {r0, r1}
.L769:
	add	ip, r4, #44
	add	r3, r4, #48
	mov	r0, ip
	ldr	r1, .L820+8
	mov	r2, #0
	str	ip, [sp, #4]
	str	r3, [sp, #8]
	add	r4, r4, #52
	bl	_ZN11TiXmlString6assignEPKcj
	ldr	r1, .L820+8
	mov	r2, #0
	ldr	r0, [sp, #8]
	str	r4, [sp, #12]
	bl	_ZN11TiXmlString6assignEPKcj
	add	r4, r5, #5
	ldr	r0, [sp, #12]
	ldr	r1, .L820+8
	mov	r2, #0
	bl	_ZN11TiXmlString6assignEPKcj
	cmp	r4, #0
	beq	.L730
	ldrb	r3, [r5, #5]	@ zero_extendqisi2
	cmp	r3, #0
	beq	.L729
	cmp	r3, #62
	beq	.L767
	ldr	sl, .L820+12
	ldr	r5, .L820+16
	mov	r7, r6
	mvn	r9, #0
	mov	r8, #0
	mov	r6, r4
.L782:
	mov	r0, r6
	mov	r1, r7
	bl	_ZN9TiXmlBase14SkipWhiteSpaceEPKc13TiXmlEncoding
	ldr	r1, .L820+20
	mov	r2, #1
	mov	r3, r7
	mov	r6, r0
	bl	_ZN9TiXmlBase11StringEqualEPKcS1_b13TiXmlEncoding
	subs	fp, r0, #0
	beq	.L750
	mov	r1, r6
	ldr	r2, [sp, #0]
	mov	r3, r7
	add	r0, sp, #20
	str	r9, [sp, #28]
	str	r9, [sp, #24]
	str	r8, [sp, #32]
	str	sl, [sp, #20]
	str	r5, [sp, #40]
	str	r5, [sp, #44]
	str	r8, [sp, #36]
	str	r8, [sp, #52]
	str	r8, [sp, #48]
	bl	_ZN14TiXmlAttribute5ParseEPKcP16TiXmlParsingData13TiXmlEncoding
	mov	r6, r0
	ldr	r0, [sp, #44]
	add	r4, r0, #8
	mov	r0, r4
	bl	strlen
	mov	r2, r0
	ldr	r0, [sp, #4]
.L813:
	mov	r1, r4
	bl	_ZN11TiXmlString6assignEPKcj
	ldr	r0, [sp, #44]
	str	sl, [sp, #20]
	cmp	r0, r5
	beq	.L761
	cmp	r0, #0
	beq	.L761
	bl	_ZdaPv
.L761:
	ldr	r0, [sp, #40]
	cmp	r0, r5
	beq	.L762
	cmp	r0, #0
	beq	.L762
	bl	_ZdaPv
.L762:
	ldr	lr, .L820+24
	str	lr, [sp, #20]
.L754:
	cmp	r6, #0
	beq	.L786
	ldrb	r3, [r6, #0]	@ zero_extendqisi2
	cmp	r3, #0
	beq	.L729
	cmp	r3, #62
	bne	.L782
.L794:
	mov	r4, r6
.L767:
	add	r4, r4, #1
.L730:
	mov	r0, r4
	add	sp, sp, #60
	ldmfd	sp!, {r4, r5, r6, r7, r8, r9, sl, fp, pc}
.L750:
	mov	r0, r6
	ldr	r1, .L820+28
	mov	r2, #1
	mov	r3, r7
	bl	_ZN9TiXmlBase11StringEqualEPKcS1_b13TiXmlEncoding
	subs	r4, r0, #0
	beq	.L755
	mov	r1, r6
	ldr	r2, [sp, #0]
	mov	r3, r7
	add	r0, sp, #20
	str	fp, [sp, #48]
	str	r9, [sp, #28]
	str	r9, [sp, #24]
	str	fp, [sp, #32]
	str	sl, [sp, #20]
	str	r5, [sp, #40]
	str	r5, [sp, #44]
	str	fp, [sp, #36]
	str	fp, [sp, #52]
	bl	_ZN14TiXmlAttribute5ParseEPKcP16TiXmlParsingData13TiXmlEncoding
	ldr	r1, [sp, #44]
	add	r4, r1, #8
	mov	r6, r0
	mov	r0, r4
	bl	strlen
	mov	r2, r0
	ldr	r0, [sp, #8]
	b	.L813
.L786:
	mov	r4, r6
	b	.L730
.L738:
	cmp	r3, #13
	beq	.L736
	cmp	r3, #239
	bne	.L733
	cmp	r6, #1
	bne	.L745
	ldrb	r3, [r7, #1]	@ zero_extendqisi2
	cmp	r3, #0
	beq	.L740
	ldrb	r2, [r7, #2]	@ zero_extendqisi2
	cmp	r2, #0
	beq	.L740
	cmp	r3, #187
	beq	.L744
	cmp	r3, #191
	beq	.L819
.L743:
	add	r7, r7, #3
	add	r0, r0, #1
	b	.L740
.L755:
	mov	r0, r6
	ldr	r1, .L820+32
	mov	r2, #1
	mov	r3, r7
	bl	_ZN9TiXmlBase11StringEqualEPKcS1_b13TiXmlEncoding
	cmp	r0, #0
	bne	.L759
	cmp	r6, #0
	beq	.L786
	ldrb	r4, [r6, #0]	@ zero_extendqisi2
	cmp	r4, #0
	beq	.L729
	cmp	r4, #62
	beq	.L794
	tst	r6, #1
	moveq	r0, r4
	beq	.L780
.L779:
	mov	r0, r4
	bl	isspace
	subs	r3, r0, #0
	movne	r3, #1
	cmp	r4, #10
	orreq	r3, r3, #1
	cmp	r3, #0
	bne	.L754
	cmp	r4, #13
	beq	.L754
	adds	r6, r6, #1
	beq	.L786
	ldrb	r4, [r6, #0]	@ zero_extendqisi2
	cmp	r4, #0
	beq	.L729
	cmp	r4, #62
	mov	r0, r4
	beq	.L794
.L780:
	bl	isspace
	subs	ip, r0, #0
	movne	ip, #1
	cmp	r4, #10
	orreq	ip, ip, #1
	cmp	ip, #0
	bne	.L754
	cmp	r4, #13
	beq	.L754
	ldrb	r4, [r6, #1]!	@ zero_extendqisi2
	cmp	r4, #0
	beq	.L729
	cmp	r4, #62
	bne	.L779
	mov	r4, r6
	b	.L767
.L735:
	ldrb	lr, [r7, #1]!	@ zero_extendqisi2
	add	sl, sl, #1
	cmp	lr, #13
	beq	.L790
.L739:
	mov	r0, #0
	b	.L740
.L736:
	ldrb	ip, [r7, #1]!	@ zero_extendqisi2
	add	sl, sl, #1
	cmp	ip, #10
	bne	.L739
.L790:
	add	r7, r7, #1
	mov	r0, #0
	b	.L740
.L817:
	mov	r1, r8
	bl	__aeabi_idiv
	add	r7, r7, #1
	mla	r0, r8, r0, r8
	b	.L740
.L759:
	mov	r1, r6
	mov	r3, r7
	ldr	r2, [sp, #0]
	add	r0, sp, #20
	str	r4, [sp, #48]
	str	r4, [sp, #32]
	str	r4, [sp, #36]
	str	r4, [sp, #52]
	str	r9, [sp, #28]
	str	r9, [sp, #24]
	str	sl, [sp, #20]
	str	r5, [sp, #40]
	str	r5, [sp, #44]
	bl	_ZN14TiXmlAttribute5ParseEPKcP16TiXmlParsingData13TiXmlEncoding
	ldr	r2, [sp, #44]
	add	r4, r2, #8
	mov	r6, r0
	mov	r0, r4
	bl	strlen
	mov	r2, r0
	ldr	r0, [sp, #12]
	b	.L813
.L818:
	add	r1, r9, r3, asl #2
	ldr	r3, [r1, #28]
	add	r0, r0, #1
	cmp	r3, #0
	moveq	r3, #1
	add	r7, r7, r3
	b	.L740
.L816:
	ldr	r1, .L820+36
	mov	r2, #12
	mov	r5, #1
	str	r2, [r7, #48]
	strb	r5, [r7, #44]
	ldr	r5, [r1, #48]
	mov	r0, r5
	bl	strlen
	mov	r1, r5
	mov	r2, r0
	add	r0, r7, #52
	bl	_ZN11TiXmlString6assignEPKcj
	mvn	r0, #0
	str	r0, [r7, #60]
	str	r0, [r7, #64]
	b	.L730
.L819:
	cmp	r2, #190
	beq	.L792
.L744:
	cmp	r2, #191
	bne	.L743
.L792:
	add	r7, r7, #3
	b	.L740
.L821:
	.align	2
.L820:
	.word	.LC6
	.word	.LANCHOR0
	.word	.LC0
	.word	.LANCHOR0+1064
	.word	_ZN11TiXmlString8nullrep_E
	.word	.LC13
	.word	_ZTV9TiXmlBase+8
	.word	.LC14
	.word	.LC15
	.word	_ZN9TiXmlBase11errorStringE
	.size	_ZN16TiXmlDeclaration5ParseEPKcP16TiXmlParsingData13TiXmlEncoding, .-_ZN16TiXmlDeclaration5ParseEPKcP16TiXmlParsingData13TiXmlEncoding
	.section	.text._ZN12TiXmlElement5ParseEPKcP16TiXmlParsingData13TiXmlEncoding,"ax",%progbits
	.align	2
	.global	_ZN12TiXmlElement5ParseEPKcP16TiXmlParsingData13TiXmlEncoding
	.hidden	_ZN12TiXmlElement5ParseEPKcP16TiXmlParsingData13TiXmlEncoding
	.type	_ZN12TiXmlElement5ParseEPKcP16TiXmlParsingData13TiXmlEncoding, %function
_ZN12TiXmlElement5ParseEPKcP16TiXmlParsingData13TiXmlEncoding:
	@ args = 0, pretend = 0, frame = 24
	@ frame_needed = 0, uses_anonymous_args = 0
	stmfd	sp!, {r4, r5, r6, r7, r8, r9, sl, fp, lr}
	sub	sp, sp, #36
	str	r0, [sp, #16]
	mov	r0, r1
	mov	r1, r3
	mov	r6, r3
	mov	r5, r2
	bl	_ZN9TiXmlBase14SkipWhiteSpaceEPKc13TiXmlEncoding
	mov	r7, r0
	ldr	r0, [sp, #16]
	bl	_ZNK9TiXmlNode11GetDocumentEv
	cmp	r7, #0
	str	r0, [sp, #12]
	beq	.L823
	ldrb	r3, [r7, #0]	@ zero_extendqisi2
	cmp	r3, #0
	beq	.L823
	cmp	r5, #0
	beq	.L827
	ldr	r8, [r5, #12]
	cmp	r8, #0
	ble	.L828
	ldr	r4, [r5, #8]
	ldr	sl, [r5, #0]
	cmp	r7, r4
	ldr	r0, [r5, #4]
	bls	.L829
	ldr	r9, .L895
.L875:
	ldrb	r3, [r4, #0]	@ zero_extendqisi2
	cmp	r3, #10
	beq	.L832
	bhi	.L835
	cmp	r3, #0
	beq	.L828
	cmp	r3, #9
	beq	.L887
.L830:
	cmp	r6, #1
	beq	.L888
.L842:
	add	r4, r4, #1
	add	r0, r0, #1
.L837:
	cmp	r7, r4
	bhi	.L875
.L829:
	str	sl, [r5, #0]
	stmib	r5, {r0, r4}	@ phole stm
.L828:
	ldr	ip, [sp, #16]
	ldmia	r5, {r0, r1}
	add	sl, ip, #4
	stmia	sl, {r0, r1}
	ldrb	r3, [r7, #0]	@ zero_extendqisi2
.L827:
	cmp	r3, #60
	bne	.L889
	mov	r1, r6
	add	r0, r7, #1
	bl	_ZN9TiXmlBase14SkipWhiteSpaceEPKc13TiXmlEncoding
	ldr	lr, [sp, #16]
	mov	r2, r6
	add	r1, lr, #32
	mov	r4, r0
	bl	_ZN9TiXmlBase8ReadNameEPKcP11TiXmlString13TiXmlEncoding
	subs	sl, r0, #0
	beq	.L847
	ldrb	r3, [sl, #0]	@ zero_extendqisi2
	cmp	r3, #0
	beq	.L847
	mov	r7, #0
	mov	r0, #16
	str	r7, [sp, #28]
	bl	_Znaj
	mov	r3, #2
	add	r4, sp, #32
	ldr	r1, .L895+4
	str	r0, [sp, #28]
	str	r3, [r0, #0]
	strb	r7, [r0, #10]
	ldr	r2, [sp, #28]
	str	r3, [r2, #4]
	ldr	ip, [r4, #-4]!
	ldr	r2, [ip, #0]
	add	r0, ip, #8
	bl	memcpy
	ldr	r0, [sp, #16]
	ldr	r1, [r0, #32]
	mov	r0, r4
	ldr	r2, [r1, #0]
	add	r1, r1, #8
	bl	_ZN11TiXmlString6appendEPKcj
	mov	r0, r4
	ldr	r1, .L895+8
	mov	r2, #1
	bl	_ZN11TiXmlString6appendEPKcj
	ldrb	r9, [sl, #0]	@ zero_extendqisi2
	cmp	r9, r7
	beq	.L850
	ldr	fp, [sp, #16]
	ldr	r9, .L895+12
	add	r8, fp, #44
	str	r5, [sp, #20]
	mvn	fp, #0
	mov	r5, r8
.L851:
	mov	r1, r6
	mov	r0, sl
	bl	_ZN9TiXmlBase14SkipWhiteSpaceEPKc13TiXmlEncoding
	subs	r8, r0, #0
	mov	r0, #36
	beq	.L883
	ldrb	r3, [r8, #0]	@ zero_extendqisi2
	cmp	r3, #0
	beq	.L883
	cmp	r3, #47
	beq	.L890
	cmp	r3, #62
	beq	.L891
	bl	_Znwj
	ldr	r3, .L895+16
	ldr	lr, .L895
	mov	r1, r8
	ldr	sl, [lr, #1076]
	str	r3, [r0, #0]
	str	fp, [r0, #8]
	str	fp, [r0, #4]
	str	r7, [r0, #12]
	str	r9, [r0, #20]
	str	r9, [r0, #24]
	str	r7, [r0, #32]
	str	r7, [r0, #28]
	ldr	r2, [sp, #12]
	str	r2, [r0, #16]
	ldr	r2, [sp, #20]
	mov	r3, r6
	mov	r4, r0
	blx	sl
	subs	sl, r0, #0
	mov	r0, r5
	beq	.L868
	ldrb	r1, [sl, #0]	@ zero_extendqisi2
	cmp	r1, #0
	beq	.L868
	ldr	r8, [r4, #20]
	add	r1, r8, #8
	bl	_ZNK17TiXmlAttributeSet4FindEPKc
	mov	r1, r4
	subs	r8, r0, #0
	mov	r0, r5
	bne	.L892
	bl	_ZN17TiXmlAttributeSet3AddEP14TiXmlAttribute
	ldrb	r0, [sl, #0]	@ zero_extendqisi2
	cmp	r0, #0
	bne	.L851
	ldr	r0, [sp, #28]
.L854:
	cmp	r0, r9
	beq	.L826
	cmp	r0, #0
	beq	.L826
	bl	_ZdaPv
.L826:
	mov	r0, sl
	add	sp, sp, #36
	ldmfd	sp!, {r4, r5, r6, r7, r8, r9, sl, fp, pc}
.L835:
	cmp	r3, #13
	beq	.L833
	cmp	r3, #239
	bne	.L830
	cmp	r6, #1
	bne	.L842
	ldrb	r3, [r4, #1]	@ zero_extendqisi2
	cmp	r3, #0
	beq	.L837
	ldrb	r2, [r4, #2]	@ zero_extendqisi2
	cmp	r2, #0
	beq	.L837
	cmp	r3, #187
	beq	.L841
	cmp	r3, #191
	beq	.L893
.L840:
	add	r4, r4, #3
	add	r0, r0, #1
	b	.L837
.L833:
	ldrb	r3, [r4, #1]!	@ zero_extendqisi2
	add	sl, sl, #1
	cmp	r3, #10
	beq	.L880
.L836:
	mov	r0, #0
	b	.L837
.L832:
	ldrb	r0, [r4, #1]!	@ zero_extendqisi2
	add	sl, sl, #1
	cmp	r0, #13
	bne	.L836
.L880:
	add	r4, r4, #1
	mov	r0, #0
	b	.L837
.L887:
	mov	r1, r8
	bl	__aeabi_idiv
	add	r4, r4, #1
	mla	r0, r8, r0, r8
	b	.L837
.L889:
	ldr	r3, [sp, #12]
	cmp	r3, #0
	bne	.L894
.L825:
	mov	sl, #0
	b	.L826
.L850:
	ldr	r0, [sp, #28]
	ldr	r9, .L895+12
	b	.L854
.L847:
	ldr	r2, [sp, #12]
	cmp	r2, #0
	beq	.L825
	mov	r0, r2
	mov	r3, r5
	mov	r2, r4
	mov	r1, #5
	str	r6, [sp, #0]
	mov	sl, #0
	bl	_ZN13TiXmlDocument8SetErrorEiPKcP16TiXmlParsingData13TiXmlEncoding
	b	.L826
.L894:
	mov	r0, r3
	mov	r2, r7
	mov	r3, r5
	mov	r1, #4
	str	r6, [sp, #0]
	mov	sl, #0
	bl	_ZN13TiXmlDocument8SetErrorEiPKcP16TiXmlParsingData13TiXmlEncoding
	b	.L826
.L823:
	ldr	r2, [sp, #12]
	cmp	r2, #0
	beq	.L825
	mov	r0, r2
	mov	r2, #0
	mov	r1, #4
	mov	r3, r2
	str	r6, [sp, #0]
	mov	sl, #0
	bl	_ZN13TiXmlDocument8SetErrorEiPKcP16TiXmlParsingData13TiXmlEncoding
	b	.L826
.L888:
	add	r2, r9, r3, asl #2
	ldr	r1, [r2, #28]
	add	r0, r0, #1
	cmp	r1, #0
	moveq	r1, #1
	add	r4, r4, r1
	b	.L837
.L868:
	ldr	r2, [sp, #12]
	ldr	r5, [sp, #20]
	cmp	r2, #0
	beq	.L870
	mov	r0, r2
	mov	r3, r5
	mov	r2, r8
	mov	r1, #4
	str	r6, [sp, #0]
	bl	_ZN13TiXmlDocument8SetErrorEiPKcP16TiXmlParsingData13TiXmlEncoding
.L870:
	ldr	sl, [r4, #0]
	mov	r0, r4
	ldr	ip, [sl, #4]
	blx	ip
	mov	sl, #0
	ldr	r0, [sp, #28]
	b	.L854
.L883:
	ldr	r2, [sp, #12]
	ldr	r5, [sp, #20]
	cmp	r2, #0
	beq	.L884
	mov	r0, r2
	mov	r3, r5
	mov	r2, sl
	mov	r1, #7
	str	r6, [sp, #0]
	mov	sl, #0
	bl	_ZN13TiXmlDocument8SetErrorEiPKcP16TiXmlParsingData13TiXmlEncoding
	ldr	r0, [sp, #28]
	b	.L854
.L884:
	mov	sl, r2
	ldr	r0, [sp, #28]
	b	.L854
.L890:
	ldrb	sl, [r8, #1]	@ zero_extendqisi2
	ldr	r5, [sp, #20]
	cmp	sl, #62
	add	r2, r8, #1
	beq	.L856
	ldr	r3, [sp, #12]
	cmp	r3, #0
	beq	.L885
	mov	r0, r3
	mov	r1, #8
	mov	r3, r5
	str	r6, [sp, #0]
	mov	sl, #0
	bl	_ZN13TiXmlDocument8SetErrorEiPKcP16TiXmlParsingData13TiXmlEncoding
	ldr	r0, [sp, #28]
	b	.L854
.L891:
	ldr	r5, [sp, #20]
	ldr	r0, [sp, #16]
	add	r1, r8, #1
	mov	r2, r5
	mov	r3, r6
	bl	_ZN12TiXmlElement9ReadValueEPKcP16TiXmlParsingData13TiXmlEncoding
	subs	r4, r0, #0
	beq	.L859
	ldrb	lr, [r4, #0]	@ zero_extendqisi2
	cmp	lr, #0
	bne	.L860
.L859:
	ldr	r2, [sp, #12]
	cmp	r2, #0
	beq	.L884
	mov	r0, r2
	mov	r3, r5
	mov	r2, r4
	mov	r1, #9
	str	r6, [sp, #0]
	mov	sl, #0
	bl	_ZN13TiXmlDocument8SetErrorEiPKcP16TiXmlParsingData13TiXmlEncoding
	ldr	r0, [sp, #28]
	b	.L854
.L892:
	ldr	r5, [r4, #24]
	mov	sl, r7
	add	r5, r5, #8
	mov	r0, r5
	bl	strlen
	mov	r1, r5
	mov	r2, r0
	add	r0, r8, #24
	bl	_ZN11TiXmlString6assignEPKcj
	ldr	r3, [r4, #0]
	mov	r0, r4
	ldr	r2, [r3, #4]
	blx	r2
	ldr	r0, [sp, #28]
	b	.L854
.L893:
	cmp	r2, #190
	beq	.L882
.L841:
	cmp	r2, #191
	bne	.L840
.L882:
	add	r4, r4, #3
	b	.L837
.L856:
	add	sl, r2, #1
	ldr	r0, [sp, #28]
	b	.L854
.L885:
	mov	sl, r3
	ldr	r0, [sp, #28]
	b	.L854
.L860:
	ldr	r1, [sp, #28]
	mov	r2, #0
	add	r1, r1, #8
	mov	r3, r6
	bl	_ZN9TiXmlBase11StringEqualEPKcS1_b13TiXmlEncoding
	subs	sl, r0, #0
	ldrne	r0, [sp, #28]
	ldrne	ip, [r0, #0]
	addne	sl, r4, ip
	bne	.L854
.L862:
	ldr	r3, [sp, #12]
	cmp	r3, #0
	beq	.L885
	mov	r0, r3
	mov	r2, r4
	mov	r3, r5
	mov	r1, #9
	str	r6, [sp, #0]
	bl	_ZN13TiXmlDocument8SetErrorEiPKcP16TiXmlParsingData13TiXmlEncoding
	ldr	r0, [sp, #28]
	b	.L854
.L896:
	.align	2
.L895:
	.word	.LANCHOR0
	.word	.LC8
	.word	.LC16
	.word	_ZN11TiXmlString8nullrep_E
	.word	.LANCHOR0+1064
	.size	_ZN12TiXmlElement5ParseEPKcP16TiXmlParsingData13TiXmlEncoding, .-_ZN12TiXmlElement5ParseEPKcP16TiXmlParsingData13TiXmlEncoding
	.hidden	_ZN9TiXmlBase6entityE
	.global	_ZN9TiXmlBase6entityE
	.hidden	_ZN9TiXmlBase13utf8ByteTableE
	.global	_ZN9TiXmlBase13utf8ByteTableE
	.hidden	_ZTV13TiXmlDocument
	.global	_ZTV13TiXmlDocument
	.hidden	_ZTV14TiXmlAttribute
	.global	_ZTV14TiXmlAttribute
	.hidden	_ZTS13TiXmlDocument
	.global	_ZTS13TiXmlDocument
	.hidden	_ZTI13TiXmlDocument
	.global	_ZTI13TiXmlDocument
	.hidden	_ZTS14TiXmlAttribute
	.global	_ZTS14TiXmlAttribute
	.hidden	_ZTI14TiXmlAttribute
	.global	_ZTI14TiXmlAttribute
	.hidden	_ZTI9TiXmlBase
	.weak	_ZTI9TiXmlBase
	.section	.rodata._ZTI9TiXmlBase,"aG",%progbits,_ZTI9TiXmlBase,comdat
	.align	2
	.type	_ZTI9TiXmlBase, %object
	.size	_ZTI9TiXmlBase, 8
_ZTI9TiXmlBase:
	.word	_ZTVN10__cxxabiv117__class_type_infoE+8
	.word	_ZTS9TiXmlBase
	.hidden	_ZTS9TiXmlBase
	.weak	_ZTS9TiXmlBase
	.section	.rodata._ZTS9TiXmlBase,"aG",%progbits,_ZTS9TiXmlBase,comdat
	.align	2
	.type	_ZTS9TiXmlBase, %object
	.size	_ZTS9TiXmlBase, 11
_ZTS9TiXmlBase:
	.ascii	"9TiXmlBase\000"
	.hidden	_ZTV9TiXmlBase
	.weak	_ZTV9TiXmlBase
	.section	.rodata._ZTV9TiXmlBase,"aG",%progbits,_ZTV9TiXmlBase,comdat
	.align	3
	.type	_ZTV9TiXmlBase, %object
	.size	_ZTV9TiXmlBase, 24
_ZTV9TiXmlBase:
	.word	0
	.word	_ZTI9TiXmlBase
	.word	_ZN9TiXmlBaseD1Ev
	.word	_ZN9TiXmlBaseD0Ev
	.word	__cxa_pure_virtual
	.word	__cxa_pure_virtual
	.section	.rodata
	.align	3
	.set	.LANCHOR0,. + 0
	.type	_ZZN9TiXmlBase18ConvertUTF32ToUTF8EmPcPiE4C.20, %object
	.size	_ZZN9TiXmlBase18ConvertUTF32ToUTF8EmPcPiE4C.20, 28
_ZZN9TiXmlBase18ConvertUTF32ToUTF8EmPcPiE4C.20:
	.word	0
	.word	0
	.word	192
	.word	224
	.word	240
	.word	248
	.word	252
	.type	_ZN9TiXmlBase13utf8ByteTableE, %object
	.size	_ZN9TiXmlBase13utf8ByteTableE, 1024
_ZN9TiXmlBase13utf8ByteTableE:
	.word	1
	.word	1
	.word	1
	.word	1
	.word	1
	.word	1
	.word	1
	.word	1
	.word	1
	.word	1
	.word	1
	.word	1
	.word	1
	.word	1
	.word	1
	.word	1
	.word	1
	.word	1
	.word	1
	.word	1
	.word	1
	.word	1
	.word	1
	.word	1
	.word	1
	.word	1
	.word	1
	.word	1
	.word	1
	.word	1
	.word	1
	.word	1
	.word	1
	.word	1
	.word	1
	.word	1
	.word	1
	.word	1
	.word	1
	.word	1
	.word	1
	.word	1
	.word	1
	.word	1
	.word	1
	.word	1
	.word	1
	.word	1
	.word	1
	.word	1
	.word	1
	.word	1
	.word	1
	.word	1
	.word	1
	.word	1
	.word	1
	.word	1
	.word	1
	.word	1
	.word	1
	.word	1
	.word	1
	.word	1
	.word	1
	.word	1
	.word	1
	.word	1
	.word	1
	.word	1
	.word	1
	.word	1
	.word	1
	.word	1
	.word	1
	.word	1
	.word	1
	.word	1
	.word	1
	.word	1
	.word	1
	.word	1
	.word	1
	.word	1
	.word	1
	.word	1
	.word	1
	.word	1
	.word	1
	.word	1
	.word	1
	.word	1
	.word	1
	.word	1
	.word	1
	.word	1
	.word	1
	.word	1
	.word	1
	.word	1
	.word	1
	.word	1
	.word	1
	.word	1
	.word	1
	.word	1
	.word	1
	.word	1
	.word	1
	.word	1
	.word	1
	.word	1
	.word	1
	.word	1
	.word	1
	.word	1
	.word	1
	.word	1
	.word	1
	.word	1
	.word	1
	.word	1
	.word	1
	.word	1
	.word	1
	.word	1
	.word	1
	.word	1
	.word	1
	.word	1
	.word	1
	.word	1
	.word	1
	.word	1
	.word	1
	.word	1
	.word	1
	.word	1
	.word	1
	.word	1
	.word	1
	.word	1
	.word	1
	.word	1
	.word	1
	.word	1
	.word	1
	.word	1
	.word	1
	.word	1
	.word	1
	.word	1
	.word	1
	.word	1
	.word	1
	.word	1
	.word	1
	.word	1
	.word	1
	.word	1
	.word	1
	.word	1
	.word	1
	.word	1
	.word	1
	.word	1
	.word	1
	.word	1
	.word	1
	.word	1
	.word	1
	.word	1
	.word	1
	.word	1
	.word	1
	.word	1
	.word	1
	.word	1
	.word	1
	.word	1
	.word	1
	.word	1
	.word	1
	.word	1
	.word	1
	.word	1
	.word	1
	.word	1
	.word	1
	.word	1
	.word	1
	.word	1
	.word	1
	.word	1
	.word	2
	.word	2
	.word	2
	.word	2
	.word	2
	.word	2
	.word	2
	.word	2
	.word	2
	.word	2
	.word	2
	.word	2
	.word	2
	.word	2
	.word	2
	.word	2
	.word	2
	.word	2
	.word	2
	.word	2
	.word	2
	.word	2
	.word	2
	.word	2
	.word	2
	.word	2
	.word	2
	.word	2
	.word	2
	.word	2
	.word	3
	.word	3
	.word	3
	.word	3
	.word	3
	.word	3
	.word	3
	.word	3
	.word	3
	.word	3
	.word	3
	.word	3
	.word	3
	.word	3
	.word	3
	.word	3
	.word	4
	.word	4
	.word	4
	.word	4
	.word	4
	.word	1
	.word	1
	.word	1
	.word	1
	.word	1
	.word	1
	.word	1
	.word	1
	.word	1
	.word	1
	.word	1
	.space	4
	.type	_ZTV14TiXmlAttribute, %object
	.size	_ZTV14TiXmlAttribute, 24
_ZTV14TiXmlAttribute:
	.word	0
	.word	_ZTI14TiXmlAttribute
	.word	_ZN14TiXmlAttributeD1Ev
	.word	_ZN14TiXmlAttributeD0Ev
	.word	_ZNK14TiXmlAttribute5PrintEP8__XXFILEi
	.word	_ZN14TiXmlAttribute5ParseEPKcP16TiXmlParsingData13TiXmlEncoding
	.type	_ZTV13TiXmlDocument, %object
	.size	_ZTV13TiXmlDocument, 80
_ZTV13TiXmlDocument:
	.word	0
	.word	_ZTI13TiXmlDocument
	.word	_ZN13TiXmlDocumentD1Ev
	.word	_ZN13TiXmlDocumentD0Ev
	.word	_ZNK13TiXmlDocument5PrintEP8__XXFILEi
	.word	_ZN13TiXmlDocument5ParseEPKcP16TiXmlParsingData13TiXmlEncoding
	.word	_ZNK13TiXmlDocument10ToDocumentEv
	.word	_ZNK9TiXmlNode9ToElementEv
	.word	_ZNK9TiXmlNode9ToCommentEv
	.word	_ZNK9TiXmlNode9ToUnknownEv
	.word	_ZNK9TiXmlNode6ToTextEv
	.word	_ZNK9TiXmlNode13ToDeclarationEv
	.word	_ZN13TiXmlDocument10ToDocumentEv
	.word	_ZN9TiXmlNode9ToElementEv
	.word	_ZN9TiXmlNode9ToCommentEv
	.word	_ZN9TiXmlNode9ToUnknownEv
	.word	_ZN9TiXmlNode6ToTextEv
	.word	_ZN9TiXmlNode13ToDeclarationEv
	.word	_ZNK13TiXmlDocument5CloneEv
	.word	_ZNK13TiXmlDocument6AcceptEP12TiXmlVisitor
	.type	_ZTS13TiXmlDocument, %object
	.size	_ZTS13TiXmlDocument, 16
_ZTS13TiXmlDocument:
	.ascii	"13TiXmlDocument\000"
	.type	_ZTI13TiXmlDocument, %object
	.size	_ZTI13TiXmlDocument, 12
_ZTI13TiXmlDocument:
	.word	_ZTVN10__cxxabiv120__si_class_type_infoE+8
	.word	_ZTS13TiXmlDocument
	.word	_ZTI9TiXmlNode
	.type	_ZTS14TiXmlAttribute, %object
	.size	_ZTS14TiXmlAttribute, 17
_ZTS14TiXmlAttribute:
	.ascii	"14TiXmlAttribute\000"
	.space	3
	.type	_ZTI14TiXmlAttribute, %object
	.size	_ZTI14TiXmlAttribute, 12
_ZTI14TiXmlAttribute:
	.word	_ZTVN10__cxxabiv120__si_class_type_infoE+8
	.word	_ZTS14TiXmlAttribute
	.word	_ZTI9TiXmlBase
	.data
	.align	2
	.set	.LANCHOR1,. + 0
	.type	_ZN9TiXmlBase6entityE, %object
	.size	_ZN9TiXmlBase6entityE, 60
_ZN9TiXmlBase6entityE:
	.word	.LC17
	.word	5
	.byte	38
	.space	3
	.word	.LC18
	.word	4
	.byte	60
	.space	3
	.word	.LC19
	.word	4
	.byte	62
	.space	3
	.word	.LC20
	.word	6
	.byte	34
	.space	3
	.word	.LC21
	.word	6
	.byte	39
	.space	3
	.section	.rodata.str1.4,"aMS",%progbits,1
	.align	2
.LC0:
	.ascii	"\000"
	.space	3
.LC1:
	.ascii	"<!--\000"
	.space	3
.LC2:
	.ascii	"-->\000"
.LC3:
	.ascii	"<![CDATA[\000"
	.space	2
.LC4:
	.ascii	"]]>\000"
.LC5:
	.ascii	"<\000"
	.space	2
.LC6:
	.ascii	"<?xml\000"
	.space	2
.LC7:
	.ascii	"<!\000"
	.space	1
.LC8:
	.ascii	"</\000"
	.space	1
.LC9:
	.ascii	"UTF-8\000"
	.space	2
.LC10:
	.ascii	"UTF8\000"
	.space	3
.LC11:
	.ascii	"'\000"
	.space	2
.LC12:
	.ascii	"\"\000"
	.space	2
.LC13:
	.ascii	"version\000"
.LC14:
	.ascii	"encoding\000"
	.space	3
.LC15:
	.ascii	"standalone\000"
	.space	1
.LC16:
	.ascii	">\000"
	.space	2
.LC17:
	.ascii	"&amp;\000"
	.space	2
.LC18:
	.ascii	"&lt;\000"
	.space	3
.LC19:
	.ascii	"&gt;\000"
	.space	3
.LC20:
	.ascii	"&quot;\000"
	.space	1
.LC21:
	.ascii	"&apos;\000"
	.hidden	_ZTV14TiXmlAttribute
	.hidden	_ZTV13TiXmlDocument
	.hidden	_ZTV9TiXmlBase
	.ident	"GCC: (Sourcery G++ Lite 2010q1-188) 4.4.1"
