	.arch armv5te
	.eabi_attribute 27, 3
	.fpu vfp
	.eabi_attribute 20, 1
	.eabi_attribute 21, 1
	.eabi_attribute 23, 3
	.eabi_attribute 24, 1
	.eabi_attribute 25, 1
	.eabi_attribute 26, 2
	.eabi_attribute 30, 2
	.eabi_attribute 18, 2
	.file	"tinyxml.cpp"
	.section	.text._ZN12TiXmlVisitorD1Ev,"axG",%progbits,_ZN12TiXmlVisitorD1Ev,comdat
	.align	2
	.weak	_ZN12TiXmlVisitorD1Ev
	.hidden	_ZN12TiXmlVisitorD1Ev
	.type	_ZN12TiXmlVisitorD1Ev, %function
_ZN12TiXmlVisitorD1Ev:
	@ args = 0, pretend = 0, frame = 0
	@ frame_needed = 0, uses_anonymous_args = 0
	@ link register save eliminated.
	ldr	r3, .L3
	str	r3, [r0, #0]
	bx	lr
.L4:
	.align	2
.L3:
	.word	_ZTV12TiXmlVisitor+8
	.size	_ZN12TiXmlVisitorD1Ev, .-_ZN12TiXmlVisitorD1Ev
	.section	.text._ZN12TiXmlVisitor10VisitEnterERK13TiXmlDocument,"axG",%progbits,_ZN12TiXmlVisitor10VisitEnterERK13TiXmlDocument,comdat
	.align	2
	.weak	_ZN12TiXmlVisitor10VisitEnterERK13TiXmlDocument
	.hidden	_ZN12TiXmlVisitor10VisitEnterERK13TiXmlDocument
	.type	_ZN12TiXmlVisitor10VisitEnterERK13TiXmlDocument, %function
_ZN12TiXmlVisitor10VisitEnterERK13TiXmlDocument:
	@ args = 0, pretend = 0, frame = 0
	@ frame_needed = 0, uses_anonymous_args = 0
	@ link register save eliminated.
	mov	r0, #1
	bx	lr
	.size	_ZN12TiXmlVisitor10VisitEnterERK13TiXmlDocument, .-_ZN12TiXmlVisitor10VisitEnterERK13TiXmlDocument
	.section	.text._ZN12TiXmlVisitor9VisitExitERK13TiXmlDocument,"axG",%progbits,_ZN12TiXmlVisitor9VisitExitERK13TiXmlDocument,comdat
	.align	2
	.weak	_ZN12TiXmlVisitor9VisitExitERK13TiXmlDocument
	.hidden	_ZN12TiXmlVisitor9VisitExitERK13TiXmlDocument
	.type	_ZN12TiXmlVisitor9VisitExitERK13TiXmlDocument, %function
_ZN12TiXmlVisitor9VisitExitERK13TiXmlDocument:
	@ args = 0, pretend = 0, frame = 0
	@ frame_needed = 0, uses_anonymous_args = 0
	@ link register save eliminated.
	mov	r0, #1
	bx	lr
	.size	_ZN12TiXmlVisitor9VisitExitERK13TiXmlDocument, .-_ZN12TiXmlVisitor9VisitExitERK13TiXmlDocument
	.section	.text._ZN12TiXmlVisitor10VisitEnterERK12TiXmlElementPK14TiXmlAttribute,"axG",%progbits,_ZN12TiXmlVisitor10VisitEnterERK12TiXmlElementPK14TiXmlAttribute,comdat
	.align	2
	.weak	_ZN12TiXmlVisitor10VisitEnterERK12TiXmlElementPK14TiXmlAttribute
	.hidden	_ZN12TiXmlVisitor10VisitEnterERK12TiXmlElementPK14TiXmlAttribute
	.type	_ZN12TiXmlVisitor10VisitEnterERK12TiXmlElementPK14TiXmlAttribute, %function
_ZN12TiXmlVisitor10VisitEnterERK12TiXmlElementPK14TiXmlAttribute:
	@ args = 0, pretend = 0, frame = 0
	@ frame_needed = 0, uses_anonymous_args = 0
	@ link register save eliminated.
	mov	r0, #1
	bx	lr
	.size	_ZN12TiXmlVisitor10VisitEnterERK12TiXmlElementPK14TiXmlAttribute, .-_ZN12TiXmlVisitor10VisitEnterERK12TiXmlElementPK14TiXmlAttribute
	.section	.text._ZN12TiXmlVisitor9VisitExitERK12TiXmlElement,"axG",%progbits,_ZN12TiXmlVisitor9VisitExitERK12TiXmlElement,comdat
	.align	2
	.weak	_ZN12TiXmlVisitor9VisitExitERK12TiXmlElement
	.hidden	_ZN12TiXmlVisitor9VisitExitERK12TiXmlElement
	.type	_ZN12TiXmlVisitor9VisitExitERK12TiXmlElement, %function
_ZN12TiXmlVisitor9VisitExitERK12TiXmlElement:
	@ args = 0, pretend = 0, frame = 0
	@ frame_needed = 0, uses_anonymous_args = 0
	@ link register save eliminated.
	mov	r0, #1
	bx	lr
	.size	_ZN12TiXmlVisitor9VisitExitERK12TiXmlElement, .-_ZN12TiXmlVisitor9VisitExitERK12TiXmlElement
	.section	.text._ZN12TiXmlVisitor5VisitERK16TiXmlDeclaration,"axG",%progbits,_ZN12TiXmlVisitor5VisitERK16TiXmlDeclaration,comdat
	.align	2
	.weak	_ZN12TiXmlVisitor5VisitERK16TiXmlDeclaration
	.hidden	_ZN12TiXmlVisitor5VisitERK16TiXmlDeclaration
	.type	_ZN12TiXmlVisitor5VisitERK16TiXmlDeclaration, %function
_ZN12TiXmlVisitor5VisitERK16TiXmlDeclaration:
	@ args = 0, pretend = 0, frame = 0
	@ frame_needed = 0, uses_anonymous_args = 0
	@ link register save eliminated.
	mov	r0, #1
	bx	lr
	.size	_ZN12TiXmlVisitor5VisitERK16TiXmlDeclaration, .-_ZN12TiXmlVisitor5VisitERK16TiXmlDeclaration
	.section	.text._ZN12TiXmlVisitor5VisitERK9TiXmlText,"axG",%progbits,_ZN12TiXmlVisitor5VisitERK9TiXmlText,comdat
	.align	2
	.weak	_ZN12TiXmlVisitor5VisitERK9TiXmlText
	.hidden	_ZN12TiXmlVisitor5VisitERK9TiXmlText
	.type	_ZN12TiXmlVisitor5VisitERK9TiXmlText, %function
_ZN12TiXmlVisitor5VisitERK9TiXmlText:
	@ args = 0, pretend = 0, frame = 0
	@ frame_needed = 0, uses_anonymous_args = 0
	@ link register save eliminated.
	mov	r0, #1
	bx	lr
	.size	_ZN12TiXmlVisitor5VisitERK9TiXmlText, .-_ZN12TiXmlVisitor5VisitERK9TiXmlText
	.section	.text._ZN12TiXmlVisitor5VisitERK12TiXmlComment,"axG",%progbits,_ZN12TiXmlVisitor5VisitERK12TiXmlComment,comdat
	.align	2
	.weak	_ZN12TiXmlVisitor5VisitERK12TiXmlComment
	.hidden	_ZN12TiXmlVisitor5VisitERK12TiXmlComment
	.type	_ZN12TiXmlVisitor5VisitERK12TiXmlComment, %function
_ZN12TiXmlVisitor5VisitERK12TiXmlComment:
	@ args = 0, pretend = 0, frame = 0
	@ frame_needed = 0, uses_anonymous_args = 0
	@ link register save eliminated.
	mov	r0, #1
	bx	lr
	.size	_ZN12TiXmlVisitor5VisitERK12TiXmlComment, .-_ZN12TiXmlVisitor5VisitERK12TiXmlComment
	.section	.text._ZN12TiXmlVisitor5VisitERK12TiXmlUnknown,"axG",%progbits,_ZN12TiXmlVisitor5VisitERK12TiXmlUnknown,comdat
	.align	2
	.weak	_ZN12TiXmlVisitor5VisitERK12TiXmlUnknown
	.hidden	_ZN12TiXmlVisitor5VisitERK12TiXmlUnknown
	.type	_ZN12TiXmlVisitor5VisitERK12TiXmlUnknown, %function
_ZN12TiXmlVisitor5VisitERK12TiXmlUnknown:
	@ args = 0, pretend = 0, frame = 0
	@ frame_needed = 0, uses_anonymous_args = 0
	@ link register save eliminated.
	mov	r0, #1
	bx	lr
	.size	_ZN12TiXmlVisitor5VisitERK12TiXmlUnknown, .-_ZN12TiXmlVisitor5VisitERK12TiXmlUnknown
	.section	.text._ZN9TiXmlBaseD1Ev,"axG",%progbits,_ZN9TiXmlBaseD1Ev,comdat
	.align	2
	.weak	_ZN9TiXmlBaseD1Ev
	.hidden	_ZN9TiXmlBaseD1Ev
	.type	_ZN9TiXmlBaseD1Ev, %function
_ZN9TiXmlBaseD1Ev:
	@ args = 0, pretend = 0, frame = 0
	@ frame_needed = 0, uses_anonymous_args = 0
	@ link register save eliminated.
	ldr	r3, .L23
	str	r3, [r0, #0]
	bx	lr
.L24:
	.align	2
.L23:
	.word	_ZTV9TiXmlBase+8
	.size	_ZN9TiXmlBaseD1Ev, .-_ZN9TiXmlBaseD1Ev
	.section	.text._ZNK9TiXmlNode10ToDocumentEv,"axG",%progbits,_ZNK9TiXmlNode10ToDocumentEv,comdat
	.align	2
	.weak	_ZNK9TiXmlNode10ToDocumentEv
	.hidden	_ZNK9TiXmlNode10ToDocumentEv
	.type	_ZNK9TiXmlNode10ToDocumentEv, %function
_ZNK9TiXmlNode10ToDocumentEv:
	@ args = 0, pretend = 0, frame = 0
	@ frame_needed = 0, uses_anonymous_args = 0
	@ link register save eliminated.
	mov	r0, #0
	bx	lr
	.size	_ZNK9TiXmlNode10ToDocumentEv, .-_ZNK9TiXmlNode10ToDocumentEv
	.section	.text._ZNK9TiXmlNode9ToElementEv,"axG",%progbits,_ZNK9TiXmlNode9ToElementEv,comdat
	.align	2
	.weak	_ZNK9TiXmlNode9ToElementEv
	.hidden	_ZNK9TiXmlNode9ToElementEv
	.type	_ZNK9TiXmlNode9ToElementEv, %function
_ZNK9TiXmlNode9ToElementEv:
	@ args = 0, pretend = 0, frame = 0
	@ frame_needed = 0, uses_anonymous_args = 0
	@ link register save eliminated.
	mov	r0, #0
	bx	lr
	.size	_ZNK9TiXmlNode9ToElementEv, .-_ZNK9TiXmlNode9ToElementEv
	.section	.text._ZNK9TiXmlNode9ToCommentEv,"axG",%progbits,_ZNK9TiXmlNode9ToCommentEv,comdat
	.align	2
	.weak	_ZNK9TiXmlNode9ToCommentEv
	.hidden	_ZNK9TiXmlNode9ToCommentEv
	.type	_ZNK9TiXmlNode9ToCommentEv, %function
_ZNK9TiXmlNode9ToCommentEv:
	@ args = 0, pretend = 0, frame = 0
	@ frame_needed = 0, uses_anonymous_args = 0
	@ link register save eliminated.
	mov	r0, #0
	bx	lr
	.size	_ZNK9TiXmlNode9ToCommentEv, .-_ZNK9TiXmlNode9ToCommentEv
	.section	.text._ZNK9TiXmlNode9ToUnknownEv,"axG",%progbits,_ZNK9TiXmlNode9ToUnknownEv,comdat
	.align	2
	.weak	_ZNK9TiXmlNode9ToUnknownEv
	.hidden	_ZNK9TiXmlNode9ToUnknownEv
	.type	_ZNK9TiXmlNode9ToUnknownEv, %function
_ZNK9TiXmlNode9ToUnknownEv:
	@ args = 0, pretend = 0, frame = 0
	@ frame_needed = 0, uses_anonymous_args = 0
	@ link register save eliminated.
	mov	r0, #0
	bx	lr
	.size	_ZNK9TiXmlNode9ToUnknownEv, .-_ZNK9TiXmlNode9ToUnknownEv
	.section	.text._ZNK9TiXmlNode6ToTextEv,"axG",%progbits,_ZNK9TiXmlNode6ToTextEv,comdat
	.align	2
	.weak	_ZNK9TiXmlNode6ToTextEv
	.hidden	_ZNK9TiXmlNode6ToTextEv
	.type	_ZNK9TiXmlNode6ToTextEv, %function
_ZNK9TiXmlNode6ToTextEv:
	@ args = 0, pretend = 0, frame = 0
	@ frame_needed = 0, uses_anonymous_args = 0
	@ link register save eliminated.
	mov	r0, #0
	bx	lr
	.size	_ZNK9TiXmlNode6ToTextEv, .-_ZNK9TiXmlNode6ToTextEv
	.section	.text._ZNK9TiXmlNode13ToDeclarationEv,"axG",%progbits,_ZNK9TiXmlNode13ToDeclarationEv,comdat
	.align	2
	.weak	_ZNK9TiXmlNode13ToDeclarationEv
	.hidden	_ZNK9TiXmlNode13ToDeclarationEv
	.type	_ZNK9TiXmlNode13ToDeclarationEv, %function
_ZNK9TiXmlNode13ToDeclarationEv:
	@ args = 0, pretend = 0, frame = 0
	@ frame_needed = 0, uses_anonymous_args = 0
	@ link register save eliminated.
	mov	r0, #0
	bx	lr
	.size	_ZNK9TiXmlNode13ToDeclarationEv, .-_ZNK9TiXmlNode13ToDeclarationEv
	.section	.text._ZN9TiXmlNode10ToDocumentEv,"axG",%progbits,_ZN9TiXmlNode10ToDocumentEv,comdat
	.align	2
	.weak	_ZN9TiXmlNode10ToDocumentEv
	.hidden	_ZN9TiXmlNode10ToDocumentEv
	.type	_ZN9TiXmlNode10ToDocumentEv, %function
_ZN9TiXmlNode10ToDocumentEv:
	@ args = 0, pretend = 0, frame = 0
	@ frame_needed = 0, uses_anonymous_args = 0
	@ link register save eliminated.
	mov	r0, #0
	bx	lr
	.size	_ZN9TiXmlNode10ToDocumentEv, .-_ZN9TiXmlNode10ToDocumentEv
	.section	.text._ZN9TiXmlNode9ToElementEv,"axG",%progbits,_ZN9TiXmlNode9ToElementEv,comdat
	.align	2
	.weak	_ZN9TiXmlNode9ToElementEv
	.hidden	_ZN9TiXmlNode9ToElementEv
	.type	_ZN9TiXmlNode9ToElementEv, %function
_ZN9TiXmlNode9ToElementEv:
	@ args = 0, pretend = 0, frame = 0
	@ frame_needed = 0, uses_anonymous_args = 0
	@ link register save eliminated.
	mov	r0, #0
	bx	lr
	.size	_ZN9TiXmlNode9ToElementEv, .-_ZN9TiXmlNode9ToElementEv
	.section	.text._ZN9TiXmlNode9ToCommentEv,"axG",%progbits,_ZN9TiXmlNode9ToCommentEv,comdat
	.align	2
	.weak	_ZN9TiXmlNode9ToCommentEv
	.hidden	_ZN9TiXmlNode9ToCommentEv
	.type	_ZN9TiXmlNode9ToCommentEv, %function
_ZN9TiXmlNode9ToCommentEv:
	@ args = 0, pretend = 0, frame = 0
	@ frame_needed = 0, uses_anonymous_args = 0
	@ link register save eliminated.
	mov	r0, #0
	bx	lr
	.size	_ZN9TiXmlNode9ToCommentEv, .-_ZN9TiXmlNode9ToCommentEv
	.section	.text._ZN9TiXmlNode9ToUnknownEv,"axG",%progbits,_ZN9TiXmlNode9ToUnknownEv,comdat
	.align	2
	.weak	_ZN9TiXmlNode9ToUnknownEv
	.hidden	_ZN9TiXmlNode9ToUnknownEv
	.type	_ZN9TiXmlNode9ToUnknownEv, %function
_ZN9TiXmlNode9ToUnknownEv:
	@ args = 0, pretend = 0, frame = 0
	@ frame_needed = 0, uses_anonymous_args = 0
	@ link register save eliminated.
	mov	r0, #0
	bx	lr
	.size	_ZN9TiXmlNode9ToUnknownEv, .-_ZN9TiXmlNode9ToUnknownEv
	.section	.text._ZN9TiXmlNode6ToTextEv,"axG",%progbits,_ZN9TiXmlNode6ToTextEv,comdat
	.align	2
	.weak	_ZN9TiXmlNode6ToTextEv
	.hidden	_ZN9TiXmlNode6ToTextEv
	.type	_ZN9TiXmlNode6ToTextEv, %function
_ZN9TiXmlNode6ToTextEv:
	@ args = 0, pretend = 0, frame = 0
	@ frame_needed = 0, uses_anonymous_args = 0
	@ link register save eliminated.
	mov	r0, #0
	bx	lr
	.size	_ZN9TiXmlNode6ToTextEv, .-_ZN9TiXmlNode6ToTextEv
	.section	.text._ZN9TiXmlNode13ToDeclarationEv,"axG",%progbits,_ZN9TiXmlNode13ToDeclarationEv,comdat
	.align	2
	.weak	_ZN9TiXmlNode13ToDeclarationEv
	.hidden	_ZN9TiXmlNode13ToDeclarationEv
	.type	_ZN9TiXmlNode13ToDeclarationEv, %function
_ZN9TiXmlNode13ToDeclarationEv:
	@ args = 0, pretend = 0, frame = 0
	@ frame_needed = 0, uses_anonymous_args = 0
	@ link register save eliminated.
	mov	r0, #0
	bx	lr
	.size	_ZN9TiXmlNode13ToDeclarationEv, .-_ZN9TiXmlNode13ToDeclarationEv
	.section	.text._ZNK12TiXmlElement9ToElementEv,"axG",%progbits,_ZNK12TiXmlElement9ToElementEv,comdat
	.align	2
	.weak	_ZNK12TiXmlElement9ToElementEv
	.hidden	_ZNK12TiXmlElement9ToElementEv
	.type	_ZNK12TiXmlElement9ToElementEv, %function
_ZNK12TiXmlElement9ToElementEv:
	@ args = 0, pretend = 0, frame = 0
	@ frame_needed = 0, uses_anonymous_args = 0
	@ link register save eliminated.
	bx	lr
	.size	_ZNK12TiXmlElement9ToElementEv, .-_ZNK12TiXmlElement9ToElementEv
	.section	.text._ZN12TiXmlElement9ToElementEv,"axG",%progbits,_ZN12TiXmlElement9ToElementEv,comdat
	.align	2
	.weak	_ZN12TiXmlElement9ToElementEv
	.hidden	_ZN12TiXmlElement9ToElementEv
	.type	_ZN12TiXmlElement9ToElementEv, %function
_ZN12TiXmlElement9ToElementEv:
	@ args = 0, pretend = 0, frame = 0
	@ frame_needed = 0, uses_anonymous_args = 0
	@ link register save eliminated.
	bx	lr
	.size	_ZN12TiXmlElement9ToElementEv, .-_ZN12TiXmlElement9ToElementEv
	.section	.text._ZNK12TiXmlComment9ToCommentEv,"axG",%progbits,_ZNK12TiXmlComment9ToCommentEv,comdat
	.align	2
	.weak	_ZNK12TiXmlComment9ToCommentEv
	.hidden	_ZNK12TiXmlComment9ToCommentEv
	.type	_ZNK12TiXmlComment9ToCommentEv, %function
_ZNK12TiXmlComment9ToCommentEv:
	@ args = 0, pretend = 0, frame = 0
	@ frame_needed = 0, uses_anonymous_args = 0
	@ link register save eliminated.
	bx	lr
	.size	_ZNK12TiXmlComment9ToCommentEv, .-_ZNK12TiXmlComment9ToCommentEv
	.section	.text._ZN12TiXmlComment9ToCommentEv,"axG",%progbits,_ZN12TiXmlComment9ToCommentEv,comdat
	.align	2
	.weak	_ZN12TiXmlComment9ToCommentEv
	.hidden	_ZN12TiXmlComment9ToCommentEv
	.type	_ZN12TiXmlComment9ToCommentEv, %function
_ZN12TiXmlComment9ToCommentEv:
	@ args = 0, pretend = 0, frame = 0
	@ frame_needed = 0, uses_anonymous_args = 0
	@ link register save eliminated.
	bx	lr
	.size	_ZN12TiXmlComment9ToCommentEv, .-_ZN12TiXmlComment9ToCommentEv
	.section	.text._ZNK9TiXmlText6ToTextEv,"axG",%progbits,_ZNK9TiXmlText6ToTextEv,comdat
	.align	2
	.weak	_ZNK9TiXmlText6ToTextEv
	.hidden	_ZNK9TiXmlText6ToTextEv
	.type	_ZNK9TiXmlText6ToTextEv, %function
_ZNK9TiXmlText6ToTextEv:
	@ args = 0, pretend = 0, frame = 0
	@ frame_needed = 0, uses_anonymous_args = 0
	@ link register save eliminated.
	bx	lr
	.size	_ZNK9TiXmlText6ToTextEv, .-_ZNK9TiXmlText6ToTextEv
	.section	.text._ZN9TiXmlText6ToTextEv,"axG",%progbits,_ZN9TiXmlText6ToTextEv,comdat
	.align	2
	.weak	_ZN9TiXmlText6ToTextEv
	.hidden	_ZN9TiXmlText6ToTextEv
	.type	_ZN9TiXmlText6ToTextEv, %function
_ZN9TiXmlText6ToTextEv:
	@ args = 0, pretend = 0, frame = 0
	@ frame_needed = 0, uses_anonymous_args = 0
	@ link register save eliminated.
	bx	lr
	.size	_ZN9TiXmlText6ToTextEv, .-_ZN9TiXmlText6ToTextEv
	.section	.text._ZNK16TiXmlDeclaration5PrintEP8__XXFILEi,"axG",%progbits,_ZNK16TiXmlDeclaration5PrintEP8__XXFILEi,comdat
	.align	2
	.weak	_ZNK16TiXmlDeclaration5PrintEP8__XXFILEi
	.hidden	_ZNK16TiXmlDeclaration5PrintEP8__XXFILEi
	.type	_ZNK16TiXmlDeclaration5PrintEP8__XXFILEi, %function
_ZNK16TiXmlDeclaration5PrintEP8__XXFILEi:
	@ args = 0, pretend = 0, frame = 0
	@ frame_needed = 0, uses_anonymous_args = 0
	stmfd	sp!, {r3, lr}
	ldr	lr, [r0, #0]
	mov	r3, #0
	ldr	ip, [lr, #72]
	blx	ip
	ldmfd	sp!, {r3, pc}
	.size	_ZNK16TiXmlDeclaration5PrintEP8__XXFILEi, .-_ZNK16TiXmlDeclaration5PrintEP8__XXFILEi
	.section	.text._ZNK16TiXmlDeclaration13ToDeclarationEv,"axG",%progbits,_ZNK16TiXmlDeclaration13ToDeclarationEv,comdat
	.align	2
	.weak	_ZNK16TiXmlDeclaration13ToDeclarationEv
	.hidden	_ZNK16TiXmlDeclaration13ToDeclarationEv
	.type	_ZNK16TiXmlDeclaration13ToDeclarationEv, %function
_ZNK16TiXmlDeclaration13ToDeclarationEv:
	@ args = 0, pretend = 0, frame = 0
	@ frame_needed = 0, uses_anonymous_args = 0
	@ link register save eliminated.
	bx	lr
	.size	_ZNK16TiXmlDeclaration13ToDeclarationEv, .-_ZNK16TiXmlDeclaration13ToDeclarationEv
	.section	.text._ZN16TiXmlDeclaration13ToDeclarationEv,"axG",%progbits,_ZN16TiXmlDeclaration13ToDeclarationEv,comdat
	.align	2
	.weak	_ZN16TiXmlDeclaration13ToDeclarationEv
	.hidden	_ZN16TiXmlDeclaration13ToDeclarationEv
	.type	_ZN16TiXmlDeclaration13ToDeclarationEv, %function
_ZN16TiXmlDeclaration13ToDeclarationEv:
	@ args = 0, pretend = 0, frame = 0
	@ frame_needed = 0, uses_anonymous_args = 0
	@ link register save eliminated.
	bx	lr
	.size	_ZN16TiXmlDeclaration13ToDeclarationEv, .-_ZN16TiXmlDeclaration13ToDeclarationEv
	.section	.text._ZNK12TiXmlUnknown9ToUnknownEv,"axG",%progbits,_ZNK12TiXmlUnknown9ToUnknownEv,comdat
	.align	2
	.weak	_ZNK12TiXmlUnknown9ToUnknownEv
	.hidden	_ZNK12TiXmlUnknown9ToUnknownEv
	.type	_ZNK12TiXmlUnknown9ToUnknownEv, %function
_ZNK12TiXmlUnknown9ToUnknownEv:
	@ args = 0, pretend = 0, frame = 0
	@ frame_needed = 0, uses_anonymous_args = 0
	@ link register save eliminated.
	bx	lr
	.size	_ZNK12TiXmlUnknown9ToUnknownEv, .-_ZNK12TiXmlUnknown9ToUnknownEv
	.section	.text._ZN12TiXmlUnknown9ToUnknownEv,"axG",%progbits,_ZN12TiXmlUnknown9ToUnknownEv,comdat
	.align	2
	.weak	_ZN12TiXmlUnknown9ToUnknownEv
	.hidden	_ZN12TiXmlUnknown9ToUnknownEv
	.type	_ZN12TiXmlUnknown9ToUnknownEv, %function
_ZN12TiXmlUnknown9ToUnknownEv:
	@ args = 0, pretend = 0, frame = 0
	@ frame_needed = 0, uses_anonymous_args = 0
	@ link register save eliminated.
	bx	lr
	.size	_ZN12TiXmlUnknown9ToUnknownEv, .-_ZN12TiXmlUnknown9ToUnknownEv
	.section	.text._ZN9TiXmlNodeC2ENS_8NodeTypeE,"ax",%progbits
	.align	2
	.global	_ZN9TiXmlNodeC2ENS_8NodeTypeE
	.hidden	_ZN9TiXmlNodeC2ENS_8NodeTypeE
	.type	_ZN9TiXmlNodeC2ENS_8NodeTypeE, %function
_ZN9TiXmlNodeC2ENS_8NodeTypeE:
	@ args = 0, pretend = 0, frame = 0
	@ frame_needed = 0, uses_anonymous_args = 0
	@ link register save eliminated.
	str	r4, [sp, #-4]!
	ldr	r4, .L77
	mov	r2, #0
	mvn	ip, #0
	str	r4, [r0, #0]
	ldr	r4, .L77+4
	str	r2, [r0, #40]
	str	ip, [r0, #4]
	str	r4, [r0, #32]
	str	r1, [r0, #20]
	str	ip, [r0, #8]
	str	r2, [r0, #12]
	str	r2, [r0, #16]
	str	r2, [r0, #24]
	str	r2, [r0, #28]
	str	r2, [r0, #36]
	ldmfd	sp!, {r4}
	bx	lr
.L78:
	.align	2
.L77:
	.word	.LANCHOR0+8
	.word	_ZN11TiXmlString8nullrep_E
	.size	_ZN9TiXmlNodeC2ENS_8NodeTypeE, .-_ZN9TiXmlNodeC2ENS_8NodeTypeE
	.section	.text._ZN9TiXmlNodeC1ENS_8NodeTypeE,"ax",%progbits
	.align	2
	.global	_ZN9TiXmlNodeC1ENS_8NodeTypeE
	.hidden	_ZN9TiXmlNodeC1ENS_8NodeTypeE
	.type	_ZN9TiXmlNodeC1ENS_8NodeTypeE, %function
_ZN9TiXmlNodeC1ENS_8NodeTypeE:
	@ args = 0, pretend = 0, frame = 0
	@ frame_needed = 0, uses_anonymous_args = 0
	@ link register save eliminated.
	str	r4, [sp, #-4]!
	ldr	r4, .L85
	mov	r2, #0
	mvn	ip, #0
	str	r4, [r0, #0]
	ldr	r4, .L85+4
	str	r2, [r0, #40]
	str	ip, [r0, #4]
	str	r4, [r0, #32]
	str	r1, [r0, #20]
	str	ip, [r0, #8]
	str	r2, [r0, #12]
	str	r2, [r0, #16]
	str	r2, [r0, #24]
	str	r2, [r0, #28]
	str	r2, [r0, #36]
	ldmfd	sp!, {r4}
	bx	lr
.L86:
	.align	2
.L85:
	.word	.LANCHOR0+8
	.word	_ZN11TiXmlString8nullrep_E
	.size	_ZN9TiXmlNodeC1ENS_8NodeTypeE, .-_ZN9TiXmlNodeC1ENS_8NodeTypeE
	.section	.text._ZN9TiXmlNode5ClearEv,"ax",%progbits
	.align	2
	.global	_ZN9TiXmlNode5ClearEv
	.hidden	_ZN9TiXmlNode5ClearEv
	.type	_ZN9TiXmlNode5ClearEv, %function
_ZN9TiXmlNode5ClearEv:
	@ args = 0, pretend = 0, frame = 0
	@ frame_needed = 0, uses_anonymous_args = 0
	stmfd	sp!, {r3, r4, r5, lr}
	mov	r5, r0
	ldr	r0, [r0, #24]
	cmp	r0, #0
	beq	.L88
.L91:
	ldr	r1, [r0, #0]
	ldr	r4, [r0, #40]
	ldr	r3, [r1, #4]
	blx	r3
	cmp	r4, #0
	mov	r0, r4
	bne	.L91
.L88:
	mov	r0, #0
	str	r0, [r5, #28]
	str	r0, [r5, #24]
	ldmfd	sp!, {r3, r4, r5, pc}
	.size	_ZN9TiXmlNode5ClearEv, .-_ZN9TiXmlNode5ClearEv
	.section	.text._ZN9TiXmlNode12ReplaceChildEPS_RKS_,"ax",%progbits
	.align	2
	.global	_ZN9TiXmlNode12ReplaceChildEPS_RKS_
	.hidden	_ZN9TiXmlNode12ReplaceChildEPS_RKS_
	.type	_ZN9TiXmlNode12ReplaceChildEPS_RKS_, %function
_ZN9TiXmlNode12ReplaceChildEPS_RKS_:
	@ args = 0, pretend = 0, frame = 8
	@ frame_needed = 0, uses_anonymous_args = 0
	stmfd	sp!, {r4, r5, lr}
	ldr	r3, [r1, #16]
	sub	sp, sp, #12
	cmp	r3, r0
	mov	r4, r0
	movne	r5, #0
	beq	.L101
.L95:
	mov	r0, r5
	add	sp, sp, #12
	ldmfd	sp!, {r4, r5, pc}
.L101:
	ldr	r5, [r2, #0]
	mov	r0, r2
	ldr	r2, [r5, #64]
	str	r1, [sp, #4]
	blx	r2
	ldr	r1, [sp, #4]
	subs	r5, r0, #0
	beq	.L95
	ldr	r2, [r1, #40]
	str	r2, [r5, #40]
	ldr	lr, [r1, #40]
	ldr	r3, [r1, #36]
	cmp	lr, #0
	str	r3, [r5, #36]
	strne	r5, [lr, #36]
	ldr	r0, [r1, #36]
	ldr	ip, [r1, #0]
	streq	r5, [r4, #28]
	cmp	r0, #0
	strne	r5, [r0, #40]
	streq	r5, [r4, #24]
	mov	r0, r1
	ldr	r1, [ip, #4]
	blx	r1
	str	r4, [r5, #16]
	b	.L95
	.size	_ZN9TiXmlNode12ReplaceChildEPS_RKS_, .-_ZN9TiXmlNode12ReplaceChildEPS_RKS_
	.section	.text._ZN9TiXmlNode11RemoveChildEPS_,"ax",%progbits
	.align	2
	.global	_ZN9TiXmlNode11RemoveChildEPS_
	.hidden	_ZN9TiXmlNode11RemoveChildEPS_
	.type	_ZN9TiXmlNode11RemoveChildEPS_, %function
_ZN9TiXmlNode11RemoveChildEPS_:
	@ args = 0, pretend = 0, frame = 0
	@ frame_needed = 0, uses_anonymous_args = 0
	stmfd	sp!, {r3, lr}
	ldr	r3, [r1, #16]
	cmp	r3, r0
	movne	r0, #0
	ldmnefd	sp!, {r3, pc}
	ldr	ip, [r1, #40]
	ldr	lr, [r1, #36]
	cmp	ip, #0
	strne	lr, [ip, #36]
	ldrne	lr, [r1, #36]
	ldr	r2, [r1, #0]
	streq	lr, [r0, #28]
	cmp	lr, #0
	streq	ip, [r0, #24]
	strne	ip, [lr, #40]
	mov	r0, r1
	ldr	r1, [r2, #4]
	blx	r1
	mov	r0, #1
	ldmfd	sp!, {r3, pc}
	.size	_ZN9TiXmlNode11RemoveChildEPS_, .-_ZN9TiXmlNode11RemoveChildEPS_
	.section	.text._ZNK9TiXmlNode15IterateChildrenEPKS_,"ax",%progbits
	.align	2
	.global	_ZNK9TiXmlNode15IterateChildrenEPKS_
	.hidden	_ZNK9TiXmlNode15IterateChildrenEPKS_
	.type	_ZNK9TiXmlNode15IterateChildrenEPKS_, %function
_ZNK9TiXmlNode15IterateChildrenEPKS_:
	@ args = 0, pretend = 0, frame = 0
	@ frame_needed = 0, uses_anonymous_args = 0
	@ link register save eliminated.
	cmp	r1, #0
	ldreq	r0, [r0, #24]
	ldrne	r0, [r1, #40]
	bx	lr
	.size	_ZNK9TiXmlNode15IterateChildrenEPKS_, .-_ZNK9TiXmlNode15IterateChildrenEPKS_
	.section	.text._ZNK9TiXmlNode17FirstChildElementEv,"ax",%progbits
	.align	2
	.global	_ZNK9TiXmlNode17FirstChildElementEv
	.hidden	_ZNK9TiXmlNode17FirstChildElementEv
	.type	_ZNK9TiXmlNode17FirstChildElementEv, %function
_ZNK9TiXmlNode17FirstChildElementEv:
	@ args = 0, pretend = 0, frame = 0
	@ frame_needed = 0, uses_anonymous_args = 0
	stmfd	sp!, {r4, lr}
	ldr	r4, [r0, #24]
	cmp	r4, #0
	bne	.L120
	b	.L115
.L116:
	ldr	r4, [r4, #40]
	cmp	r4, #0
	beq	.L115
.L120:
	ldr	r1, [r4, #0]
	mov	r0, r4
	ldr	r3, [r1, #20]
	blx	r3
	cmp	r0, #0
	beq	.L116
	ldr	ip, [r4, #0]
	mov	r0, r4
	ldr	r2, [ip, #20]
	blx	r2
	ldmfd	sp!, {r4, pc}
.L115:
	mov	r0, #0
	ldmfd	sp!, {r4, pc}
	.size	_ZNK9TiXmlNode17FirstChildElementEv, .-_ZNK9TiXmlNode17FirstChildElementEv
	.section	.text._ZNK9TiXmlNode18NextSiblingElementEv,"ax",%progbits
	.align	2
	.global	_ZNK9TiXmlNode18NextSiblingElementEv
	.hidden	_ZNK9TiXmlNode18NextSiblingElementEv
	.type	_ZNK9TiXmlNode18NextSiblingElementEv, %function
_ZNK9TiXmlNode18NextSiblingElementEv:
	@ args = 0, pretend = 0, frame = 0
	@ frame_needed = 0, uses_anonymous_args = 0
	stmfd	sp!, {r4, lr}
	ldr	r4, [r0, #40]
	cmp	r4, #0
	bne	.L128
	b	.L123
.L124:
	ldr	r4, [r4, #40]
	cmp	r4, #0
	beq	.L123
.L128:
	ldr	r1, [r4, #0]
	mov	r0, r4
	ldr	r3, [r1, #20]
	blx	r3
	cmp	r0, #0
	beq	.L124
	ldr	ip, [r4, #0]
	mov	r0, r4
	ldr	r2, [ip, #20]
	blx	r2
	ldmfd	sp!, {r4, pc}
.L123:
	mov	r0, #0
	ldmfd	sp!, {r4, pc}
	.size	_ZNK9TiXmlNode18NextSiblingElementEv, .-_ZNK9TiXmlNode18NextSiblingElementEv
	.section	.text._ZNK9TiXmlNode11GetDocumentEv,"ax",%progbits
	.align	2
	.global	_ZNK9TiXmlNode11GetDocumentEv
	.hidden	_ZNK9TiXmlNode11GetDocumentEv
	.type	_ZNK9TiXmlNode11GetDocumentEv, %function
_ZNK9TiXmlNode11GetDocumentEv:
	@ args = 0, pretend = 0, frame = 0
	@ frame_needed = 0, uses_anonymous_args = 0
	stmfd	sp!, {r4, lr}
	subs	r4, r0, #0
	bne	.L134
	b	.L131
.L132:
	ldr	r4, [r4, #16]
	cmp	r4, #0
	beq	.L131
.L134:
	ldr	r1, [r4, #0]
	mov	r0, r4
	ldr	r3, [r1, #16]
	blx	r3
	cmp	r0, #0
	beq	.L132
	ldr	ip, [r4, #0]
	mov	r0, r4
	ldr	r2, [ip, #16]
	blx	r2
	ldmfd	sp!, {r4, pc}
.L131:
	mov	r0, #0
	ldmfd	sp!, {r4, pc}
	.size	_ZNK9TiXmlNode11GetDocumentEv, .-_ZNK9TiXmlNode11GetDocumentEv
	.section	.text._ZNK12TiXmlElement6AcceptEP12TiXmlVisitor,"ax",%progbits
	.align	2
	.global	_ZNK12TiXmlElement6AcceptEP12TiXmlVisitor
	.hidden	_ZNK12TiXmlElement6AcceptEP12TiXmlVisitor
	.type	_ZNK12TiXmlElement6AcceptEP12TiXmlVisitor, %function
_ZNK12TiXmlElement6AcceptEP12TiXmlVisitor:
	@ args = 0, pretend = 0, frame = 0
	@ frame_needed = 0, uses_anonymous_args = 0
	stmfd	sp!, {r4, r5, r6, lr}
	mov	r5, r0
	ldr	r2, [r5, #76]
	ldr	r0, [r1, #0]
	mov	r4, r1
	add	r1, r5, #44
	cmp	r2, r1
	moveq	r2, #0
	ldr	r3, [r0, #16]
	mov	r1, r5
	mov	r0, r4
	blx	r3
	cmp	r0, #0
	beq	.L139
	ldr	r6, [r5, #24]
	cmp	r6, #0
	bne	.L142
	b	.L139
.L144:
	ldr	r6, [r6, #40]
	cmp	r6, #0
	beq	.L139
.L142:
	ldr	ip, [r6, #0]
	mov	r0, r6
	ldr	r2, [ip, #68]
	mov	r1, r4
	blx	r2
	cmp	r0, #0
	bne	.L144
.L139:
	ldr	lr, [r4, #0]
	mov	r0, r4
	ldr	r3, [lr, #20]
	mov	r1, r5
	blx	r3
	ldmfd	sp!, {r4, r5, r6, pc}
	.size	_ZNK12TiXmlElement6AcceptEP12TiXmlVisitor, .-_ZNK12TiXmlElement6AcceptEP12TiXmlVisitor
	.section	.text._ZNK12TiXmlElement7GetTextEv,"ax",%progbits
	.align	2
	.global	_ZNK12TiXmlElement7GetTextEv
	.hidden	_ZNK12TiXmlElement7GetTextEv
	.type	_ZNK12TiXmlElement7GetTextEv, %function
_ZNK12TiXmlElement7GetTextEv:
	@ args = 0, pretend = 0, frame = 0
	@ frame_needed = 0, uses_anonymous_args = 0
	stmfd	sp!, {r3, lr}
	ldr	r0, [r0, #24]
	cmp	r0, #0
	bne	.L149
.L146:
	mov	r0, #0
	ldmfd	sp!, {r3, pc}
.L149:
	ldr	r1, [r0, #0]
	ldr	r3, [r1, #32]
	blx	r3
	cmp	r0, #0
	beq	.L146
	ldr	r0, [r0, #32]
	add	r0, r0, #8
	ldmfd	sp!, {r3, pc}
	.size	_ZNK12TiXmlElement7GetTextEv, .-_ZNK12TiXmlElement7GetTextEv
	.section	.text._ZNK13TiXmlDocument6AcceptEP12TiXmlVisitor,"ax",%progbits
	.align	2
	.global	_ZNK13TiXmlDocument6AcceptEP12TiXmlVisitor
	.hidden	_ZNK13TiXmlDocument6AcceptEP12TiXmlVisitor
	.type	_ZNK13TiXmlDocument6AcceptEP12TiXmlVisitor, %function
_ZNK13TiXmlDocument6AcceptEP12TiXmlVisitor:
	@ args = 0, pretend = 0, frame = 0
	@ frame_needed = 0, uses_anonymous_args = 0
	stmfd	sp!, {r4, r5, r6, lr}
	mov	r5, r1
	ldr	r1, [r1, #0]
	mov	r6, r0
	ldr	r3, [r1, #8]
	mov	r0, r5
	mov	r1, r6
	blx	r3
	cmp	r0, #0
	beq	.L151
	ldr	r4, [r6, #24]
	cmp	r4, #0
	bne	.L154
	b	.L151
.L156:
	ldr	r4, [r4, #40]
	cmp	r4, #0
	beq	.L151
.L154:
	ldr	ip, [r4, #0]
	mov	r0, r4
	ldr	r2, [ip, #68]
	mov	r1, r5
	blx	r2
	cmp	r0, #0
	bne	.L156
.L151:
	ldr	lr, [r5, #0]
	mov	r0, r5
	ldr	r3, [lr, #12]
	mov	r1, r6
	blx	r3
	ldmfd	sp!, {r4, r5, r6, pc}
	.size	_ZNK13TiXmlDocument6AcceptEP12TiXmlVisitor, .-_ZNK13TiXmlDocument6AcceptEP12TiXmlVisitor
	.section	.text._ZNK14TiXmlAttribute4NextEv,"ax",%progbits
	.align	2
	.global	_ZNK14TiXmlAttribute4NextEv
	.hidden	_ZNK14TiXmlAttribute4NextEv
	.type	_ZNK14TiXmlAttribute4NextEv, %function
_ZNK14TiXmlAttribute4NextEv:
	@ args = 0, pretend = 0, frame = 0
	@ frame_needed = 0, uses_anonymous_args = 0
	@ link register save eliminated.
	ldr	r0, [r0, #32]
	ldr	r1, [r0, #24]
	ldr	r3, [r1, #0]
	cmp	r3, #0
	bxne	lr
	ldr	ip, [r0, #20]
	ldr	r2, [ip, #0]
	cmp	r2, #0
	moveq	r0, #0
	bx	lr
	.size	_ZNK14TiXmlAttribute4NextEv, .-_ZNK14TiXmlAttribute4NextEv
	.section	.text._ZNK14TiXmlAttribute8PreviousEv,"ax",%progbits
	.align	2
	.global	_ZNK14TiXmlAttribute8PreviousEv
	.hidden	_ZNK14TiXmlAttribute8PreviousEv
	.type	_ZNK14TiXmlAttribute8PreviousEv, %function
_ZNK14TiXmlAttribute8PreviousEv:
	@ args = 0, pretend = 0, frame = 0
	@ frame_needed = 0, uses_anonymous_args = 0
	@ link register save eliminated.
	ldr	r0, [r0, #28]
	ldr	r1, [r0, #24]
	ldr	r3, [r1, #0]
	cmp	r3, #0
	bxne	lr
	ldr	ip, [r0, #20]
	ldr	r2, [ip, #0]
	cmp	r2, #0
	moveq	r0, #0
	bx	lr
	.size	_ZNK14TiXmlAttribute8PreviousEv, .-_ZNK14TiXmlAttribute8PreviousEv
	.section	.text._ZNK12TiXmlComment6AcceptEP12TiXmlVisitor,"ax",%progbits
	.align	2
	.global	_ZNK12TiXmlComment6AcceptEP12TiXmlVisitor
	.hidden	_ZNK12TiXmlComment6AcceptEP12TiXmlVisitor
	.type	_ZNK12TiXmlComment6AcceptEP12TiXmlVisitor, %function
_ZNK12TiXmlComment6AcceptEP12TiXmlVisitor:
	@ args = 0, pretend = 0, frame = 0
	@ frame_needed = 0, uses_anonymous_args = 0
	stmfd	sp!, {r3, lr}
	ldr	ip, [r1, #0]
	mov	r2, r1
	ldr	r3, [ip, #32]
	mov	r1, r0
	mov	r0, r2
	blx	r3
	ldmfd	sp!, {r3, pc}
	.size	_ZNK12TiXmlComment6AcceptEP12TiXmlVisitor, .-_ZNK12TiXmlComment6AcceptEP12TiXmlVisitor
	.section	.text._ZNK9TiXmlText6AcceptEP12TiXmlVisitor,"ax",%progbits
	.align	2
	.global	_ZNK9TiXmlText6AcceptEP12TiXmlVisitor
	.hidden	_ZNK9TiXmlText6AcceptEP12TiXmlVisitor
	.type	_ZNK9TiXmlText6AcceptEP12TiXmlVisitor, %function
_ZNK9TiXmlText6AcceptEP12TiXmlVisitor:
	@ args = 0, pretend = 0, frame = 0
	@ frame_needed = 0, uses_anonymous_args = 0
	stmfd	sp!, {r3, lr}
	ldr	ip, [r1, #0]
	mov	r2, r1
	ldr	r3, [ip, #28]
	mov	r1, r0
	mov	r0, r2
	blx	r3
	ldmfd	sp!, {r3, pc}
	.size	_ZNK9TiXmlText6AcceptEP12TiXmlVisitor, .-_ZNK9TiXmlText6AcceptEP12TiXmlVisitor
	.section	.text._ZNK16TiXmlDeclaration6AcceptEP12TiXmlVisitor,"ax",%progbits
	.align	2
	.global	_ZNK16TiXmlDeclaration6AcceptEP12TiXmlVisitor
	.hidden	_ZNK16TiXmlDeclaration6AcceptEP12TiXmlVisitor
	.type	_ZNK16TiXmlDeclaration6AcceptEP12TiXmlVisitor, %function
_ZNK16TiXmlDeclaration6AcceptEP12TiXmlVisitor:
	@ args = 0, pretend = 0, frame = 0
	@ frame_needed = 0, uses_anonymous_args = 0
	stmfd	sp!, {r3, lr}
	ldr	ip, [r1, #0]
	mov	r2, r1
	ldr	r3, [ip, #24]
	mov	r1, r0
	mov	r0, r2
	blx	r3
	ldmfd	sp!, {r3, pc}
	.size	_ZNK16TiXmlDeclaration6AcceptEP12TiXmlVisitor, .-_ZNK16TiXmlDeclaration6AcceptEP12TiXmlVisitor
	.section	.text._ZNK12TiXmlUnknown6AcceptEP12TiXmlVisitor,"ax",%progbits
	.align	2
	.global	_ZNK12TiXmlUnknown6AcceptEP12TiXmlVisitor
	.hidden	_ZNK12TiXmlUnknown6AcceptEP12TiXmlVisitor
	.type	_ZNK12TiXmlUnknown6AcceptEP12TiXmlVisitor, %function
_ZNK12TiXmlUnknown6AcceptEP12TiXmlVisitor:
	@ args = 0, pretend = 0, frame = 0
	@ frame_needed = 0, uses_anonymous_args = 0
	stmfd	sp!, {r3, lr}
	ldr	ip, [r1, #0]
	mov	r2, r1
	ldr	r3, [ip, #36]
	mov	r1, r0
	mov	r0, r2
	blx	r3
	ldmfd	sp!, {r3, pc}
	.size	_ZNK12TiXmlUnknown6AcceptEP12TiXmlVisitor, .-_ZNK12TiXmlUnknown6AcceptEP12TiXmlVisitor
	.section	.text._ZN17TiXmlAttributeSetC2Ev,"ax",%progbits
	.align	2
	.global	_ZN17TiXmlAttributeSetC2Ev
	.hidden	_ZN17TiXmlAttributeSetC2Ev
	.type	_ZN17TiXmlAttributeSetC2Ev, %function
_ZN17TiXmlAttributeSetC2Ev:
	@ args = 0, pretend = 0, frame = 0
	@ frame_needed = 0, uses_anonymous_args = 0
	@ link register save eliminated.
	str	r4, [sp, #-4]!
	mov	r3, r0
	mvn	ip, #0
	mov	r1, #0
	ldr	r2, .L179
	ldr	r4, .L179+4
	stmia	r0, {r4, ip}	@ phole stm
	str	r2, [r0, #24]
	str	r1, [r0, #16]
	str	r0, [r3, #28]
	str	ip, [r0, #8]
	str	r1, [r0, #12]
	str	r2, [r0, #20]
	str	r0, [r3, #32]
	ldmfd	sp!, {r4}
	bx	lr
.L180:
	.align	2
.L179:
	.word	_ZN11TiXmlString8nullrep_E
	.word	_ZTV14TiXmlAttribute+8
	.size	_ZN17TiXmlAttributeSetC2Ev, .-_ZN17TiXmlAttributeSetC2Ev
	.section	.text._ZN17TiXmlAttributeSetC1Ev,"ax",%progbits
	.align	2
	.global	_ZN17TiXmlAttributeSetC1Ev
	.hidden	_ZN17TiXmlAttributeSetC1Ev
	.type	_ZN17TiXmlAttributeSetC1Ev, %function
_ZN17TiXmlAttributeSetC1Ev:
	@ args = 0, pretend = 0, frame = 0
	@ frame_needed = 0, uses_anonymous_args = 0
	@ link register save eliminated.
	str	r4, [sp, #-4]!
	mov	r3, r0
	mvn	ip, #0
	mov	r1, #0
	ldr	r2, .L189
	ldr	r4, .L189+4
	stmia	r0, {r4, ip}	@ phole stm
	str	r2, [r0, #24]
	str	r1, [r0, #16]
	str	r0, [r3, #28]
	str	ip, [r0, #8]
	str	r1, [r0, #12]
	str	r2, [r0, #20]
	str	r0, [r3, #32]
	ldmfd	sp!, {r4}
	bx	lr
.L190:
	.align	2
.L189:
	.word	_ZN11TiXmlString8nullrep_E
	.word	_ZTV14TiXmlAttribute+8
	.size	_ZN17TiXmlAttributeSetC1Ev, .-_ZN17TiXmlAttributeSetC1Ev
	.section	.text._ZN17TiXmlAttributeSet3AddEP14TiXmlAttribute,"ax",%progbits
	.align	2
	.global	_ZN17TiXmlAttributeSet3AddEP14TiXmlAttribute
	.hidden	_ZN17TiXmlAttributeSet3AddEP14TiXmlAttribute
	.type	_ZN17TiXmlAttributeSet3AddEP14TiXmlAttribute, %function
_ZN17TiXmlAttributeSet3AddEP14TiXmlAttribute:
	@ args = 0, pretend = 0, frame = 0
	@ frame_needed = 0, uses_anonymous_args = 0
	@ link register save eliminated.
	ldr	r2, [r0, #28]
	str	r2, [r1, #28]
	ldr	r3, [r0, #28]
	str	r0, [r1, #32]
	str	r1, [r0, #28]
	str	r1, [r3, #32]
	bx	lr
	.size	_ZN17TiXmlAttributeSet3AddEP14TiXmlAttribute, .-_ZN17TiXmlAttributeSet3AddEP14TiXmlAttribute
	.section	.text._ZN17TiXmlAttributeSet6RemoveEP14TiXmlAttribute,"ax",%progbits
	.align	2
	.global	_ZN17TiXmlAttributeSet6RemoveEP14TiXmlAttribute
	.hidden	_ZN17TiXmlAttributeSet6RemoveEP14TiXmlAttribute
	.type	_ZN17TiXmlAttributeSet6RemoveEP14TiXmlAttribute, %function
_ZN17TiXmlAttributeSet6RemoveEP14TiXmlAttribute:
	@ args = 0, pretend = 0, frame = 0
	@ frame_needed = 0, uses_anonymous_args = 0
	@ link register save eliminated.
	ldr	r3, [r0, #32]
	cmp	r3, r0
	bxeq	lr
	cmp	r3, r1
	bne	.L199
	b	.L195
.L197:
	cmp	r1, r3
	beq	.L195
.L199:
	ldr	r3, [r3, #32]
	cmp	r3, r0
	bne	.L197
	bx	lr
.L195:
	ldr	r2, [r1, #28]
	ldr	ip, [r1, #32]
	str	ip, [r2, #32]
	ldr	r0, [r1, #32]
	mov	r3, #0
	str	r2, [r0, #28]
	str	r3, [r1, #32]
	str	r3, [r1, #28]
	bx	lr
	.size	_ZN17TiXmlAttributeSet6RemoveEP14TiXmlAttribute, .-_ZN17TiXmlAttributeSet6RemoveEP14TiXmlAttribute
	.section	.text._ZNK11TiXmlHandle10FirstChildEv,"ax",%progbits
	.align	2
	.global	_ZNK11TiXmlHandle10FirstChildEv
	.hidden	_ZNK11TiXmlHandle10FirstChildEv
	.type	_ZNK11TiXmlHandle10FirstChildEv, %function
_ZNK11TiXmlHandle10FirstChildEv:
	@ args = 0, pretend = 0, frame = 0
	@ frame_needed = 0, uses_anonymous_args = 0
	@ link register save eliminated.
	ldr	r3, [r1, #0]
	cmp	r3, #0
	beq	.L202
	ldr	r3, [r3, #24]
	cmp	r3, #0
	strne	r3, [r0, #0]
	bxne	lr
.L202:
	mov	r1, #0
	str	r1, [r0, #0]
	bx	lr
	.size	_ZNK11TiXmlHandle10FirstChildEv, .-_ZNK11TiXmlHandle10FirstChildEv
	.section	.text._ZNK11TiXmlHandle5ChildEi,"ax",%progbits
	.align	2
	.global	_ZNK11TiXmlHandle5ChildEi
	.hidden	_ZNK11TiXmlHandle5ChildEi
	.type	_ZNK11TiXmlHandle5ChildEi, %function
_ZNK11TiXmlHandle5ChildEi:
	@ args = 0, pretend = 0, frame = 0
	@ frame_needed = 0, uses_anonymous_args = 0
	@ link register save eliminated.
	ldr	r3, [r1, #0]
	cmp	r3, #0
	beq	.L206
	ldr	r3, [r3, #24]
	cmp	r3, #0
	cmpne	r2, #0
	ble	.L207
	mov	r1, #0
.L208:
	ldr	r3, [r3, #40]
	add	r1, r1, #1
	cmp	r3, #0
	cmpne	r2, r1
	bgt	.L208
.L207:
	cmp	r3, #0
	strne	r3, [r0, #0]
	bxne	lr
.L206:
	mov	r3, #0
	str	r3, [r0, #0]
	bx	lr
	.size	_ZNK11TiXmlHandle5ChildEi, .-_ZNK11TiXmlHandle5ChildEi
	.section	.text._ZN12TiXmlPrinter10VisitEnterERK13TiXmlDocument,"ax",%progbits
	.align	2
	.global	_ZN12TiXmlPrinter10VisitEnterERK13TiXmlDocument
	.hidden	_ZN12TiXmlPrinter10VisitEnterERK13TiXmlDocument
	.type	_ZN12TiXmlPrinter10VisitEnterERK13TiXmlDocument, %function
_ZN12TiXmlPrinter10VisitEnterERK13TiXmlDocument:
	@ args = 0, pretend = 0, frame = 0
	@ frame_needed = 0, uses_anonymous_args = 0
	@ link register save eliminated.
	mov	r0, #1
	bx	lr
	.size	_ZN12TiXmlPrinter10VisitEnterERK13TiXmlDocument, .-_ZN12TiXmlPrinter10VisitEnterERK13TiXmlDocument
	.section	.text._ZN12TiXmlPrinter9VisitExitERK13TiXmlDocument,"ax",%progbits
	.align	2
	.global	_ZN12TiXmlPrinter9VisitExitERK13TiXmlDocument
	.hidden	_ZN12TiXmlPrinter9VisitExitERK13TiXmlDocument
	.type	_ZN12TiXmlPrinter9VisitExitERK13TiXmlDocument, %function
_ZN12TiXmlPrinter9VisitExitERK13TiXmlDocument:
	@ args = 0, pretend = 0, frame = 0
	@ frame_needed = 0, uses_anonymous_args = 0
	@ link register save eliminated.
	mov	r0, #1
	bx	lr
	.size	_ZN12TiXmlPrinter9VisitExitERK13TiXmlDocument, .-_ZN12TiXmlPrinter9VisitExitERK13TiXmlDocument
	.section	.text._ZN12TiXmlVisitorD0Ev,"axG",%progbits,_ZN12TiXmlVisitorD0Ev,comdat
	.align	2
	.weak	_ZN12TiXmlVisitorD0Ev
	.hidden	_ZN12TiXmlVisitorD0Ev
	.type	_ZN12TiXmlVisitorD0Ev, %function
_ZN12TiXmlVisitorD0Ev:
	@ args = 0, pretend = 0, frame = 0
	@ frame_needed = 0, uses_anonymous_args = 0
	ldr	r3, .L218
	stmfd	sp!, {r4, lr}
	mov	r4, r0
	str	r3, [r0, #0]
	bl	_ZdlPv
	mov	r0, r4
	ldmfd	sp!, {r4, pc}
.L219:
	.align	2
.L218:
	.word	_ZTV12TiXmlVisitor+8
	.size	_ZN12TiXmlVisitorD0Ev, .-_ZN12TiXmlVisitorD0Ev
	.section	.text._ZN9TiXmlBaseD0Ev,"axG",%progbits,_ZN9TiXmlBaseD0Ev,comdat
	.align	2
	.weak	_ZN9TiXmlBaseD0Ev
	.hidden	_ZN9TiXmlBaseD0Ev
	.type	_ZN9TiXmlBaseD0Ev, %function
_ZN9TiXmlBaseD0Ev:
	@ args = 0, pretend = 0, frame = 0
	@ frame_needed = 0, uses_anonymous_args = 0
	ldr	r3, .L222
	stmfd	sp!, {r4, lr}
	mov	r4, r0
	str	r3, [r0, #0]
	bl	_ZdlPv
	mov	r0, r4
	ldmfd	sp!, {r4, pc}
.L223:
	.align	2
.L222:
	.word	_ZTV9TiXmlBase+8
	.size	_ZN9TiXmlBaseD0Ev, .-_ZN9TiXmlBaseD0Ev
	.section	.text._ZNK17TiXmlAttributeSet4FindEPKc,"ax",%progbits
	.align	2
	.global	_ZNK17TiXmlAttributeSet4FindEPKc
	.hidden	_ZNK17TiXmlAttributeSet4FindEPKc
	.type	_ZNK17TiXmlAttributeSet4FindEPKc, %function
_ZNK17TiXmlAttributeSet4FindEPKc:
	@ args = 0, pretend = 0, frame = 0
	@ frame_needed = 0, uses_anonymous_args = 0
	stmfd	sp!, {r4, r5, r6, lr}
	ldr	r4, [r0, #32]
	mov	r5, r0
	cmp	r4, r0
	mov	r6, r1
	bne	.L229
	b	.L225
.L231:
	ldr	r4, [r4, #32]
	cmp	r4, r5
	beq	.L225
.L229:
	ldr	r0, [r4, #20]
	mov	r1, r6
	add	r0, r0, #8
	bl	strcmp
	cmp	r0, #0
	bne	.L231
	mov	r0, r4
	ldmfd	sp!, {r4, r5, r6, pc}
.L225:
	mov	r4, #0
	mov	r0, r4
	ldmfd	sp!, {r4, r5, r6, pc}
	.size	_ZNK17TiXmlAttributeSet4FindEPKc, .-_ZNK17TiXmlAttributeSet4FindEPKc
	.section	.text._ZNK9TiXmlNode15PreviousSiblingEPKc,"ax",%progbits
	.align	2
	.global	_ZNK9TiXmlNode15PreviousSiblingEPKc
	.hidden	_ZNK9TiXmlNode15PreviousSiblingEPKc
	.type	_ZNK9TiXmlNode15PreviousSiblingEPKc, %function
_ZNK9TiXmlNode15PreviousSiblingEPKc:
	@ args = 0, pretend = 0, frame = 0
	@ frame_needed = 0, uses_anonymous_args = 0
	stmfd	sp!, {r3, r4, r5, lr}
	ldr	r4, [r0, #36]
	mov	r5, r1
	cmp	r4, #0
	bne	.L236
	b	.L233
.L238:
	ldr	r4, [r4, #36]
	cmp	r4, #0
	beq	.L233
.L236:
	ldr	r0, [r4, #32]
	mov	r1, r5
	add	r0, r0, #8
	bl	strcmp
	cmp	r0, #0
	bne	.L238
.L233:
	mov	r0, r4
	ldmfd	sp!, {r3, r4, r5, pc}
	.size	_ZNK9TiXmlNode15PreviousSiblingEPKc, .-_ZNK9TiXmlNode15PreviousSiblingEPKc
	.section	.text._ZNK9TiXmlNode11NextSiblingEPKc,"ax",%progbits
	.align	2
	.global	_ZNK9TiXmlNode11NextSiblingEPKc
	.hidden	_ZNK9TiXmlNode11NextSiblingEPKc
	.type	_ZNK9TiXmlNode11NextSiblingEPKc, %function
_ZNK9TiXmlNode11NextSiblingEPKc:
	@ args = 0, pretend = 0, frame = 0
	@ frame_needed = 0, uses_anonymous_args = 0
	stmfd	sp!, {r3, r4, r5, lr}
	ldr	r4, [r0, #40]
	mov	r5, r1
	cmp	r4, #0
	bne	.L243
	b	.L240
.L245:
	ldr	r4, [r4, #40]
	cmp	r4, #0
	beq	.L240
.L243:
	ldr	r0, [r4, #32]
	mov	r1, r5
	add	r0, r0, #8
	bl	strcmp
	cmp	r0, #0
	bne	.L245
.L240:
	mov	r0, r4
	ldmfd	sp!, {r3, r4, r5, pc}
	.size	_ZNK9TiXmlNode11NextSiblingEPKc, .-_ZNK9TiXmlNode11NextSiblingEPKc
	.section	.text._ZNK9TiXmlNode9LastChildEPKc,"ax",%progbits
	.align	2
	.global	_ZNK9TiXmlNode9LastChildEPKc
	.hidden	_ZNK9TiXmlNode9LastChildEPKc
	.type	_ZNK9TiXmlNode9LastChildEPKc, %function
_ZNK9TiXmlNode9LastChildEPKc:
	@ args = 0, pretend = 0, frame = 0
	@ frame_needed = 0, uses_anonymous_args = 0
	stmfd	sp!, {r3, r4, r5, lr}
	ldr	r4, [r0, #28]
	mov	r5, r1
	cmp	r4, #0
	bne	.L250
	b	.L247
.L252:
	ldr	r4, [r4, #36]
	cmp	r4, #0
	beq	.L247
.L250:
	ldr	r0, [r4, #32]
	mov	r1, r5
	add	r0, r0, #8
	bl	strcmp
	cmp	r0, #0
	bne	.L252
.L247:
	mov	r0, r4
	ldmfd	sp!, {r3, r4, r5, pc}
	.size	_ZNK9TiXmlNode9LastChildEPKc, .-_ZNK9TiXmlNode9LastChildEPKc
	.section	.text._ZNK9TiXmlNode10FirstChildEPKc,"ax",%progbits
	.align	2
	.global	_ZNK9TiXmlNode10FirstChildEPKc
	.hidden	_ZNK9TiXmlNode10FirstChildEPKc
	.type	_ZNK9TiXmlNode10FirstChildEPKc, %function
_ZNK9TiXmlNode10FirstChildEPKc:
	@ args = 0, pretend = 0, frame = 0
	@ frame_needed = 0, uses_anonymous_args = 0
	stmfd	sp!, {r3, r4, r5, lr}
	ldr	r4, [r0, #24]
	mov	r5, r1
	cmp	r4, #0
	bne	.L257
	b	.L254
.L259:
	ldr	r4, [r4, #40]
	cmp	r4, #0
	beq	.L254
.L257:
	ldr	r0, [r4, #32]
	mov	r1, r5
	add	r0, r0, #8
	bl	strcmp
	cmp	r0, #0
	bne	.L259
.L254:
	mov	r0, r4
	ldmfd	sp!, {r3, r4, r5, pc}
	.size	_ZNK9TiXmlNode10FirstChildEPKc, .-_ZNK9TiXmlNode10FirstChildEPKc
	.section	.text._ZNK12TiXmlUnknown5PrintEP8__XXFILEi,"ax",%progbits
	.align	2
	.global	_ZNK12TiXmlUnknown5PrintEP8__XXFILEi
	.hidden	_ZNK12TiXmlUnknown5PrintEP8__XXFILEi
	.type	_ZNK12TiXmlUnknown5PrintEP8__XXFILEi, %function
_ZNK12TiXmlUnknown5PrintEP8__XXFILEi:
	@ args = 0, pretend = 0, frame = 0
	@ frame_needed = 0, uses_anonymous_args = 0
	stmfd	sp!, {r4, r5, r6, r7, r8, lr}
	subs	r6, r2, #0
	mov	r8, r0
	mov	r4, r1
	ble	.L261
	ldr	r0, .L279
	mov	r1, #1
	mov	r2, #4
	mov	r3, r4
	sub	r7, r6, #1
	bl	fwrite
	cmp	r6, #1
	and	r7, r7, #3
	mov	r5, #1
	ble	.L261
	cmp	r7, #0
	beq	.L262
	cmp	r7, #1
	beq	.L276
	cmp	r7, #2
	beq	.L277
	mov	r1, r5
	ldr	r0, .L279
	mov	r2, #4
	mov	r3, r4
	bl	fwrite
	mov	r5, #2
.L277:
	ldr	r0, .L279
	mov	r1, #1
	mov	r2, #4
	mov	r3, r4
	bl	fwrite
	add	r5, r5, #1
.L276:
	add	r5, r5, #1
	ldr	r0, .L279
	mov	r1, #1
	mov	r2, #4
	mov	r3, r4
	bl	fwrite
	cmp	r6, r5
	ble	.L261
.L262:
	mov	r1, #1
	mov	r2, #4
	mov	r3, r4
	ldr	r0, .L279
	bl	fwrite
	mov	r1, #1
	mov	r2, #4
	mov	r3, r4
	ldr	r0, .L279
	bl	fwrite
	mov	r1, #1
	mov	r2, #4
	mov	r3, r4
	ldr	r0, .L279
	bl	fwrite
	add	r5, r5, #4
	ldr	r0, .L279
	mov	r1, #1
	mov	r2, #4
	mov	r3, r4
	bl	fwrite
	cmp	r6, r5
	bgt	.L262
.L261:
	ldr	r2, [r8, #32]
	mov	r0, r4
	add	r2, r2, #8
	ldr	r1, .L279+4
	ldmfd	sp!, {r4, r5, r6, r7, r8, lr}
	b	fprintf
.L280:
	.align	2
.L279:
	.word	.LC0
	.word	.LC1
	.size	_ZNK12TiXmlUnknown5PrintEP8__XXFILEi, .-_ZNK12TiXmlUnknown5PrintEP8__XXFILEi
	.section	.text._ZNK12TiXmlComment5PrintEP8__XXFILEi,"ax",%progbits
	.align	2
	.global	_ZNK12TiXmlComment5PrintEP8__XXFILEi
	.hidden	_ZNK12TiXmlComment5PrintEP8__XXFILEi
	.type	_ZNK12TiXmlComment5PrintEP8__XXFILEi, %function
_ZNK12TiXmlComment5PrintEP8__XXFILEi:
	@ args = 0, pretend = 0, frame = 0
	@ frame_needed = 0, uses_anonymous_args = 0
	stmfd	sp!, {r4, r5, r6, r7, r8, lr}
	subs	r6, r2, #0
	mov	r8, r0
	mov	r4, r1
	ble	.L282
	ldr	r0, .L300
	mov	r1, #1
	mov	r2, #4
	mov	r3, r4
	sub	r7, r6, #1
	bl	fwrite
	cmp	r6, #1
	and	r7, r7, #3
	mov	r5, #1
	ble	.L282
	cmp	r7, #0
	beq	.L283
	cmp	r7, #1
	beq	.L297
	cmp	r7, #2
	beq	.L298
	mov	r1, r5
	ldr	r0, .L300
	mov	r2, #4
	mov	r3, r4
	bl	fwrite
	mov	r5, #2
.L298:
	ldr	r0, .L300
	mov	r1, #1
	mov	r2, #4
	mov	r3, r4
	bl	fwrite
	add	r5, r5, #1
.L297:
	add	r5, r5, #1
	ldr	r0, .L300
	mov	r1, #1
	mov	r2, #4
	mov	r3, r4
	bl	fwrite
	cmp	r6, r5
	ble	.L282
.L283:
	mov	r1, #1
	mov	r2, #4
	mov	r3, r4
	ldr	r0, .L300
	bl	fwrite
	mov	r1, #1
	mov	r2, #4
	mov	r3, r4
	ldr	r0, .L300
	bl	fwrite
	mov	r1, #1
	mov	r2, #4
	mov	r3, r4
	ldr	r0, .L300
	bl	fwrite
	add	r5, r5, #4
	ldr	r0, .L300
	mov	r1, #1
	mov	r2, #4
	mov	r3, r4
	bl	fwrite
	cmp	r6, r5
	bgt	.L283
.L282:
	ldr	r2, [r8, #32]
	mov	r0, r4
	add	r2, r2, #8
	ldr	r1, .L300+4
	ldmfd	sp!, {r4, r5, r6, r7, r8, lr}
	b	fprintf
.L301:
	.align	2
.L300:
	.word	.LC0
	.word	.LC2
	.size	_ZNK12TiXmlComment5PrintEP8__XXFILEi, .-_ZNK12TiXmlComment5PrintEP8__XXFILEi
	.section	.text._ZNK13TiXmlDocument5PrintEP8__XXFILEi,"ax",%progbits
	.align	2
	.global	_ZNK13TiXmlDocument5PrintEP8__XXFILEi
	.hidden	_ZNK13TiXmlDocument5PrintEP8__XXFILEi
	.type	_ZNK13TiXmlDocument5PrintEP8__XXFILEi, %function
_ZNK13TiXmlDocument5PrintEP8__XXFILEi:
	@ args = 0, pretend = 0, frame = 0
	@ frame_needed = 0, uses_anonymous_args = 0
	stmfd	sp!, {r4, r5, r6, lr}
	ldr	r4, [r0, #24]
	mov	r5, r1
	cmp	r4, #0
	mov	r6, r2
	ldmeqfd	sp!, {r4, r5, r6, pc}
.L306:
	ldr	r1, [r4, #0]
	mov	r0, r4
	ldr	r3, [r1, #8]
	mov	r2, r6
	mov	r1, r5
	blx	r3
	mov	r0, #10
	mov	r1, r5
	bl	fputc
	ldr	r4, [r4, #40]
	cmp	r4, #0
	bne	.L306
	ldmfd	sp!, {r4, r5, r6, pc}
	.size	_ZNK13TiXmlDocument5PrintEP8__XXFILEi, .-_ZNK13TiXmlDocument5PrintEP8__XXFILEi
	.section	.text._ZNK12TiXmlElement5PrintEP8__XXFILEi,"ax",%progbits
	.align	2
	.global	_ZNK12TiXmlElement5PrintEP8__XXFILEi
	.hidden	_ZNK12TiXmlElement5PrintEP8__XXFILEi
	.type	_ZNK12TiXmlElement5PrintEP8__XXFILEi, %function
_ZNK12TiXmlElement5PrintEP8__XXFILEi:
	@ args = 0, pretend = 0, frame = 0
	@ frame_needed = 0, uses_anonymous_args = 0
	stmfd	sp!, {r4, r5, r6, r7, r8, lr}
	subs	r5, r2, #0
	mov	r7, r0
	mov	r4, r1
	ble	.L309
	ldr	r0, .L358
	mov	r1, #1
	mov	r2, #4
	mov	r3, r4
	sub	r8, r5, #1
	bl	fwrite
	cmp	r5, #1
	and	r8, r8, #3
	mov	r6, #1
	ble	.L309
	cmp	r8, #0
	beq	.L310
	cmp	r8, #1
	beq	.L350
	cmp	r8, #2
	beq	.L351
	mov	r1, r6
	ldr	r0, .L358
	mov	r2, #4
	mov	r3, r4
	bl	fwrite
	mov	r6, #2
.L351:
	ldr	r0, .L358
	mov	r1, #1
	mov	r2, #4
	mov	r3, r4
	bl	fwrite
	add	r6, r6, #1
.L350:
	add	r6, r6, #1
	ldr	r0, .L358
	mov	r1, #1
	mov	r2, #4
	mov	r3, r4
	bl	fwrite
	cmp	r5, r6
	ble	.L309
.L310:
	mov	r1, #1
	mov	r2, #4
	mov	r3, r4
	ldr	r0, .L358
	bl	fwrite
	mov	r1, #1
	mov	r2, #4
	mov	r3, r4
	ldr	r0, .L358
	bl	fwrite
	mov	r1, #1
	mov	r2, #4
	mov	r3, r4
	ldr	r0, .L358
	bl	fwrite
	add	r6, r6, #4
	ldr	r0, .L358
	mov	r1, #1
	mov	r2, #4
	mov	r3, r4
	bl	fwrite
	cmp	r5, r6
	bgt	.L310
.L309:
	ldr	r2, [r7, #32]
	mov	r0, r4
	add	r2, r2, #8
	ldr	r1, .L358+4
	bl	fprintf
	ldr	r6, [r7, #76]
	add	r3, r7, #44
	cmp	r6, r3
	beq	.L311
	cmp	r6, #0
	beq	.L311
.L352:
	mov	r1, r4
	mov	r0, #32
	bl	fputc
	ldr	r3, [r6, #0]
	mov	r0, r6
	mov	r1, r4
	ldr	ip, [r3, #8]
	mov	r2, r5
	blx	ip
	ldr	r6, [r6, #32]
	ldr	r1, [r6, #24]
	ldr	r0, [r1, #0]
	cmp	r0, #0
	bne	.L352
	ldr	r2, [r6, #20]
	ldr	lr, [r2, #0]
	cmp	lr, #0
	bne	.L352
.L311:
	ldr	r0, [r7, #24]
	cmp	r0, #0
	beq	.L355
	ldr	r1, [r7, #28]
	cmp	r0, r1
	beq	.L356
.L314:
	mov	r0, #62
	mov	r1, r4
	bl	fputc
	ldr	r6, [r7, #24]
	cmp	r6, #0
	addne	r8, r5, #1
	beq	.L319
.L316:
	ldr	lr, [r6, #0]
	mov	r0, r6
	ldr	r2, [lr, #56]
	blx	r2
	cmp	r0, #0
	beq	.L357
.L315:
	ldr	ip, [r6, #0]
	mov	r0, r6
	ldr	r3, [ip, #8]
	mov	r1, r4
	mov	r2, r8
	blx	r3
	ldr	r6, [r6, #40]
	cmp	r6, #0
	bne	.L316
.L319:
	mov	r0, #10
	mov	r1, r4
	bl	fputc
	cmp	r5, #0
	ble	.L317
	ldr	r0, .L358
	mov	r1, #1
	mov	r2, #4
	mov	r3, r4
	sub	r6, r5, #1
	bl	fwrite
	cmp	r5, #1
	and	r8, r6, #3
	mov	r6, #1
	ble	.L317
	cmp	r8, #0
	beq	.L318
	cmp	r8, #1
	beq	.L348
	cmp	r8, #2
	beq	.L349
	mov	r1, r6
	ldr	r0, .L358
	mov	r2, #4
	mov	r3, r4
	bl	fwrite
	mov	r6, #2
.L349:
	ldr	r0, .L358
	mov	r1, #1
	mov	r2, #4
	mov	r3, r4
	bl	fwrite
	add	r6, r6, #1
.L348:
	add	r6, r6, #1
	ldr	r0, .L358
	mov	r1, #1
	mov	r2, #4
	mov	r3, r4
	bl	fwrite
	cmp	r5, r6
	ble	.L317
.L318:
	mov	r1, #1
	mov	r2, #4
	mov	r3, r4
	ldr	r0, .L358
	bl	fwrite
	mov	r1, #1
	mov	r2, #4
	mov	r3, r4
	ldr	r0, .L358
	bl	fwrite
	mov	r1, #1
	mov	r2, #4
	mov	r3, r4
	ldr	r0, .L358
	bl	fwrite
	add	r6, r6, #4
	ldr	r0, .L358
	mov	r1, #1
	mov	r2, #4
	mov	r3, r4
	bl	fwrite
	cmp	r5, r6
	bgt	.L318
.L317:
	ldr	r1, [r7, #32]
	mov	r0, r4
	add	r2, r1, #8
	ldr	r1, .L358+8
	ldmfd	sp!, {r4, r5, r6, r7, r8, lr}
	b	fprintf
.L357:
	mov	r1, r4
	mov	r0, #10
	bl	fputc
	b	.L315
.L356:
	ldr	r3, [r0, #0]
	ldr	ip, [r3, #56]
	blx	ip
	cmp	r0, #0
	beq	.L314
	mov	r1, r4
	mov	r0, #62
	bl	fputc
	ldr	r0, [r7, #24]
	add	r2, r5, #1
	ldr	r1, [r0, #0]
	ldr	ip, [r1, #8]
	mov	r1, r4
	blx	ip
	b	.L317
.L355:
	mov	r3, r4
	mov	r1, #1
	mov	r2, #3
	ldr	r0, .L358+12
	ldmfd	sp!, {r4, r5, r6, r7, r8, lr}
	b	fwrite
.L359:
	.align	2
.L358:
	.word	.LC0
	.word	.LC3
	.word	.LC5
	.word	.LC4
	.size	_ZNK12TiXmlElement5PrintEP8__XXFILEi, .-_ZNK12TiXmlElement5PrintEP8__XXFILEi
	.section	.text._ZNK14TiXmlAttribute11DoubleValueEv,"ax",%progbits
	.align	2
	.global	_ZNK14TiXmlAttribute11DoubleValueEv
	.hidden	_ZNK14TiXmlAttribute11DoubleValueEv
	.type	_ZNK14TiXmlAttribute11DoubleValueEv, %function
_ZNK14TiXmlAttribute11DoubleValueEv:
	@ args = 0, pretend = 0, frame = 0
	@ frame_needed = 0, uses_anonymous_args = 0
	@ link register save eliminated.
	ldr	r0, [r0, #24]
	add	r0, r0, #8
	b	atof
	.size	_ZNK14TiXmlAttribute11DoubleValueEv, .-_ZNK14TiXmlAttribute11DoubleValueEv
	.section	.text._ZNK14TiXmlAttribute8IntValueEv,"ax",%progbits
	.align	2
	.global	_ZNK14TiXmlAttribute8IntValueEv
	.hidden	_ZNK14TiXmlAttribute8IntValueEv
	.type	_ZNK14TiXmlAttribute8IntValueEv, %function
_ZNK14TiXmlAttribute8IntValueEv:
	@ args = 0, pretend = 0, frame = 0
	@ frame_needed = 0, uses_anonymous_args = 0
	@ link register save eliminated.
	ldr	r0, [r0, #24]
	add	r0, r0, #8
	b	atoi
	.size	_ZNK14TiXmlAttribute8IntValueEv, .-_ZNK14TiXmlAttribute8IntValueEv
	.section	.text._ZN9TiXmlBase12EncodeStringERK11TiXmlStringPS0_,"ax",%progbits
	.align	2
	.global	_ZN9TiXmlBase12EncodeStringERK11TiXmlStringPS0_
	.hidden	_ZN9TiXmlBase12EncodeStringERK11TiXmlStringPS0_
	.type	_ZN9TiXmlBase12EncodeStringERK11TiXmlStringPS0_, %function
_ZN9TiXmlBase12EncodeStringERK11TiXmlStringPS0_:
	@ args = 0, pretend = 0, frame = 40
	@ frame_needed = 0, uses_anonymous_args = 0
	stmfd	sp!, {r4, r5, r6, r7, r8, r9, sl, lr}
	ldr	r3, [r0, #0]
	sub	sp, sp, #40
	ldr	ip, [r3, #0]
	ldr	r8, .L391
	mov	r7, r0
	mov	r6, r1
	mov	r4, #0
	add	r9, sp, #39
	add	sl, sp, #4
.L381:
	cmp	r4, ip
	bge	.L383
.L378:
	add	r2, r4, r3
	ldrb	r5, [r2, #8]	@ zero_extendqisi2
	cmp	r5, #38
	beq	.L384
	cmp	r5, #60
	beq	.L385
	cmp	r5, #62
	beq	.L386
	cmp	r5, #34
	beq	.L387
	cmp	r5, #39
	beq	.L388
	cmp	r5, #31
	bhi	.L377
	mov	r2, r5
	ldr	r1, .L391+4
	mov	r0, sl
	bl	sprintf
	mov	r0, sl
	bl	strlen
	mov	r1, sl
	add	r4, r4, #1
	mov	r2, r0
	mov	r0, r6
	bl	_ZN11TiXmlString6appendEPKcj
	ldr	r3, [r7, #0]
	ldr	ip, [r3, #0]
	cmp	r4, ip
	blt	.L378
.L383:
	add	sp, sp, #40
	ldmfd	sp!, {r4, r5, r6, r7, r8, r9, sl, pc}
.L384:
	sub	r1, ip, #2
	cmp	r4, r1
	addge	r4, r4, #1
	blt	.L389
.L372:
	mov	r0, r6
	ldmia	r8, {r1, r2}	@ phole ldm
	bl	_ZN11TiXmlString6appendEPKcj
	ldr	r3, [r7, #0]
	ldr	ip, [r3, #0]
	b	.L381
.L389:
	add	r1, r4, #1
	add	r0, r3, r1
	ldrb	r0, [r0, #8]	@ zero_extendqisi2
	cmp	r0, #35
	beq	.L390
.L368:
	mov	r4, r1
	b	.L372
.L377:
	mov	r0, r6
	mov	r1, r9
	mov	r2, #1
	strb	r5, [sp, #39]
	bl	_ZN11TiXmlString6appendEPKcj
	ldr	r3, [r7, #0]
	add	r4, r4, #1
	ldr	ip, [r3, #0]
	b	.L381
.L385:
	mov	r0, r6
	ldr	r1, [r8, #12]
	ldr	r2, [r8, #16]
	bl	_ZN11TiXmlString6appendEPKcj
	ldr	r3, [r7, #0]
	add	r4, r4, #1
	ldr	ip, [r3, #0]
	b	.L381
.L386:
	mov	r0, r6
	ldr	r1, [r8, #24]
	ldr	r2, [r8, #28]
	bl	_ZN11TiXmlString6appendEPKcj
	ldr	r3, [r7, #0]
	add	r4, r4, #1
	ldr	ip, [r3, #0]
	b	.L381
.L387:
	mov	r0, r6
	ldr	r1, [r8, #36]
	ldr	r2, [r8, #40]
	bl	_ZN11TiXmlString6appendEPKcj
	ldr	r3, [r7, #0]
	add	r4, r4, #1
	ldr	ip, [r3, #0]
	b	.L381
.L390:
	ldrb	r2, [r2, #10]	@ zero_extendqisi2
	cmp	r2, #120
	bne	.L368
	b	.L380
.L370:
	ldr	ip, [r3, #0]
.L380:
	add	r5, r4, #8
	add	r1, r3, r5
	sub	r5, ip, #1
	cmp	r4, r5
	mov	r0, r6
	mov	r2, #1
	bge	.L381
	bl	_ZN11TiXmlString6appendEPKcj
	ldr	r3, [r7, #0]
	add	r4, r4, #1
	add	r1, r4, r3
	ldrb	ip, [r1, #8]	@ zero_extendqisi2
	cmp	ip, #59
	bne	.L370
	ldr	ip, [r3, #0]
	b	.L381
.L388:
	mov	r0, r6
	ldr	r1, [r8, #48]
	ldr	r2, [r8, #52]
	bl	_ZN11TiXmlString6appendEPKcj
	ldr	r3, [r7, #0]
	add	r4, r4, #1
	ldr	ip, [r3, #0]
	b	.L381
.L392:
	.align	2
.L391:
	.word	_ZN9TiXmlBase6entityE
	.word	.LC6
	.size	_ZN9TiXmlBase12EncodeStringERK11TiXmlStringPS0_, .-_ZN9TiXmlBase12EncodeStringERK11TiXmlStringPS0_
	.section	.text._ZNK14TiXmlAttribute16QueryDoubleValueEPd,"ax",%progbits
	.align	2
	.global	_ZNK14TiXmlAttribute16QueryDoubleValueEPd
	.hidden	_ZNK14TiXmlAttribute16QueryDoubleValueEPd
	.type	_ZNK14TiXmlAttribute16QueryDoubleValueEPd, %function
_ZNK14TiXmlAttribute16QueryDoubleValueEPd:
	@ args = 0, pretend = 0, frame = 0
	@ frame_needed = 0, uses_anonymous_args = 0
	stmfd	sp!, {r3, lr}
	ldr	r0, [r0, #24]
	mov	r2, r1
	add	r0, r0, #8
	ldr	r1, .L397
	bl	sscanf
	cmp	r0, #1
	movne	r0, #2
	moveq	r0, #0
	ldmfd	sp!, {r3, pc}
.L398:
	.align	2
.L397:
	.word	.LC7
	.size	_ZNK14TiXmlAttribute16QueryDoubleValueEPd, .-_ZNK14TiXmlAttribute16QueryDoubleValueEPd
	.section	.text._ZNK14TiXmlAttribute13QueryIntValueEPi,"ax",%progbits
	.align	2
	.global	_ZNK14TiXmlAttribute13QueryIntValueEPi
	.hidden	_ZNK14TiXmlAttribute13QueryIntValueEPi
	.type	_ZNK14TiXmlAttribute13QueryIntValueEPi, %function
_ZNK14TiXmlAttribute13QueryIntValueEPi:
	@ args = 0, pretend = 0, frame = 0
	@ frame_needed = 0, uses_anonymous_args = 0
	stmfd	sp!, {r3, lr}
	ldr	r0, [r0, #24]
	mov	r2, r1
	add	r0, r0, #8
	ldr	r1, .L403
	bl	sscanf
	cmp	r0, #1
	movne	r0, #2
	moveq	r0, #0
	ldmfd	sp!, {r3, pc}
.L404:
	.align	2
.L403:
	.word	.LC8
	.size	_ZNK14TiXmlAttribute13QueryIntValueEPi, .-_ZNK14TiXmlAttribute13QueryIntValueEPi
	.section	.text._ZNK13TiXmlDocument8SaveFileEP8__XXFILE,"ax",%progbits
	.align	2
	.global	_ZNK13TiXmlDocument8SaveFileEP8__XXFILE
	.hidden	_ZNK13TiXmlDocument8SaveFileEP8__XXFILE
	.type	_ZNK13TiXmlDocument8SaveFileEP8__XXFILE, %function
_ZNK13TiXmlDocument8SaveFileEP8__XXFILE:
	@ args = 0, pretend = 0, frame = 0
	@ frame_needed = 0, uses_anonymous_args = 0
	stmfd	sp!, {r3, r4, r5, lr}
	ldrb	r3, [r0, #68]	@ zero_extendqisi2
	mov	r5, r0
	cmp	r3, #0
	mov	r4, r1
	beq	.L406
	mov	r0, #239
	bl	fputc
	mov	r1, r4
	mov	r0, #187
	bl	fputc
	mov	r0, #191
	mov	r1, r4
	bl	fputc
.L406:
	ldr	r1, [r5, #0]
	mov	r0, r5
	ldr	ip, [r1, #8]
	mov	r2, #0
	mov	r1, r4
	blx	ip
	mov	r0, r4
	bl	ferror
	rsbs	r0, r0, #1
	movcc	r0, #0
	ldmfd	sp!, {r3, r4, r5, pc}
	.size	_ZNK13TiXmlDocument8SaveFileEP8__XXFILE, .-_ZNK13TiXmlDocument8SaveFileEP8__XXFILE
	.section	.text._ZN9TiXmlNode16InsertAfterChildEPS_RKS_,"ax",%progbits
	.align	2
	.global	_ZN9TiXmlNode16InsertAfterChildEPS_RKS_
	.hidden	_ZN9TiXmlNode16InsertAfterChildEPS_RKS_
	.type	_ZN9TiXmlNode16InsertAfterChildEPS_RKS_, %function
_ZN9TiXmlNode16InsertAfterChildEPS_RKS_:
	@ args = 0, pretend = 0, frame = 0
	@ frame_needed = 0, uses_anonymous_args = 0
	stmfd	sp!, {r4, r5, r6, lr}
	subs	r5, r1, #0
	sub	sp, sp, #8
	bne	.L415
.L409:
	mov	r0, #0
.L411:
	add	sp, sp, #8
	ldmfd	sp!, {r4, r5, r6, pc}
.L415:
	ldr	r6, [r5, #16]
	cmp	r6, r0
	bne	.L409
	ldr	r4, [r2, #20]
	cmp	r4, #0
	bne	.L410
	bl	_ZNK9TiXmlNode11GetDocumentEv
	cmp	r0, #0
	beq	.L409
	mov	r0, r6
	bl	_ZNK9TiXmlNode11GetDocumentEv
	mov	r1, #16
	mov	r2, r4
	mov	r3, r4
	str	r4, [sp, #0]
	bl	_ZN13TiXmlDocument8SetErrorEiPKcP16TiXmlParsingData13TiXmlEncoding
	mov	r0, r4
	b	.L411
.L410:
	ldr	r1, [r2, #0]
	mov	r0, r2
	ldr	r3, [r1, #64]
	blx	r3
	cmp	r0, #0
	beq	.L411
	ldr	ip, [r5, #40]
	str	ip, [r0, #40]
	ldr	r2, [r5, #40]
	str	r5, [r0, #36]
	cmp	r2, #0
	str	r6, [r0, #16]
	strne	r0, [r2, #36]
	streq	r0, [r6, #28]
	str	r0, [r5, #40]
	b	.L411
	.size	_ZN9TiXmlNode16InsertAfterChildEPS_RKS_, .-_ZN9TiXmlNode16InsertAfterChildEPS_RKS_
	.section	.text._ZN9TiXmlNode17InsertBeforeChildEPS_RKS_,"ax",%progbits
	.align	2
	.global	_ZN9TiXmlNode17InsertBeforeChildEPS_RKS_
	.hidden	_ZN9TiXmlNode17InsertBeforeChildEPS_RKS_
	.type	_ZN9TiXmlNode17InsertBeforeChildEPS_RKS_, %function
_ZN9TiXmlNode17InsertBeforeChildEPS_RKS_:
	@ args = 0, pretend = 0, frame = 0
	@ frame_needed = 0, uses_anonymous_args = 0
	stmfd	sp!, {r4, r5, r6, lr}
	subs	r5, r1, #0
	sub	sp, sp, #8
	bne	.L423
.L417:
	mov	r0, #0
.L419:
	add	sp, sp, #8
	ldmfd	sp!, {r4, r5, r6, pc}
.L423:
	ldr	r6, [r5, #16]
	cmp	r6, r0
	bne	.L417
	ldr	r4, [r2, #20]
	cmp	r4, #0
	bne	.L418
	bl	_ZNK9TiXmlNode11GetDocumentEv
	cmp	r0, #0
	beq	.L417
	mov	r0, r6
	bl	_ZNK9TiXmlNode11GetDocumentEv
	mov	r1, #16
	mov	r2, r4
	mov	r3, r4
	str	r4, [sp, #0]
	bl	_ZN13TiXmlDocument8SetErrorEiPKcP16TiXmlParsingData13TiXmlEncoding
	mov	r0, r4
	b	.L419
.L418:
	ldr	r1, [r2, #0]
	mov	r0, r2
	ldr	r3, [r1, #64]
	blx	r3
	cmp	r0, #0
	beq	.L419
	ldr	ip, [r5, #36]
	str	ip, [r0, #36]
	ldr	r2, [r5, #36]
	str	r5, [r0, #40]
	cmp	r2, #0
	str	r6, [r0, #16]
	strne	r0, [r2, #40]
	streq	r0, [r6, #24]
	str	r0, [r5, #36]
	b	.L419
	.size	_ZN9TiXmlNode17InsertBeforeChildEPS_RKS_, .-_ZN9TiXmlNode17InsertBeforeChildEPS_RKS_
	.section	.text._Z10TiXmlFOpenPKcS0_,"ax",%progbits
	.align	2
	.global	_Z10TiXmlFOpenPKcS0_
	.hidden	_Z10TiXmlFOpenPKcS0_
	.type	_Z10TiXmlFOpenPKcS0_, %function
_Z10TiXmlFOpenPKcS0_:
	@ args = 0, pretend = 0, frame = 0
	@ frame_needed = 0, uses_anonymous_args = 0
	@ link register save eliminated.
	b	fopen
	.size	_Z10TiXmlFOpenPKcS0_, .-_Z10TiXmlFOpenPKcS0_
	.section	.text._ZNK9TiXmlNode17FirstChildElementEPKc,"ax",%progbits
	.align	2
	.global	_ZNK9TiXmlNode17FirstChildElementEPKc
	.hidden	_ZNK9TiXmlNode17FirstChildElementEPKc
	.type	_ZNK9TiXmlNode17FirstChildElementEPKc, %function
_ZNK9TiXmlNode17FirstChildElementEPKc:
	@ args = 0, pretend = 0, frame = 0
	@ frame_needed = 0, uses_anonymous_args = 0
	stmfd	sp!, {r3, r4, r5, lr}
	ldr	r4, [r0, #24]
	mov	r5, r1
	cmp	r4, #0
	bne	.L436
	b	.L427
.L440:
	ldr	r4, [r4, #40]
	cmp	r4, #0
	beq	.L427
.L436:
	ldr	r0, [r4, #32]
	mov	r1, r5
	add	r0, r0, #8
	bl	strcmp
	cmp	r0, #0
	bne	.L440
.L434:
	ldr	r1, [r4, #0]
	mov	r0, r4
	ldr	r3, [r1, #20]
	blx	r3
	cmp	r0, #0
	beq	.L430
	b	.L443
.L442:
	ldr	lr, [r4, #32]
	mov	r1, r5
	add	r0, lr, #8
	bl	strcmp
	cmp	r0, #0
	beq	.L434
.L430:
	ldr	r4, [r4, #40]
	cmp	r4, #0
	bne	.L442
.L427:
	mov	r0, #0
	ldmfd	sp!, {r3, r4, r5, pc}
.L443:
	ldr	ip, [r4, #0]
	mov	r0, r4
	ldr	r2, [ip, #20]
	blx	r2
	ldmfd	sp!, {r3, r4, r5, pc}
	.size	_ZNK9TiXmlNode17FirstChildElementEPKc, .-_ZNK9TiXmlNode17FirstChildElementEPKc
	.section	.text._ZN12TiXmlPrinter5VisitERK16TiXmlDeclaration,"ax",%progbits
	.align	2
	.global	_ZN12TiXmlPrinter5VisitERK16TiXmlDeclaration
	.hidden	_ZN12TiXmlPrinter5VisitERK16TiXmlDeclaration
	.type	_ZN12TiXmlPrinter5VisitERK16TiXmlDeclaration, %function
_ZN12TiXmlPrinter5VisitERK16TiXmlDeclaration:
	@ args = 0, pretend = 0, frame = 0
	@ frame_needed = 0, uses_anonymous_args = 0
	stmfd	sp!, {r3, r4, r5, r6, r7, lr}
	ldr	r3, [r0, #4]
	mov	r4, r0
	cmp	r3, #0
	mov	r7, r1
	add	r5, r0, #12
	movgt	r6, #0
	ble	.L445
.L446:
	ldr	r1, [r4, #16]
	mov	r0, r5
	ldr	r2, [r1, #0]
	add	r1, r1, #8
	bl	_ZN11TiXmlString6appendEPKcj
	ldr	r0, [r4, #4]
	add	r6, r6, #1
	cmp	r6, r0
	blt	.L446
.L445:
	ldr	r2, [r7, #0]
	mov	r1, #0
	mov	r0, r7
	ldr	ip, [r2, #72]
	mov	r3, r5
	mov	r2, r1
	blx	ip
	ldr	ip, [r4, #20]
	mov	r0, r5
	ldr	r2, [ip, #0]
	add	r1, ip, #8
	bl	_ZN11TiXmlString6appendEPKcj
	mov	r0, #1
	ldmfd	sp!, {r3, r4, r5, r6, r7, pc}
	.size	_ZN12TiXmlPrinter5VisitERK16TiXmlDeclaration, .-_ZN12TiXmlPrinter5VisitERK16TiXmlDeclaration
	.section	.text._ZN12TiXmlElement15RemoveAttributeEPKc,"ax",%progbits
	.align	2
	.global	_ZN12TiXmlElement15RemoveAttributeEPKc
	.hidden	_ZN12TiXmlElement15RemoveAttributeEPKc
	.type	_ZN12TiXmlElement15RemoveAttributeEPKc, %function
_ZN12TiXmlElement15RemoveAttributeEPKc:
	@ args = 0, pretend = 0, frame = 0
	@ frame_needed = 0, uses_anonymous_args = 0
	stmfd	sp!, {r3, r4, r5, r6, r7, lr}
	ldr	r5, [r0, #76]
	add	r6, r0, #44
	cmp	r5, r6
	mov	r7, r1
	ldmeqfd	sp!, {r3, r4, r5, r6, r7, pc}
	mov	r4, r5
	b	.L454
.L465:
	ldr	r4, [r4, #32]
	cmp	r4, r6
	beq	.L464
.L454:
	ldr	r0, [r4, #20]
	mov	r1, r7
	add	r0, r0, #8
	bl	strcmp
	cmp	r0, #0
	bne	.L465
	b	.L458
.L460:
	ldr	r5, [r5, #32]
	cmp	r5, r6
	beq	.L457
.L458:
	cmp	r5, r4
	bne	.L460
	ldr	r2, [r5, #28]
	ldr	ip, [r5, #32]
	str	ip, [r2, #32]
	ldr	r1, [r5, #32]
	mov	r3, #0
	str	r2, [r1, #28]
	str	r3, [r5, #32]
	str	r3, [r5, #28]
.L457:
	ldr	lr, [r4, #0]
	mov	r0, r4
	ldr	r3, [lr, #4]
	blx	r3
	ldmfd	sp!, {r3, r4, r5, r6, r7, pc}
.L464:
	ldmfd	sp!, {r3, r4, r5, r6, r7, pc}
	.size	_ZN12TiXmlElement15RemoveAttributeEPKc, .-_ZN12TiXmlElement15RemoveAttributeEPKc
	.section	.text._ZNK12TiXmlElement9AttributeEPKc,"ax",%progbits
	.align	2
	.global	_ZNK12TiXmlElement9AttributeEPKc
	.hidden	_ZNK12TiXmlElement9AttributeEPKc
	.type	_ZNK12TiXmlElement9AttributeEPKc, %function
_ZNK12TiXmlElement9AttributeEPKc:
	@ args = 0, pretend = 0, frame = 0
	@ frame_needed = 0, uses_anonymous_args = 0
	stmfd	sp!, {r4, r5, r6, lr}
	ldr	r4, [r0, #76]
	add	r5, r0, #44
	cmp	r4, r5
	mov	r6, r1
	bne	.L472
	b	.L467
.L474:
	ldr	r4, [r4, #32]
	cmp	r4, r5
	beq	.L467
.L472:
	ldr	r0, [r4, #20]
	mov	r1, r6
	add	r0, r0, #8
	bl	strcmp
	cmp	r0, #0
	bne	.L474
	ldr	r1, [r4, #24]
	add	r0, r1, #8
	ldmfd	sp!, {r4, r5, r6, pc}
.L467:
	mov	r0, #0
	ldmfd	sp!, {r4, r5, r6, pc}
	.size	_ZNK12TiXmlElement9AttributeEPKc, .-_ZNK12TiXmlElement9AttributeEPKc
	.section	.text._ZNK12TiXmlElement20QueryDoubleAttributeEPKcPd,"ax",%progbits
	.align	2
	.global	_ZNK12TiXmlElement20QueryDoubleAttributeEPKcPd
	.hidden	_ZNK12TiXmlElement20QueryDoubleAttributeEPKcPd
	.type	_ZNK12TiXmlElement20QueryDoubleAttributeEPKcPd, %function
_ZNK12TiXmlElement20QueryDoubleAttributeEPKcPd:
	@ args = 0, pretend = 0, frame = 0
	@ frame_needed = 0, uses_anonymous_args = 0
	stmfd	sp!, {r3, r4, r5, r6, r7, lr}
	ldr	r4, [r0, #76]
	add	r5, r0, #44
	cmp	r4, r5
	mov	r6, r1
	mov	r7, r2
	bne	.L482
	b	.L476
.L484:
	ldr	r4, [r4, #32]
	cmp	r4, r5
	beq	.L476
.L482:
	ldr	r0, [r4, #20]
	mov	r1, r6
	add	r0, r0, #8
	bl	strcmp
	cmp	r0, #0
	bne	.L484
	ldr	r1, [r4, #24]
	mov	r2, r7
	add	r0, r1, #8
	ldr	r1, .L485
	bl	sscanf
	cmp	r0, #1
	movne	r0, #2
	moveq	r0, #0
	ldmfd	sp!, {r3, r4, r5, r6, r7, pc}
.L476:
	mov	r0, #1
	ldmfd	sp!, {r3, r4, r5, r6, r7, pc}
.L486:
	.align	2
.L485:
	.word	.LC7
	.size	_ZNK12TiXmlElement20QueryDoubleAttributeEPKcPd, .-_ZNK12TiXmlElement20QueryDoubleAttributeEPKcPd
	.section	.text._ZNK12TiXmlElement17QueryIntAttributeEPKcPi,"ax",%progbits
	.align	2
	.global	_ZNK12TiXmlElement17QueryIntAttributeEPKcPi
	.hidden	_ZNK12TiXmlElement17QueryIntAttributeEPKcPi
	.type	_ZNK12TiXmlElement17QueryIntAttributeEPKcPi, %function
_ZNK12TiXmlElement17QueryIntAttributeEPKcPi:
	@ args = 0, pretend = 0, frame = 0
	@ frame_needed = 0, uses_anonymous_args = 0
	stmfd	sp!, {r3, r4, r5, r6, r7, lr}
	ldr	r4, [r0, #76]
	add	r5, r0, #44
	cmp	r4, r5
	mov	r6, r1
	mov	r7, r2
	bne	.L494
	b	.L488
.L496:
	ldr	r4, [r4, #32]
	cmp	r4, r5
	beq	.L488
.L494:
	ldr	r0, [r4, #20]
	mov	r1, r6
	add	r0, r0, #8
	bl	strcmp
	cmp	r0, #0
	bne	.L496
	ldr	r1, [r4, #24]
	mov	r2, r7
	add	r0, r1, #8
	ldr	r1, .L497
	bl	sscanf
	cmp	r0, #1
	movne	r0, #2
	moveq	r0, #0
	ldmfd	sp!, {r3, r4, r5, r6, r7, pc}
.L488:
	mov	r0, #1
	ldmfd	sp!, {r3, r4, r5, r6, r7, pc}
.L498:
	.align	2
.L497:
	.word	.LC8
	.size	_ZNK12TiXmlElement17QueryIntAttributeEPKcPi, .-_ZNK12TiXmlElement17QueryIntAttributeEPKcPi
	.section	.text._ZNK11TiXmlHandle10FirstChildEPKc,"ax",%progbits
	.align	2
	.global	_ZNK11TiXmlHandle10FirstChildEPKc
	.hidden	_ZNK11TiXmlHandle10FirstChildEPKc
	.type	_ZNK11TiXmlHandle10FirstChildEPKc, %function
_ZNK11TiXmlHandle10FirstChildEPKc:
	@ args = 0, pretend = 0, frame = 0
	@ frame_needed = 0, uses_anonymous_args = 0
	stmfd	sp!, {r4, r5, r6, lr}
	ldr	r3, [r1, #0]
	mov	r4, r0
	cmp	r3, #0
	mov	r6, r2
	beq	.L500
	ldr	r5, [r3, #24]
	cmp	r5, #0
	bne	.L505
	b	.L500
.L507:
	ldr	r5, [r5, #40]
	cmp	r5, #0
	beq	.L500
.L505:
	ldr	r0, [r5, #32]
	mov	r1, r6
	add	r0, r0, #8
	bl	strcmp
	cmp	r0, #0
	bne	.L507
	str	r5, [r4, #0]
	mov	r0, r4
	ldmfd	sp!, {r4, r5, r6, pc}
.L500:
	mov	r3, #0
	str	r3, [r4, #0]
	mov	r0, r4
	ldmfd	sp!, {r4, r5, r6, pc}
	.size	_ZNK11TiXmlHandle10FirstChildEPKc, .-_ZNK11TiXmlHandle10FirstChildEPKc
	.section	.text._ZNK9TiXmlNode18NextSiblingElementEPKc,"ax",%progbits
	.align	2
	.global	_ZNK9TiXmlNode18NextSiblingElementEPKc
	.hidden	_ZNK9TiXmlNode18NextSiblingElementEPKc
	.type	_ZNK9TiXmlNode18NextSiblingElementEPKc, %function
_ZNK9TiXmlNode18NextSiblingElementEPKc:
	@ args = 0, pretend = 0, frame = 0
	@ frame_needed = 0, uses_anonymous_args = 0
	stmfd	sp!, {r3, r4, r5, lr}
	ldr	r4, [r0, #40]
	mov	r5, r1
	cmp	r4, #0
	bne	.L518
	b	.L509
.L522:
	ldr	r4, [r4, #40]
	cmp	r4, #0
	beq	.L509
.L518:
	ldr	r0, [r4, #32]
	mov	r1, r5
	add	r0, r0, #8
	bl	strcmp
	cmp	r0, #0
	bne	.L522
.L516:
	ldr	r1, [r4, #0]
	mov	r0, r4
	ldr	r3, [r1, #20]
	blx	r3
	cmp	r0, #0
	beq	.L512
	b	.L525
.L524:
	ldr	lr, [r4, #32]
	mov	r1, r5
	add	r0, lr, #8
	bl	strcmp
	cmp	r0, #0
	beq	.L516
.L512:
	ldr	r4, [r4, #40]
	cmp	r4, #0
	bne	.L524
.L509:
	mov	r0, #0
	ldmfd	sp!, {r3, r4, r5, pc}
.L525:
	ldr	ip, [r4, #0]
	mov	r0, r4
	ldr	r2, [ip, #20]
	blx	r2
	ldmfd	sp!, {r3, r4, r5, pc}
	.size	_ZNK9TiXmlNode18NextSiblingElementEPKc, .-_ZNK9TiXmlNode18NextSiblingElementEPKc
	.section	.text._ZNK11TiXmlHandle5ChildEPKci,"ax",%progbits
	.align	2
	.global	_ZNK11TiXmlHandle5ChildEPKci
	.hidden	_ZNK11TiXmlHandle5ChildEPKci
	.type	_ZNK11TiXmlHandle5ChildEPKci, %function
_ZNK11TiXmlHandle5ChildEPKci:
	@ args = 0, pretend = 0, frame = 0
	@ frame_needed = 0, uses_anonymous_args = 0
	stmfd	sp!, {r4, r5, r6, r7, r8, lr}
	ldr	r1, [r1, #0]
	mov	r4, r0
	cmp	r1, #0
	mov	r5, r2
	mov	r8, r3
	beq	.L527
	ldr	r6, [r1, #24]
	cmp	r6, #0
	bne	.L537
	b	.L527
.L541:
	ldr	r6, [r6, #40]
	cmp	r6, #0
	beq	.L527
.L537:
	ldr	r0, [r6, #32]
	mov	r1, r5
	add	r0, r0, #8
	bl	strcmp
	cmp	r0, #0
	bne	.L541
	cmp	r8, #0
	ble	.L530
	mov	r7, r0
	b	.L533
.L542:
	ldr	r2, [r6, #32]
	mov	r1, r5
	add	r0, r2, #8
	bl	strcmp
	cmp	r0, #0
	beq	.L531
.L533:
	ldr	r6, [r6, #40]
	cmp	r6, #0
	bne	.L542
.L527:
	mov	r3, #0
	str	r3, [r4, #0]
.L526:
	mov	r0, r4
	ldmfd	sp!, {r4, r5, r6, r7, r8, pc}
.L531:
	add	r7, r7, #1
	cmp	r8, r7
	bgt	.L533
.L530:
	cmp	r6, #0
	strne	r6, [r4, #0]
	bne	.L526
	b	.L527
	.size	_ZNK11TiXmlHandle5ChildEPKci, .-_ZNK11TiXmlHandle5ChildEPKci
	.section	.text._ZNK12TiXmlElement9AttributeEPKcPd,"ax",%progbits
	.align	2
	.global	_ZNK12TiXmlElement9AttributeEPKcPd
	.hidden	_ZNK12TiXmlElement9AttributeEPKcPd
	.type	_ZNK12TiXmlElement9AttributeEPKcPd, %function
_ZNK12TiXmlElement9AttributeEPKcPd:
	@ args = 0, pretend = 0, frame = 0
	@ frame_needed = 0, uses_anonymous_args = 0
	stmfd	sp!, {r3, r4, r5, r6, r7, lr}
	ldr	r4, [r0, #76]
	add	r5, r0, #44
	cmp	r4, r5
	mov	r6, r1
	mov	r7, r2
	bne	.L551
	b	.L544
.L553:
	ldr	r4, [r4, #32]
	cmp	r4, r5
	beq	.L544
.L551:
	ldr	r0, [r4, #20]
	mov	r1, r6
	add	r0, r0, #8
	bl	strcmp
	cmp	r0, #0
	bne	.L553
	ldr	r4, [r4, #24]
	add	r4, r4, #8
	b	.L547
.L544:
	mov	r4, #0
.L547:
	cmp	r7, #0
	beq	.L548
	cmp	r4, #0
	beq	.L549
	mov	r0, r4
	bl	atof
	strd	r0, [r7]
.L548:
	mov	r0, r4
	ldmfd	sp!, {r3, r4, r5, r6, r7, pc}
.L549:
	fldd	d7, .L554
	mov	r0, r4
	fstd	d7, [r7, #0]
	ldmfd	sp!, {r3, r4, r5, r6, r7, pc}
.L555:
	.align	3
.L554:
	.word	0
	.word	0
	.size	_ZNK12TiXmlElement9AttributeEPKcPd, .-_ZNK12TiXmlElement9AttributeEPKcPd
	.section	.text._ZNK12TiXmlElement9AttributeEPKcPi,"ax",%progbits
	.align	2
	.global	_ZNK12TiXmlElement9AttributeEPKcPi
	.hidden	_ZNK12TiXmlElement9AttributeEPKcPi
	.type	_ZNK12TiXmlElement9AttributeEPKcPi, %function
_ZNK12TiXmlElement9AttributeEPKcPi:
	@ args = 0, pretend = 0, frame = 0
	@ frame_needed = 0, uses_anonymous_args = 0
	stmfd	sp!, {r3, r4, r5, r6, r7, lr}
	ldr	r4, [r0, #76]
	add	r5, r0, #44
	cmp	r4, r5
	mov	r6, r1
	mov	r7, r2
	bne	.L564
	b	.L557
.L566:
	ldr	r4, [r4, #32]
	cmp	r4, r5
	beq	.L557
.L564:
	ldr	r0, [r4, #20]
	mov	r1, r6
	add	r0, r0, #8
	bl	strcmp
	cmp	r0, #0
	bne	.L566
	ldr	r4, [r4, #24]
	add	r4, r4, #8
	b	.L560
.L557:
	mov	r4, #0
.L560:
	cmp	r7, #0
	beq	.L561
	cmp	r4, #0
	streq	r4, [r7, #0]
	beq	.L561
	mov	r0, r4
	bl	atoi
	str	r0, [r7, #0]
.L561:
	mov	r0, r4
	ldmfd	sp!, {r3, r4, r5, r6, r7, pc}
	.size	_ZNK12TiXmlElement9AttributeEPKcPi, .-_ZNK12TiXmlElement9AttributeEPKcPi
	.section	.text._ZN12TiXmlElement9ClearThisEv,"ax",%progbits
	.align	2
	.global	_ZN12TiXmlElement9ClearThisEv
	.hidden	_ZN12TiXmlElement9ClearThisEv
	.type	_ZN12TiXmlElement9ClearThisEv, %function
_ZN12TiXmlElement9ClearThisEv:
	@ args = 0, pretend = 0, frame = 0
	@ frame_needed = 0, uses_anonymous_args = 0
	stmfd	sp!, {r4, r5, r6, lr}
	mov	r5, r0
	ldr	r0, [r0, #24]
	cmp	r0, #0
	beq	.L568
.L574:
	ldr	r1, [r0, #0]
	ldr	r4, [r0, #40]
	ldr	r3, [r1, #4]
	blx	r3
	cmp	r4, #0
	mov	r0, r4
	bne	.L574
.L568:
	mov	r4, #0
	str	r4, [r5, #24]
	str	r4, [r5, #28]
	add	r6, r5, #44
	b	.L570
.L572:
	ldr	r2, [r3, #28]
	ldr	r1, [r3, #32]
	str	r1, [r2, #32]
	ldr	lr, [r3, #0]
	ldr	ip, [r3, #32]
	str	r4, [r3, #32]
	str	r2, [ip, #28]
	str	r4, [r3, #28]
	ldr	r2, [lr, #4]
	blx	r2
.L570:
	ldr	r3, [r5, #76]
	cmp	r3, r6
	mov	r0, r3
	ldmeqfd	sp!, {r4, r5, r6, pc}
	cmp	r3, #0
	bne	.L572
	ldmfd	sp!, {r4, r5, r6, pc}
	.size	_ZN12TiXmlElement9ClearThisEv, .-_ZN12TiXmlElement9ClearThisEv
	.section	.text._ZNK9TiXmlNode15IterateChildrenEPKcPKS_,"ax",%progbits
	.align	2
	.global	_ZNK9TiXmlNode15IterateChildrenEPKcPKS_
	.hidden	_ZNK9TiXmlNode15IterateChildrenEPKcPKS_
	.type	_ZNK9TiXmlNode15IterateChildrenEPKcPKS_, %function
_ZNK9TiXmlNode15IterateChildrenEPKcPKS_:
	@ args = 0, pretend = 0, frame = 0
	@ frame_needed = 0, uses_anonymous_args = 0
	cmp	r2, #0
	stmfd	sp!, {r3, r4, r5, lr}
	mov	r5, r1
	beq	.L585
	ldr	r4, [r2, #40]
	cmp	r4, #0
	bne	.L582
	b	.L577
.L586:
	ldr	r4, [r4, #40]
	cmp	r4, #0
	beq	.L577
.L582:
	ldr	r2, [r4, #32]
	mov	r1, r5
	add	r0, r2, #8
	bl	strcmp
	cmp	r0, #0
	bne	.L586
.L577:
	mov	r0, r4
	ldmfd	sp!, {r3, r4, r5, pc}
.L585:
	ldr	r4, [r0, #24]
	cmp	r4, #0
	bne	.L581
	b	.L577
.L587:
	ldr	r4, [r4, #40]
	cmp	r4, #0
	beq	.L577
.L581:
	ldr	r0, [r4, #32]
	mov	r1, r5
	add	r0, r0, #8
	bl	strcmp
	cmp	r0, #0
	bne	.L587
	b	.L577
	.size	_ZNK9TiXmlNode15IterateChildrenEPKcPKS_, .-_ZNK9TiXmlNode15IterateChildrenEPKcPKS_
	.section	.text._ZNK11TiXmlHandle12ChildElementEi,"ax",%progbits
	.align	2
	.global	_ZNK11TiXmlHandle12ChildElementEi
	.hidden	_ZNK11TiXmlHandle12ChildElementEi
	.type	_ZNK11TiXmlHandle12ChildElementEi, %function
_ZNK11TiXmlHandle12ChildElementEi:
	@ args = 0, pretend = 0, frame = 0
	@ frame_needed = 0, uses_anonymous_args = 0
	stmfd	sp!, {r3, r4, r5, r6, r7, lr}
	ldr	r3, [r1, #0]
	mov	r4, r0
	cmp	r3, #0
	mov	r7, r2
	beq	.L589
	ldr	r5, [r3, #24]
	cmp	r5, #0
	bne	.L600
	b	.L589
.L590:
	ldr	r5, [r5, #40]
	cmp	r5, #0
	beq	.L589
.L600:
	ldr	r1, [r5, #0]
	mov	r0, r5
	ldr	r3, [r1, #20]
	blx	r3
	cmp	r0, #0
	beq	.L590
	ldr	ip, [r5, #0]
	mov	r0, r5
	ldr	r2, [ip, #20]
	blx	r2
	cmp	r0, #0
	cmpne	r7, #0
	movgt	r6, #0
	ble	.L592
.L595:
	ldr	r5, [r0, #40]
	cmp	r5, #0
	bne	.L599
	b	.L589
.L594:
	ldr	r5, [r5, #40]
	cmp	r5, #0
	beq	.L589
.L599:
	ldr	lr, [r5, #0]
	mov	r0, r5
	ldr	r3, [lr, #20]
	blx	r3
	cmp	r0, #0
	beq	.L594
	ldr	r2, [r5, #0]
	mov	r0, r5
	ldr	r1, [r2, #20]
	blx	r1
	add	r6, r6, #1
	cmp	r0, #0
	cmpne	r7, r6
	bgt	.L595
.L592:
	cmp	r0, #0
	strne	r0, [r4, #0]
	bne	.L588
.L589:
	mov	r0, #0
	str	r0, [r4, #0]
.L588:
	mov	r0, r4
	ldmfd	sp!, {r3, r4, r5, r6, r7, pc}
	.size	_ZNK11TiXmlHandle12ChildElementEi, .-_ZNK11TiXmlHandle12ChildElementEi
	.section	.text._ZNK11TiXmlHandle17FirstChildElementEv,"ax",%progbits
	.align	2
	.global	_ZNK11TiXmlHandle17FirstChildElementEv
	.hidden	_ZNK11TiXmlHandle17FirstChildElementEv
	.type	_ZNK11TiXmlHandle17FirstChildElementEv, %function
_ZNK11TiXmlHandle17FirstChildElementEv:
	@ args = 0, pretend = 0, frame = 0
	@ frame_needed = 0, uses_anonymous_args = 0
	stmfd	sp!, {r3, r4, r5, lr}
	ldr	r3, [r1, #0]
	mov	r5, r0
	cmp	r3, #0
	beq	.L605
	ldr	r4, [r3, #24]
	cmp	r4, #0
	bne	.L611
	b	.L605
.L606:
	ldr	r4, [r4, #40]
	cmp	r4, #0
	beq	.L605
.L611:
	ldr	r1, [r4, #0]
	mov	r0, r4
	ldr	r3, [r1, #20]
	blx	r3
	cmp	r0, #0
	beq	.L606
	ldr	ip, [r4, #0]
	mov	r0, r4
	ldr	r2, [ip, #20]
	blx	r2
	cmp	r0, #0
	strne	r0, [r5, #0]
	beq	.L605
	mov	r0, r5
	ldmfd	sp!, {r3, r4, r5, pc}
.L605:
	mov	r0, #0
	str	r0, [r5, #0]
	mov	r0, r5
	ldmfd	sp!, {r3, r4, r5, pc}
	.size	_ZNK11TiXmlHandle17FirstChildElementEv, .-_ZNK11TiXmlHandle17FirstChildElementEv
	.section	.text._ZN12TiXmlPrinterD1Ev,"axG",%progbits,_ZN12TiXmlPrinterD1Ev,comdat
	.align	2
	.weak	_ZN12TiXmlPrinterD1Ev
	.hidden	_ZN12TiXmlPrinterD1Ev
	.type	_ZN12TiXmlPrinterD1Ev, %function
_ZN12TiXmlPrinterD1Ev:
	@ args = 0, pretend = 0, frame = 0
	@ frame_needed = 0, uses_anonymous_args = 0
	stmfd	sp!, {r3, r4, r5, lr}
	mov	r4, r0
	ldr	r5, .L618
	ldr	r0, [r0, #20]
	ldr	r3, .L618+4
	cmp	r0, r5
	str	r3, [r4, #0]
	beq	.L614
	cmp	r0, #0
	beq	.L614
	bl	_ZdaPv
.L614:
	ldr	r0, [r4, #16]
	cmp	r0, r5
	beq	.L615
	cmp	r0, #0
	beq	.L615
	bl	_ZdaPv
.L615:
	ldr	r0, [r4, #12]
	cmp	r0, r5
	beq	.L616
	cmp	r0, #0
	beq	.L616
	bl	_ZdaPv
.L616:
	ldr	r0, .L618+8
	str	r0, [r4, #0]
	mov	r0, r4
	ldmfd	sp!, {r3, r4, r5, pc}
.L619:
	.align	2
.L618:
	.word	_ZN11TiXmlString8nullrep_E
	.word	.LANCHOR0+88
	.word	_ZTV12TiXmlVisitor+8
	.size	_ZN12TiXmlPrinterD1Ev, .-_ZN12TiXmlPrinterD1Ev
	.section	.text._ZN9TiXmlNodeD0Ev,"ax",%progbits
	.align	2
	.global	_ZN9TiXmlNodeD0Ev
	.hidden	_ZN9TiXmlNodeD0Ev
	.type	_ZN9TiXmlNodeD0Ev, %function
_ZN9TiXmlNodeD0Ev:
	@ args = 0, pretend = 0, frame = 0
	@ frame_needed = 0, uses_anonymous_args = 0
	stmfd	sp!, {r3, r4, r5, lr}
	mov	r5, r0
	ldr	r0, [r0, #24]
	ldr	r3, .L626
	cmp	r0, #0
	str	r3, [r5, #0]
	beq	.L621
.L625:
	ldr	r2, [r0, #0]
	ldr	r4, [r0, #40]
	ldr	r1, [r2, #4]
	blx	r1
	cmp	r4, #0
	mov	r0, r4
	bne	.L625
.L621:
	ldr	r0, [r5, #32]
	ldr	ip, .L626+4
	cmp	r0, ip
	beq	.L623
	cmp	r0, #0
	beq	.L623
	bl	_ZdaPv
.L623:
	ldr	r0, .L626+8
	str	r0, [r5, #0]
	mov	r0, r5
	bl	_ZdlPv
	mov	r0, r5
	ldmfd	sp!, {r3, r4, r5, pc}
.L627:
	.align	2
.L626:
	.word	.LANCHOR0+8
	.word	_ZN11TiXmlString8nullrep_E
	.word	_ZTV9TiXmlBase+8
	.size	_ZN9TiXmlNodeD0Ev, .-_ZN9TiXmlNodeD0Ev
	.section	.text._ZN9TiXmlNodeD1Ev,"ax",%progbits
	.align	2
	.global	_ZN9TiXmlNodeD1Ev
	.hidden	_ZN9TiXmlNodeD1Ev
	.type	_ZN9TiXmlNodeD1Ev, %function
_ZN9TiXmlNodeD1Ev:
	@ args = 0, pretend = 0, frame = 0
	@ frame_needed = 0, uses_anonymous_args = 0
	stmfd	sp!, {r3, r4, r5, lr}
	mov	r5, r0
	ldr	r0, [r0, #24]
	ldr	r3, .L634
	cmp	r0, #0
	str	r3, [r5, #0]
	beq	.L629
.L633:
	ldr	r2, [r0, #0]
	ldr	r4, [r0, #40]
	ldr	r1, [r2, #4]
	blx	r1
	cmp	r4, #0
	mov	r0, r4
	bne	.L633
.L629:
	ldr	r0, [r5, #32]
	ldr	ip, .L634+4
	cmp	r0, ip
	beq	.L631
	cmp	r0, #0
	beq	.L631
	bl	_ZdaPv
.L631:
	ldr	r0, .L634+8
	str	r0, [r5, #0]
	mov	r0, r5
	ldmfd	sp!, {r3, r4, r5, pc}
.L635:
	.align	2
.L634:
	.word	.LANCHOR0+8
	.word	_ZN11TiXmlString8nullrep_E
	.word	_ZTV9TiXmlBase+8
	.size	_ZN9TiXmlNodeD1Ev, .-_ZN9TiXmlNodeD1Ev
	.section	.text._ZN9TiXmlNodeD2Ev,"ax",%progbits
	.align	2
	.global	_ZN9TiXmlNodeD2Ev
	.hidden	_ZN9TiXmlNodeD2Ev
	.type	_ZN9TiXmlNodeD2Ev, %function
_ZN9TiXmlNodeD2Ev:
	@ args = 0, pretend = 0, frame = 0
	@ frame_needed = 0, uses_anonymous_args = 0
	stmfd	sp!, {r3, r4, r5, lr}
	mov	r5, r0
	ldr	r0, [r0, #24]
	ldr	r3, .L642
	cmp	r0, #0
	str	r3, [r5, #0]
	beq	.L637
.L641:
	ldr	r2, [r0, #0]
	ldr	r4, [r0, #40]
	ldr	r1, [r2, #4]
	blx	r1
	cmp	r4, #0
	mov	r0, r4
	bne	.L641
.L637:
	ldr	r0, [r5, #32]
	ldr	ip, .L642+4
	cmp	r0, ip
	beq	.L639
	cmp	r0, #0
	beq	.L639
	bl	_ZdaPv
.L639:
	ldr	r0, .L642+8
	str	r0, [r5, #0]
	mov	r0, r5
	ldmfd	sp!, {r3, r4, r5, pc}
.L643:
	.align	2
.L642:
	.word	.LANCHOR0+8
	.word	_ZN11TiXmlString8nullrep_E
	.word	_ZTV9TiXmlBase+8
	.size	_ZN9TiXmlNodeD2Ev, .-_ZN9TiXmlNodeD2Ev
	.section	.text._ZN12TiXmlPrinterD0Ev,"axG",%progbits,_ZN12TiXmlPrinterD0Ev,comdat
	.align	2
	.weak	_ZN12TiXmlPrinterD0Ev
	.hidden	_ZN12TiXmlPrinterD0Ev
	.type	_ZN12TiXmlPrinterD0Ev, %function
_ZN12TiXmlPrinterD0Ev:
	@ args = 0, pretend = 0, frame = 0
	@ frame_needed = 0, uses_anonymous_args = 0
	stmfd	sp!, {r3, r4, r5, lr}
	mov	r4, r0
	ldr	r5, .L649
	ldr	r0, [r0, #20]
	ldr	r3, .L649+4
	cmp	r0, r5
	str	r3, [r4, #0]
	beq	.L645
	cmp	r0, #0
	beq	.L645
	bl	_ZdaPv
.L645:
	ldr	r0, [r4, #16]
	cmp	r0, r5
	beq	.L646
	cmp	r0, #0
	beq	.L646
	bl	_ZdaPv
.L646:
	ldr	r0, [r4, #12]
	cmp	r0, r5
	beq	.L647
	cmp	r0, #0
	beq	.L647
	bl	_ZdaPv
.L647:
	ldr	r0, .L649+8
	str	r0, [r4, #0]
	mov	r0, r4
	bl	_ZdlPv
	mov	r0, r4
	ldmfd	sp!, {r3, r4, r5, pc}
.L650:
	.align	2
.L649:
	.word	_ZN11TiXmlString8nullrep_E
	.word	.LANCHOR0+88
	.word	_ZTV12TiXmlVisitor+8
	.size	_ZN12TiXmlPrinterD0Ev, .-_ZN12TiXmlPrinterD0Ev
	.section	.text._ZN13TiXmlDocument8LoadFileEP8__XXFILE13TiXmlEncoding,"ax",%progbits
	.align	2
	.global	_ZN13TiXmlDocument8LoadFileEP8__XXFILE13TiXmlEncoding
	.hidden	_ZN13TiXmlDocument8LoadFileEP8__XXFILE13TiXmlEncoding
	.type	_ZN13TiXmlDocument8LoadFileEP8__XXFILE13TiXmlEncoding, %function
_ZN13TiXmlDocument8LoadFileEP8__XXFILE13TiXmlEncoding:
	@ args = 0, pretend = 0, frame = 8
	@ frame_needed = 0, uses_anonymous_args = 0
	stmfd	sp!, {r4, r5, r6, r7, r8, r9, sl, fp, lr}
	subs	r6, r1, #0
	sub	sp, sp, #20
	mov	fp, r2
	mov	r5, r0
	beq	.L670
	ldr	r0, [r0, #24]
	cmp	r0, #0
	beq	.L654
.L668:
	ldr	r1, [r0, #0]
	ldr	r4, [r0, #40]
	ldr	r3, [r1, #4]
	blx	r3
	cmp	r4, #0
	mov	r0, r4
	bne	.L668
.L654:
	mov	r4, #0
	mvn	r0, #0
	mov	r1, r4
	mov	r2, #2
	str	r0, [r5, #4]
	str	r0, [r5, #8]
	str	r4, [r5, #24]
	str	r4, [r5, #28]
	mov	r0, r6
	bl	fseek
	mov	r0, r6
	bl	ftell
	mov	r1, r4
	mov	r2, r4
	mov	r8, r0
	mov	r0, r6
	bl	fseek
	cmp	r8, r4
	ble	.L671
	add	r7, sp, #16
	ldr	r9, .L674
	mov	r1, r8
	str	r9, [r7, #-8]!
	mov	r0, r7
	bl	_ZN11TiXmlString7reserveEj
	add	r0, r8, #1
	bl	_Znaj
	mov	r3, r6
	mov	r1, r8
	mov	r2, #1
	strb	r4, [r0, #0]
	mov	sl, r0
	bl	fread
	cmp	r0, #1
	beq	.L657
	mov	r0, sl
	bl	_ZdaPv
	mov	r0, r5
	mov	r1, #2
	mov	r2, r4
	mov	r3, r4
	str	r4, [sp, #0]
	bl	_ZN13TiXmlDocument8SetErrorEiPKcP16TiXmlParsingData13TiXmlEncoding
.L658:
	ldr	r0, [sp, #8]
	cmp	r0, r9
	beq	.L653
	cmp	r0, #0
	beq	.L653
	bl	_ZdaPv
.L653:
	mov	r0, r4
	add	sp, sp, #20
	ldmfd	sp!, {r4, r5, r6, r7, r8, r9, sl, fp, pc}
.L657:
	strb	r4, [sl, r8]
	ldrb	r2, [sl, #0]	@ zero_extendqisi2
	mov	r4, sl
	mov	r3, sl
	mov	r6, #10
	add	r8, sp, #15
.L669:
	cmp	r2, #0
	beq	.L672
.L664:
	cmp	r2, #10
	beq	.L673
	cmp	r2, #13
	ldrneb	r2, [r4, #1]!	@ zero_extendqisi2
	bne	.L669
	rsb	ip, r3, r4
	subs	r2, ip, #0
	mov	r1, r3
	mov	r0, r7
	ble	.L662
	bl	_ZN11TiXmlString6appendEPKcj
.L662:
	mov	r2, #1
	mov	r0, r7
	mov	r1, r8
	strb	r6, [sp, #15]
	bl	_ZN11TiXmlString6appendEPKcj
	ldrb	r2, [r4, #1]	@ zero_extendqisi2
	add	r3, r4, #1
	cmp	r2, #10
	ldreqb	r2, [r4, #2]!	@ zero_extendqisi2
	movne	r4, r3
	moveq	r3, r4
	cmp	r2, #0
	bne	.L664
.L672:
	cmp	r4, r3
	beq	.L665
	mov	r1, r3
	mov	r0, r7
	rsb	r2, r3, r4
	bl	_ZN11TiXmlString6appendEPKcj
.L665:
	mov	r0, sl
	bl	_ZdaPv
	ldr	r1, [r5, #0]
	ldr	r3, [sp, #8]
	ldr	ip, [r1, #12]
	mov	r0, r5
	add	r1, r3, #8
	mov	r2, #0
	mov	r3, fp
	blx	ip
	ldrb	r4, [r5, #44]	@ zero_extendqisi2
	rsbs	r4, r4, #1
	movcc	r4, #0
	b	.L658
.L673:
	add	r2, r4, #1
	mov	r4, r2
	mov	r1, r3
	rsb	r2, r3, r2
	mov	r0, r7
	bl	_ZN11TiXmlString6appendEPKcj
	ldrb	r2, [r4, #0]	@ zero_extendqisi2
	mov	r3, r4
	b	.L669
.L670:
	mov	r1, #2
	mov	r2, r6
	mov	r3, r6
	str	r6, [sp, #0]
	mov	r4, r6
	bl	_ZN13TiXmlDocument8SetErrorEiPKcP16TiXmlParsingData13TiXmlEncoding
	b	.L653
.L671:
	mov	r0, r5
	mov	r1, #13
	mov	r2, r4
	mov	r3, r4
	str	r4, [sp, #0]
	bl	_ZN13TiXmlDocument8SetErrorEiPKcP16TiXmlParsingData13TiXmlEncoding
	b	.L653
.L675:
	.align	2
.L674:
	.word	_ZN11TiXmlString8nullrep_E
	.size	_ZN13TiXmlDocument8LoadFileEP8__XXFILE13TiXmlEncoding, .-_ZN13TiXmlDocument8LoadFileEP8__XXFILE13TiXmlEncoding
	.section	.text._ZN13TiXmlDocument8LoadFileEPKc13TiXmlEncoding,"ax",%progbits
	.align	2
	.global	_ZN13TiXmlDocument8LoadFileEPKc13TiXmlEncoding
	.hidden	_ZN13TiXmlDocument8LoadFileEPKc13TiXmlEncoding
	.type	_ZN13TiXmlDocument8LoadFileEPKc13TiXmlEncoding, %function
_ZN13TiXmlDocument8LoadFileEPKc13TiXmlEncoding:
	@ args = 0, pretend = 0, frame = 0
	@ frame_needed = 0, uses_anonymous_args = 0
	stmfd	sp!, {r4, r5, r6, r7, r8, r9, sl, lr}
	mov	r7, r0
	sub	sp, sp, #8
	mov	r0, r1
	mov	r9, r1
	mov	r8, r2
	bl	strlen
	subs	sl, r0, #0
	bne	.L677
	ldr	r6, .L684
	ldr	sl, [r6, #0]
	mov	r4, r6
.L678:
	add	r5, r4, #8
	mov	r1, r9
	mov	r2, sl
	mov	r0, r5
	bl	memcpy
	mov	r1, r5
	ldr	r2, [r4, #0]
	add	r0, r7, #32
	bl	_ZN11TiXmlString6assignEPKcj
	ldr	r5, [r7, #32]
	ldr	r1, .L684+4
	add	r0, r5, #8
	bl	fopen
	subs	r5, r0, #0
	mov	r0, r7
	beq	.L680
	mov	r2, r8
	mov	r1, r5
	bl	_ZN13TiXmlDocument8LoadFileEP8__XXFILE13TiXmlEncoding
	mov	r7, r0
	mov	r0, r5
	bl	fclose
.L681:
	cmp	r4, r6
	beq	.L682
	cmp	r4, #0
	beq	.L682
	mov	r0, r4
	bl	_ZdaPv
.L682:
	mov	r0, r7
	add	sp, sp, #8
	ldmfd	sp!, {r4, r5, r6, r7, r8, r9, sl, pc}
.L677:
	add	r0, sl, #15
	bic	r0, r0, #3
	bl	_Znaj
	mov	r2, #0
	ldr	r6, .L684
	mov	r3, r0
	str	sl, [r3], sl
	mov	r4, r0
	strb	r2, [r3, #8]
	str	sl, [r0, #4]
	b	.L678
.L680:
	mov	r1, #2
	mov	r2, r5
	mov	r3, r5
	str	r5, [sp, #0]
	mov	r7, r5
	bl	_ZN13TiXmlDocument8SetErrorEiPKcP16TiXmlParsingData13TiXmlEncoding
	b	.L681
.L685:
	.align	2
.L684:
	.word	_ZN11TiXmlString8nullrep_E
	.word	.LC9
	.size	_ZN13TiXmlDocument8LoadFileEPKc13TiXmlEncoding, .-_ZN13TiXmlDocument8LoadFileEPKc13TiXmlEncoding
	.section	.text._ZN13TiXmlDocument8LoadFileE13TiXmlEncoding,"ax",%progbits
	.align	2
	.global	_ZN13TiXmlDocument8LoadFileE13TiXmlEncoding
	.hidden	_ZN13TiXmlDocument8LoadFileE13TiXmlEncoding
	.type	_ZN13TiXmlDocument8LoadFileE13TiXmlEncoding, %function
_ZN13TiXmlDocument8LoadFileE13TiXmlEncoding:
	@ args = 0, pretend = 0, frame = 0
	@ frame_needed = 0, uses_anonymous_args = 0
	@ link register save eliminated.
	ldr	r3, [r0, #32]
	mov	r2, r1
	add	r1, r3, #8
	b	_ZN13TiXmlDocument8LoadFileEPKc13TiXmlEncoding
	.size	_ZN13TiXmlDocument8LoadFileE13TiXmlEncoding, .-_ZN13TiXmlDocument8LoadFileE13TiXmlEncoding
	.section	.text._ZNK9TiXmlText5PrintEP8__XXFILEi,"ax",%progbits
	.align	2
	.global	_ZNK9TiXmlText5PrintEP8__XXFILEi
	.hidden	_ZNK9TiXmlText5PrintEP8__XXFILEi
	.type	_ZNK9TiXmlText5PrintEP8__XXFILEi, %function
_ZNK9TiXmlText5PrintEP8__XXFILEi:
	@ args = 0, pretend = 0, frame = 8
	@ frame_needed = 0, uses_anonymous_args = 0
	stmfd	sp!, {r4, r5, r6, r7, r8, lr}
	ldrb	r3, [r0, #44]	@ zero_extendqisi2
	sub	sp, sp, #8
	cmp	r3, #0
	mov	r6, r0
	mov	r7, r2
	mov	r4, r1
	bne	.L709
	add	r1, sp, #8
	ldr	r5, .L710
	str	r5, [r1, #-4]!
	add	r0, r0, #32
	bl	_ZN9TiXmlBase12EncodeStringERK11TiXmlStringPS0_
	ldr	r0, [sp, #4]
	mov	r1, r4
	add	r0, r0, #8
	bl	fputs
	ldr	r0, [sp, #4]
	cmp	r0, r5
	beq	.L693
	cmp	r0, #0
	beq	.L693
	bl	_ZdaPv
.L693:
	add	sp, sp, #8
	ldmfd	sp!, {r4, r5, r6, r7, r8, pc}
.L709:
	mov	r0, #10
	bl	fputc
	cmp	r7, #0
	ble	.L690
	ldr	r0, .L710+4
	mov	r1, #1
	mov	r2, #4
	mov	r3, r4
	sub	r8, r7, #1
	bl	fwrite
	cmp	r7, #1
	and	r8, r8, #3
	mov	r5, #1
	ble	.L690
	cmp	r8, #0
	beq	.L691
	cmp	r8, #1
	beq	.L706
	cmp	r8, #2
	beq	.L707
	mov	r1, r5
	ldr	r0, .L710+4
	mov	r2, #4
	mov	r3, r4
	bl	fwrite
	mov	r5, #2
.L707:
	ldr	r0, .L710+4
	mov	r1, #1
	mov	r2, #4
	mov	r3, r4
	bl	fwrite
	add	r5, r5, #1
.L706:
	add	r5, r5, #1
	ldr	r0, .L710+4
	mov	r1, #1
	mov	r2, #4
	mov	r3, r4
	bl	fwrite
	cmp	r7, r5
	ble	.L690
.L691:
	mov	r1, #1
	mov	r2, #4
	mov	r3, r4
	ldr	r0, .L710+4
	bl	fwrite
	mov	r1, #1
	mov	r2, #4
	mov	r3, r4
	ldr	r0, .L710+4
	bl	fwrite
	mov	r1, #1
	mov	r2, #4
	mov	r3, r4
	ldr	r0, .L710+4
	bl	fwrite
	add	r5, r5, #4
	ldr	r0, .L710+4
	mov	r1, #1
	mov	r2, #4
	mov	r3, r4
	bl	fwrite
	cmp	r7, r5
	bgt	.L691
.L690:
	ldr	r2, [r6, #32]
	mov	r0, r4
	add	r2, r2, #8
	ldr	r1, .L710+8
	bl	fprintf
	b	.L693
.L711:
	.align	2
.L710:
	.word	_ZN11TiXmlString8nullrep_E
	.word	.LC0
	.word	.LC10
	.size	_ZNK9TiXmlText5PrintEP8__XXFILEi, .-_ZNK9TiXmlText5PrintEP8__XXFILEi
	.section	.text._ZN17TiXmlAttributeSetD1Ev,"ax",%progbits
	.align	2
	.global	_ZN17TiXmlAttributeSetD1Ev
	.hidden	_ZN17TiXmlAttributeSetD1Ev
	.type	_ZN17TiXmlAttributeSetD1Ev, %function
_ZN17TiXmlAttributeSetD1Ev:
	@ args = 0, pretend = 0, frame = 0
	@ frame_needed = 0, uses_anonymous_args = 0
	stmfd	sp!, {r3, r4, r5, lr}
	mov	r4, r0
	ldr	r5, .L717
	ldr	r0, [r0, #24]
	ldr	r3, .L717+4
	cmp	r0, r5
	str	r3, [r4, #0]
	beq	.L713
	cmp	r0, #0
	beq	.L713
	bl	_ZdaPv
.L713:
	ldr	r0, [r4, #20]
	cmp	r0, r5
	beq	.L714
	cmp	r0, #0
	beq	.L714
	bl	_ZdaPv
.L714:
	ldr	r0, .L717+8
	str	r0, [r4, #0]
	mov	r0, r4
	ldmfd	sp!, {r3, r4, r5, pc}
.L718:
	.align	2
.L717:
	.word	_ZN11TiXmlString8nullrep_E
	.word	_ZTV14TiXmlAttribute+8
	.word	_ZTV9TiXmlBase+8
	.size	_ZN17TiXmlAttributeSetD1Ev, .-_ZN17TiXmlAttributeSetD1Ev
	.section	.text._ZN17TiXmlAttributeSetD2Ev,"ax",%progbits
	.align	2
	.global	_ZN17TiXmlAttributeSetD2Ev
	.hidden	_ZN17TiXmlAttributeSetD2Ev
	.type	_ZN17TiXmlAttributeSetD2Ev, %function
_ZN17TiXmlAttributeSetD2Ev:
	@ args = 0, pretend = 0, frame = 0
	@ frame_needed = 0, uses_anonymous_args = 0
	stmfd	sp!, {r3, r4, r5, lr}
	mov	r4, r0
	ldr	r5, .L724
	ldr	r0, [r0, #24]
	ldr	r3, .L724+4
	cmp	r0, r5
	str	r3, [r4, #0]
	beq	.L720
	cmp	r0, #0
	beq	.L720
	bl	_ZdaPv
.L720:
	ldr	r0, [r4, #20]
	cmp	r0, r5
	beq	.L721
	cmp	r0, #0
	beq	.L721
	bl	_ZdaPv
.L721:
	ldr	r0, .L724+8
	str	r0, [r4, #0]
	mov	r0, r4
	ldmfd	sp!, {r3, r4, r5, pc}
.L725:
	.align	2
.L724:
	.word	_ZN11TiXmlString8nullrep_E
	.word	_ZTV14TiXmlAttribute+8
	.word	_ZTV9TiXmlBase+8
	.size	_ZN17TiXmlAttributeSetD2Ev, .-_ZN17TiXmlAttributeSetD2Ev
	.section	.text._ZN16TiXmlDeclarationC1EPKcS1_S1_,"ax",%progbits
	.align	2
	.global	_ZN16TiXmlDeclarationC1EPKcS1_S1_
	.hidden	_ZN16TiXmlDeclarationC1EPKcS1_S1_
	.type	_ZN16TiXmlDeclarationC1EPKcS1_S1_, %function
_ZN16TiXmlDeclarationC1EPKcS1_S1_:
	@ args = 0, pretend = 0, frame = 0
	@ frame_needed = 0, uses_anonymous_args = 0
	stmfd	sp!, {r3, r4, r5, r6, r7, lr}
	mvn	ip, #0
	mov	r4, r0
	ldr	lr, .L736
	ldr	r0, .L736+4
	mov	r7, r1
	mov	r5, #5
	mov	r1, #0
	str	ip, [r4, #4]
	str	lr, [r4, #0]
	str	ip, [r4, #8]
	str	r5, [r4, #20]
	str	r1, [r4, #40]
	str	r0, [r4, #52]
	str	r1, [r4, #12]
	str	r0, [r4, #32]
	str	r1, [r4, #16]
	str	r1, [r4, #24]
	str	r1, [r4, #28]
	str	r1, [r4, #36]
	str	r0, [r4, #44]
	str	r0, [r4, #48]
	mov	r0, r7
	mov	r5, r3
	mov	r6, r2
	bl	strlen
	mov	r1, r7
	mov	r2, r0
	add	r0, r4, #44
	bl	_ZN11TiXmlString6assignEPKcj
	mov	r0, r6
	bl	strlen
	mov	r1, r6
	mov	r2, r0
	add	r0, r4, #48
	bl	_ZN11TiXmlString6assignEPKcj
	mov	r0, r5
	bl	strlen
	mov	r1, r5
	mov	r2, r0
	add	r0, r4, #52
	bl	_ZN11TiXmlString6assignEPKcj
	mov	r0, r4
	ldmfd	sp!, {r3, r4, r5, r6, r7, pc}
.L737:
	.align	2
.L736:
	.word	.LANCHOR0+136
	.word	_ZN11TiXmlString8nullrep_E
	.size	_ZN16TiXmlDeclarationC1EPKcS1_S1_, .-_ZN16TiXmlDeclarationC1EPKcS1_S1_
	.section	.text._ZN16TiXmlDeclarationC2EPKcS1_S1_,"ax",%progbits
	.align	2
	.global	_ZN16TiXmlDeclarationC2EPKcS1_S1_
	.hidden	_ZN16TiXmlDeclarationC2EPKcS1_S1_
	.type	_ZN16TiXmlDeclarationC2EPKcS1_S1_, %function
_ZN16TiXmlDeclarationC2EPKcS1_S1_:
	@ args = 0, pretend = 0, frame = 0
	@ frame_needed = 0, uses_anonymous_args = 0
	stmfd	sp!, {r3, r4, r5, r6, r7, lr}
	mvn	ip, #0
	mov	r4, r0
	ldr	lr, .L748
	ldr	r0, .L748+4
	mov	r7, r1
	mov	r5, #5
	mov	r1, #0
	str	ip, [r4, #4]
	str	lr, [r4, #0]
	str	ip, [r4, #8]
	str	r5, [r4, #20]
	str	r1, [r4, #40]
	str	r0, [r4, #52]
	str	r1, [r4, #12]
	str	r0, [r4, #32]
	str	r1, [r4, #16]
	str	r1, [r4, #24]
	str	r1, [r4, #28]
	str	r1, [r4, #36]
	str	r0, [r4, #44]
	str	r0, [r4, #48]
	mov	r0, r7
	mov	r5, r3
	mov	r6, r2
	bl	strlen
	mov	r1, r7
	mov	r2, r0
	add	r0, r4, #44
	bl	_ZN11TiXmlString6assignEPKcj
	mov	r0, r6
	bl	strlen
	mov	r1, r6
	mov	r2, r0
	add	r0, r4, #48
	bl	_ZN11TiXmlString6assignEPKcj
	mov	r0, r5
	bl	strlen
	mov	r1, r5
	mov	r2, r0
	add	r0, r4, #52
	bl	_ZN11TiXmlString6assignEPKcj
	mov	r0, r4
	ldmfd	sp!, {r3, r4, r5, r6, r7, pc}
.L749:
	.align	2
.L748:
	.word	.LANCHOR0+136
	.word	_ZN11TiXmlString8nullrep_E
	.size	_ZN16TiXmlDeclarationC2EPKcS1_S1_, .-_ZN16TiXmlDeclarationC2EPKcS1_S1_
	.section	.text._ZNK9TiXmlNode6CopyToEPS_,"ax",%progbits
	.align	2
	.global	_ZNK9TiXmlNode6CopyToEPS_
	.hidden	_ZNK9TiXmlNode6CopyToEPS_
	.type	_ZNK9TiXmlNode6CopyToEPS_, %function
_ZNK9TiXmlNode6CopyToEPS_:
	@ args = 0, pretend = 0, frame = 0
	@ frame_needed = 0, uses_anonymous_args = 0
	stmfd	sp!, {r4, r5, r6, lr}
	ldr	r6, [r0, #32]
	mov	r5, r0
	add	r6, r6, #8
	mov	r0, r6
	mov	r4, r1
	bl	strlen
	mov	r1, r6
	mov	r2, r0
	add	r0, r4, #32
	bl	_ZN11TiXmlString6assignEPKcj
	ldr	r3, [r5, #12]
	str	r3, [r4, #12]
	ldmfd	sp!, {r4, r5, r6, pc}
	.size	_ZNK9TiXmlNode6CopyToEPS_, .-_ZNK9TiXmlNode6CopyToEPS_
	.section	.text._ZN13TiXmlDocumentC2EPKc,"ax",%progbits
	.align	2
	.global	_ZN13TiXmlDocumentC2EPKc
	.hidden	_ZN13TiXmlDocumentC2EPKc
	.type	_ZN13TiXmlDocumentC2EPKc, %function
_ZN13TiXmlDocumentC2EPKc:
	@ args = 0, pretend = 0, frame = 0
	@ frame_needed = 0, uses_anonymous_args = 0
	stmfd	sp!, {r4, r5, r6, lr}
	mvn	r3, #0
	mov	r4, r0
	mov	r5, #0
	mov	r6, r1
	ldr	r2, .L761
	mov	r1, #4
	ldr	r0, .L761+4
	str	r3, [r4, #60]
	str	r3, [r4, #8]
	str	r3, [r4, #4]
	str	r3, [r4, #64]
	str	r0, [r4, #0]
	str	r2, [r4, #52]
	str	r1, [r4, #56]
	str	r2, [r4, #32]
	str	r5, [r4, #12]
	str	r5, [r4, #16]
	str	r5, [r4, #20]
	str	r5, [r4, #24]
	str	r5, [r4, #28]
	str	r5, [r4, #36]
	str	r5, [r4, #40]
	strb	r5, [r4, #68]
	mov	r0, r6
	bl	strlen
	mov	r1, r6
	mov	r2, r0
	add	r0, r4, #32
	bl	_ZN11TiXmlString6assignEPKcj
	strb	r5, [r4, #44]
	str	r5, [r4, #48]
	add	r0, r4, #52
	ldr	r1, .L761+8
	mov	r2, r5
	bl	_ZN11TiXmlString6assignEPKcj
	str	r5, [r4, #60]
	str	r5, [r4, #64]
	mov	r0, r4
	ldmfd	sp!, {r4, r5, r6, pc}
.L762:
	.align	2
.L761:
	.word	_ZN11TiXmlString8nullrep_E
	.word	_ZTV13TiXmlDocument+8
	.word	.LC11
	.size	_ZN13TiXmlDocumentC2EPKc, .-_ZN13TiXmlDocumentC2EPKc
	.section	.text._ZN12TiXmlElementC1EPKc,"ax",%progbits
	.align	2
	.global	_ZN12TiXmlElementC1EPKc
	.hidden	_ZN12TiXmlElementC1EPKc
	.type	_ZN12TiXmlElementC1EPKc, %function
_ZN12TiXmlElementC1EPKc:
	@ args = 0, pretend = 0, frame = 0
	@ frame_needed = 0, uses_anonymous_args = 0
	stmfd	sp!, {r3, r4, r5, lr}
	mov	ip, #1
	mov	r4, r0
	mov	r3, #0
	mvn	r2, #0
	mov	r5, r1
	ldr	lr, .L776
	ldr	r1, .L776+4
	add	r0, r0, #44
	str	ip, [r4, #20]
	ldr	ip, .L776+8
	str	lr, [r4, #0]
	str	r2, [r4, #48]
	str	ip, [r4, #44]
	str	r1, [r4, #68]
	str	r0, [r4, #72]
	str	r3, [r4, #24]
	str	r2, [r4, #8]
	str	r2, [r4, #4]
	str	r3, [r4, #12]
	str	r1, [r4, #32]
	str	r3, [r4, #16]
	str	r3, [r4, #36]
	str	r3, [r4, #40]
	str	r2, [r4, #52]
	str	r3, [r4, #56]
	str	r1, [r4, #64]
	str	r3, [r4, #60]
	str	r0, [r4, #76]
	str	r3, [r4, #28]
	mov	r0, r5
	bl	strlen
	mov	r1, r5
	mov	r2, r0
	add	r0, r4, #32
	bl	_ZN11TiXmlString6assignEPKcj
	mov	r0, r4
	ldmfd	sp!, {r3, r4, r5, pc}
.L777:
	.align	2
.L776:
	.word	.LANCHOR0+224
	.word	_ZN11TiXmlString8nullrep_E
	.word	_ZTV14TiXmlAttribute+8
	.size	_ZN12TiXmlElementC1EPKc, .-_ZN12TiXmlElementC1EPKc
	.section	.text._ZN12TiXmlElementC2EPKc,"ax",%progbits
	.align	2
	.global	_ZN12TiXmlElementC2EPKc
	.hidden	_ZN12TiXmlElementC2EPKc
	.type	_ZN12TiXmlElementC2EPKc, %function
_ZN12TiXmlElementC2EPKc:
	@ args = 0, pretend = 0, frame = 0
	@ frame_needed = 0, uses_anonymous_args = 0
	stmfd	sp!, {r3, r4, r5, lr}
	mov	ip, #1
	mov	r4, r0
	mov	r3, #0
	mvn	r2, #0
	mov	r5, r1
	ldr	lr, .L791
	ldr	r1, .L791+4
	add	r0, r0, #44
	str	ip, [r4, #20]
	ldr	ip, .L791+8
	str	lr, [r4, #0]
	str	r2, [r4, #48]
	str	ip, [r4, #44]
	str	r1, [r4, #68]
	str	r0, [r4, #72]
	str	r3, [r4, #24]
	str	r2, [r4, #8]
	str	r2, [r4, #4]
	str	r3, [r4, #12]
	str	r1, [r4, #32]
	str	r3, [r4, #16]
	str	r3, [r4, #36]
	str	r3, [r4, #40]
	str	r2, [r4, #52]
	str	r3, [r4, #56]
	str	r1, [r4, #64]
	str	r3, [r4, #60]
	str	r0, [r4, #76]
	str	r3, [r4, #28]
	mov	r0, r5
	bl	strlen
	mov	r1, r5
	mov	r2, r0
	add	r0, r4, #32
	bl	_ZN11TiXmlString6assignEPKcj
	mov	r0, r4
	ldmfd	sp!, {r3, r4, r5, pc}
.L792:
	.align	2
.L791:
	.word	.LANCHOR0+224
	.word	_ZN11TiXmlString8nullrep_E
	.word	_ZTV14TiXmlAttribute+8
	.size	_ZN12TiXmlElementC2EPKc, .-_ZN12TiXmlElementC2EPKc
	.section	.text._ZN14TiXmlAttribute14SetDoubleValueEd,"ax",%progbits
	.align	2
	.global	_ZN14TiXmlAttribute14SetDoubleValueEd
	.hidden	_ZN14TiXmlAttribute14SetDoubleValueEd
	.type	_ZN14TiXmlAttribute14SetDoubleValueEd, %function
_ZN14TiXmlAttribute14SetDoubleValueEd:
	@ args = 0, pretend = 0, frame = 256
	@ frame_needed = 0, uses_anonymous_args = 0
	stmfd	sp!, {r4, r5, lr}
	sub	sp, sp, #260
	mov	r5, r0
	ldr	r1, .L795
	mov	r0, sp
	bl	sprintf
	mov	r0, sp
	bl	strlen
	mov	r1, sp
	mov	r4, sp
	mov	r2, r0
	add	r0, r5, #24
	bl	_ZN11TiXmlString6assignEPKcj
	add	sp, sp, #260
	ldmfd	sp!, {r4, r5, pc}
.L796:
	.align	2
.L795:
	.word	.LC7
	.size	_ZN14TiXmlAttribute14SetDoubleValueEd, .-_ZN14TiXmlAttribute14SetDoubleValueEd
	.section	.text._ZN14TiXmlAttribute11SetIntValueEi,"ax",%progbits
	.align	2
	.global	_ZN14TiXmlAttribute11SetIntValueEi
	.hidden	_ZN14TiXmlAttribute11SetIntValueEi
	.type	_ZN14TiXmlAttribute11SetIntValueEi, %function
_ZN14TiXmlAttribute11SetIntValueEi:
	@ args = 0, pretend = 0, frame = 64
	@ frame_needed = 0, uses_anonymous_args = 0
	stmfd	sp!, {r4, r5, lr}
	sub	sp, sp, #68
	mov	r2, r1
	mov	r5, r0
	ldr	r1, .L799
	mov	r0, sp
	bl	sprintf
	mov	r0, sp
	bl	strlen
	mov	r1, sp
	mov	r4, sp
	mov	r2, r0
	add	r0, r5, #24
	bl	_ZN11TiXmlString6assignEPKcj
	add	sp, sp, #68
	ldmfd	sp!, {r4, r5, pc}
.L800:
	.align	2
.L799:
	.word	.LC8
	.size	_ZN14TiXmlAttribute11SetIntValueEi, .-_ZN14TiXmlAttribute11SetIntValueEi
	.section	.text._ZNK12TiXmlUnknown6CopyToEPS_,"ax",%progbits
	.align	2
	.global	_ZNK12TiXmlUnknown6CopyToEPS_
	.hidden	_ZNK12TiXmlUnknown6CopyToEPS_
	.type	_ZNK12TiXmlUnknown6CopyToEPS_, %function
_ZNK12TiXmlUnknown6CopyToEPS_:
	@ args = 0, pretend = 0, frame = 0
	@ frame_needed = 0, uses_anonymous_args = 0
	stmfd	sp!, {r4, r5, r6, lr}
	ldr	r6, [r0, #32]
	mov	r5, r0
	add	r6, r6, #8
	mov	r0, r6
	mov	r4, r1
	bl	strlen
	mov	r1, r6
	mov	r2, r0
	add	r0, r4, #32
	bl	_ZN11TiXmlString6assignEPKcj
	ldr	r3, [r5, #12]
	str	r3, [r4, #12]
	ldmfd	sp!, {r4, r5, r6, pc}
	.size	_ZNK12TiXmlUnknown6CopyToEPS_, .-_ZNK12TiXmlUnknown6CopyToEPS_
	.section	.text._ZNK13TiXmlDocument8SaveFileEPKc,"ax",%progbits
	.align	2
	.global	_ZNK13TiXmlDocument8SaveFileEPKc
	.hidden	_ZNK13TiXmlDocument8SaveFileEPKc
	.type	_ZNK13TiXmlDocument8SaveFileEPKc, %function
_ZNK13TiXmlDocument8SaveFileEPKc:
	@ args = 0, pretend = 0, frame = 0
	@ frame_needed = 0, uses_anonymous_args = 0
	stmfd	sp!, {r3, r4, r5, lr}
	mov	r5, r0
	mov	r0, r1
	ldr	r1, .L809
	bl	fopen
	subs	r4, r0, #0
	moveq	r5, r4
	beq	.L805
	ldrb	r3, [r5, #68]	@ zero_extendqisi2
	cmp	r3, #0
	bne	.L808
.L806:
	ldr	r1, [r5, #0]
	mov	r0, r5
	mov	r2, #0
	ldr	r5, [r1, #8]
	mov	r1, r4
	blx	r5
	mov	r0, r4
	bl	ferror
	rsbs	r5, r0, #1
	movcc	r5, #0
	mov	r0, r4
	bl	fclose
.L805:
	mov	r0, r5
	ldmfd	sp!, {r3, r4, r5, pc}
.L808:
	mov	r1, r4
	mov	r0, #239
	bl	fputc
	mov	r1, r4
	mov	r0, #187
	bl	fputc
	mov	r1, r4
	mov	r0, #191
	bl	fputc
	b	.L806
.L810:
	.align	2
.L809:
	.word	.LC12
	.size	_ZNK13TiXmlDocument8SaveFileEPKc, .-_ZNK13TiXmlDocument8SaveFileEPKc
	.section	.text._ZNK12TiXmlComment6CopyToEPS_,"ax",%progbits
	.align	2
	.global	_ZNK12TiXmlComment6CopyToEPS_
	.hidden	_ZNK12TiXmlComment6CopyToEPS_
	.type	_ZNK12TiXmlComment6CopyToEPS_, %function
_ZNK12TiXmlComment6CopyToEPS_:
	@ args = 0, pretend = 0, frame = 0
	@ frame_needed = 0, uses_anonymous_args = 0
	stmfd	sp!, {r4, r5, r6, lr}
	ldr	r6, [r0, #32]
	mov	r5, r0
	add	r6, r6, #8
	mov	r0, r6
	mov	r4, r1
	bl	strlen
	mov	r1, r6
	mov	r2, r0
	add	r0, r4, #32
	bl	_ZN11TiXmlString6assignEPKcj
	ldr	r3, [r5, #12]
	str	r3, [r4, #12]
	ldmfd	sp!, {r4, r5, r6, pc}
	.size	_ZNK12TiXmlComment6CopyToEPS_, .-_ZNK12TiXmlComment6CopyToEPS_
	.section	.text._ZNK16TiXmlDeclaration6CopyToEPS_,"ax",%progbits
	.align	2
	.global	_ZNK16TiXmlDeclaration6CopyToEPS_
	.hidden	_ZNK16TiXmlDeclaration6CopyToEPS_
	.type	_ZNK16TiXmlDeclaration6CopyToEPS_, %function
_ZNK16TiXmlDeclaration6CopyToEPS_:
	@ args = 0, pretend = 0, frame = 0
	@ frame_needed = 0, uses_anonymous_args = 0
	stmfd	sp!, {r4, r5, r6, lr}
	ldr	r6, [r0, #32]
	mov	r5, r0
	add	r6, r6, #8
	mov	r0, r6
	mov	r4, r1
	bl	strlen
	mov	r1, r6
	mov	r2, r0
	add	r0, r4, #32
	bl	_ZN11TiXmlString6assignEPKcj
	ldr	r0, [r5, #44]
	ldr	r2, [r5, #12]
	str	r2, [r4, #12]
	add	r1, r0, #8
	ldr	r2, [r0, #0]
	add	r0, r4, #44
	bl	_ZN11TiXmlString6assignEPKcj
	ldr	r3, [r5, #48]
	add	r0, r4, #48
	ldr	r2, [r3, #0]
	add	r1, r3, #8
	bl	_ZN11TiXmlString6assignEPKcj
	ldr	r1, [r5, #52]
	add	r0, r4, #52
	ldr	r2, [r1, #0]
	add	r1, r1, #8
	ldmfd	sp!, {r4, r5, r6, lr}
	b	_ZN11TiXmlString6assignEPKcj
	.size	_ZNK16TiXmlDeclaration6CopyToEPS_, .-_ZNK16TiXmlDeclaration6CopyToEPS_
	.section	.text._ZN12TiXmlCommentaSERKS_,"ax",%progbits
	.align	2
	.global	_ZN12TiXmlCommentaSERKS_
	.hidden	_ZN12TiXmlCommentaSERKS_
	.type	_ZN12TiXmlCommentaSERKS_, %function
_ZN12TiXmlCommentaSERKS_:
	@ args = 0, pretend = 0, frame = 0
	@ frame_needed = 0, uses_anonymous_args = 0
	stmfd	sp!, {r4, r5, r6, lr}
	mov	r4, r0
	ldr	r0, [r0, #24]
	mov	r5, r1
	cmp	r0, #0
	beq	.L816
.L819:
	ldr	r1, [r0, #0]
	ldr	r6, [r0, #40]
	ldr	r3, [r1, #4]
	blx	r3
	cmp	r6, #0
	mov	r0, r6
	bne	.L819
.L816:
	ldr	ip, [r5, #32]
	mov	r2, #0
	add	r6, ip, #8
	str	r2, [r4, #28]
	str	r2, [r4, #24]
	mov	r0, r6
	bl	strlen
	mov	r1, r6
	mov	r2, r0
	add	r0, r4, #32
	bl	_ZN11TiXmlString6assignEPKcj
	ldr	r0, [r5, #12]
	str	r0, [r4, #12]
	ldmfd	sp!, {r4, r5, r6, pc}
	.size	_ZN12TiXmlCommentaSERKS_, .-_ZN12TiXmlCommentaSERKS_
	.section	.text._ZN12TiXmlCommentC2ERKS_,"ax",%progbits
	.align	2
	.global	_ZN12TiXmlCommentC2ERKS_
	.hidden	_ZN12TiXmlCommentC2ERKS_
	.type	_ZN12TiXmlCommentC2ERKS_, %function
_ZN12TiXmlCommentC2ERKS_:
	@ args = 0, pretend = 0, frame = 0
	@ frame_needed = 0, uses_anonymous_args = 0
	stmfd	sp!, {r3, r4, r5, r6, r7, lr}
	ldr	r6, .L827
	str	r6, [r0, #32]
	ldr	r7, [r1, #32]
	mov	r4, r0
	mvn	r2, #0
	mov	r0, #0
	mov	ip, #2
	mov	r5, r1
	add	r7, r7, #8
	mov	r6, r4
	ldr	r1, .L827+4
	str	r1, [r6], #32
	str	r2, [r4, #4]
	str	ip, [r4, #20]
	str	r0, [r4, #40]
	str	r2, [r4, #8]
	str	r0, [r4, #12]
	str	r0, [r4, #16]
	str	r0, [r4, #24]
	str	r0, [r4, #28]
	str	r0, [r4, #36]
	mov	r0, r7
	bl	strlen
	mov	r1, r7
	mov	r2, r0
	mov	r0, r6
	bl	_ZN11TiXmlString6assignEPKcj
	ldr	r3, [r5, #12]
	str	r3, [r4, #12]
	mov	r0, r4
	ldmfd	sp!, {r3, r4, r5, r6, r7, pc}
.L828:
	.align	2
.L827:
	.word	_ZN11TiXmlString8nullrep_E
	.word	.LANCHOR0+304
	.size	_ZN12TiXmlCommentC2ERKS_, .-_ZN12TiXmlCommentC2ERKS_
	.section	.text._ZN12TiXmlCommentC1ERKS_,"ax",%progbits
	.align	2
	.global	_ZN12TiXmlCommentC1ERKS_
	.hidden	_ZN12TiXmlCommentC1ERKS_
	.type	_ZN12TiXmlCommentC1ERKS_, %function
_ZN12TiXmlCommentC1ERKS_:
	@ args = 0, pretend = 0, frame = 0
	@ frame_needed = 0, uses_anonymous_args = 0
	stmfd	sp!, {r3, r4, r5, r6, r7, lr}
	ldr	r6, .L836
	str	r6, [r0, #32]
	ldr	r7, [r1, #32]
	mov	r4, r0
	mvn	r2, #0
	mov	r0, #0
	mov	ip, #2
	mov	r5, r1
	add	r7, r7, #8
	mov	r6, r4
	ldr	r1, .L836+4
	str	r1, [r6], #32
	str	r2, [r4, #4]
	str	ip, [r4, #20]
	str	r0, [r4, #40]
	str	r2, [r4, #8]
	str	r0, [r4, #12]
	str	r0, [r4, #16]
	str	r0, [r4, #24]
	str	r0, [r4, #28]
	str	r0, [r4, #36]
	mov	r0, r7
	bl	strlen
	mov	r1, r7
	mov	r2, r0
	mov	r0, r6
	bl	_ZN11TiXmlString6assignEPKcj
	ldr	r3, [r5, #12]
	str	r3, [r4, #12]
	mov	r0, r4
	ldmfd	sp!, {r3, r4, r5, r6, r7, pc}
.L837:
	.align	2
.L836:
	.word	_ZN11TiXmlString8nullrep_E
	.word	.LANCHOR0+304
	.size	_ZN12TiXmlCommentC1ERKS_, .-_ZN12TiXmlCommentC1ERKS_
	.section	.text._ZNK9TiXmlText6CopyToEPS_,"ax",%progbits
	.align	2
	.global	_ZNK9TiXmlText6CopyToEPS_
	.hidden	_ZNK9TiXmlText6CopyToEPS_
	.type	_ZNK9TiXmlText6CopyToEPS_, %function
_ZNK9TiXmlText6CopyToEPS_:
	@ args = 0, pretend = 0, frame = 0
	@ frame_needed = 0, uses_anonymous_args = 0
	stmfd	sp!, {r4, r5, r6, lr}
	ldr	r6, [r0, #32]
	mov	r5, r0
	add	r6, r6, #8
	mov	r0, r6
	mov	r4, r1
	bl	strlen
	mov	r1, r6
	mov	r2, r0
	add	r0, r4, #32
	bl	_ZN11TiXmlString6assignEPKcj
	ldrb	r2, [r5, #44]	@ zero_extendqisi2
	ldr	r3, [r5, #12]
	strb	r2, [r4, #44]
	str	r3, [r4, #12]
	ldmfd	sp!, {r4, r5, r6, pc}
	.size	_ZNK9TiXmlText6CopyToEPS_, .-_ZNK9TiXmlText6CopyToEPS_
	.section	.text._ZN13TiXmlDocumentC1EPKc,"ax",%progbits
	.align	2
	.global	_ZN13TiXmlDocumentC1EPKc
	.hidden	_ZN13TiXmlDocumentC1EPKc
	.type	_ZN13TiXmlDocumentC1EPKc, %function
_ZN13TiXmlDocumentC1EPKc:
	@ args = 0, pretend = 0, frame = 0
	@ frame_needed = 0, uses_anonymous_args = 0
	stmfd	sp!, {r4, r5, r6, lr}
	mvn	r3, #0
	mov	r4, r0
	mov	r5, #0
	mov	r6, r1
	ldr	r2, .L849
	mov	r1, #4
	ldr	r0, .L849+4
	str	r3, [r4, #60]
	str	r3, [r4, #8]
	str	r3, [r4, #4]
	str	r3, [r4, #64]
	str	r0, [r4, #0]
	str	r2, [r4, #52]
	str	r1, [r4, #56]
	str	r2, [r4, #32]
	str	r5, [r4, #12]
	str	r5, [r4, #16]
	str	r5, [r4, #20]
	str	r5, [r4, #24]
	str	r5, [r4, #28]
	str	r5, [r4, #36]
	str	r5, [r4, #40]
	strb	r5, [r4, #68]
	mov	r0, r6
	bl	strlen
	mov	r1, r6
	mov	r2, r0
	add	r0, r4, #32
	bl	_ZN11TiXmlString6assignEPKcj
	strb	r5, [r4, #44]
	str	r5, [r4, #48]
	add	r0, r4, #52
	ldr	r1, .L849+8
	mov	r2, r5
	bl	_ZN11TiXmlString6assignEPKcj
	str	r5, [r4, #60]
	str	r5, [r4, #64]
	mov	r0, r4
	ldmfd	sp!, {r4, r5, r6, pc}
.L850:
	.align	2
.L849:
	.word	_ZN11TiXmlString8nullrep_E
	.word	_ZTV13TiXmlDocument+8
	.word	.LC11
	.size	_ZN13TiXmlDocumentC1EPKc, .-_ZN13TiXmlDocumentC1EPKc
	.section	.text._ZN13TiXmlDocumentC2Ev,"ax",%progbits
	.align	2
	.global	_ZN13TiXmlDocumentC2Ev
	.hidden	_ZN13TiXmlDocumentC2Ev
	.type	_ZN13TiXmlDocumentC2Ev, %function
_ZN13TiXmlDocumentC2Ev:
	@ args = 0, pretend = 0, frame = 0
	@ frame_needed = 0, uses_anonymous_args = 0
	stmfd	sp!, {r3, r4, r5, lr}
	ldr	r2, .L860
	mov	r4, r0
	mov	r5, #0
	mvn	r3, #0
	ldr	r0, .L860+4
	mov	r1, #4
	str	r0, [r4, #0]
	str	r2, [r4, #52]
	str	r1, [r4, #56]
	str	r2, [r4, #32]
	str	r3, [r4, #60]
	str	r3, [r4, #8]
	str	r3, [r4, #4]
	str	r5, [r4, #12]
	str	r5, [r4, #16]
	str	r5, [r4, #20]
	str	r5, [r4, #24]
	str	r5, [r4, #28]
	str	r5, [r4, #36]
	str	r5, [r4, #40]
	str	r3, [r4, #64]
	strb	r5, [r4, #68]
	strb	r5, [r4, #44]
	str	r5, [r4, #48]
	add	r0, r4, #52
	ldr	r1, .L860+8
	mov	r2, r5
	bl	_ZN11TiXmlString6assignEPKcj
	str	r5, [r4, #60]
	str	r5, [r4, #64]
	mov	r0, r4
	ldmfd	sp!, {r3, r4, r5, pc}
.L861:
	.align	2
.L860:
	.word	_ZN11TiXmlString8nullrep_E
	.word	_ZTV13TiXmlDocument+8
	.word	.LC11
	.size	_ZN13TiXmlDocumentC2Ev, .-_ZN13TiXmlDocumentC2Ev
	.section	.text._ZN13TiXmlDocumentC1Ev,"ax",%progbits
	.align	2
	.global	_ZN13TiXmlDocumentC1Ev
	.hidden	_ZN13TiXmlDocumentC1Ev
	.type	_ZN13TiXmlDocumentC1Ev, %function
_ZN13TiXmlDocumentC1Ev:
	@ args = 0, pretend = 0, frame = 0
	@ frame_needed = 0, uses_anonymous_args = 0
	stmfd	sp!, {r3, r4, r5, lr}
	ldr	r2, .L871
	mov	r4, r0
	mov	r5, #0
	mvn	r3, #0
	ldr	r0, .L871+4
	mov	r1, #4
	str	r0, [r4, #0]
	str	r2, [r4, #52]
	str	r1, [r4, #56]
	str	r2, [r4, #32]
	str	r3, [r4, #60]
	str	r3, [r4, #8]
	str	r3, [r4, #4]
	str	r5, [r4, #12]
	str	r5, [r4, #16]
	str	r5, [r4, #20]
	str	r5, [r4, #24]
	str	r5, [r4, #28]
	str	r5, [r4, #36]
	str	r5, [r4, #40]
	str	r3, [r4, #64]
	strb	r5, [r4, #68]
	strb	r5, [r4, #44]
	str	r5, [r4, #48]
	add	r0, r4, #52
	ldr	r1, .L871+8
	mov	r2, r5
	bl	_ZN11TiXmlString6assignEPKcj
	str	r5, [r4, #60]
	str	r5, [r4, #64]
	mov	r0, r4
	ldmfd	sp!, {r3, r4, r5, pc}
.L872:
	.align	2
.L871:
	.word	_ZN11TiXmlString8nullrep_E
	.word	_ZTV13TiXmlDocument+8
	.word	.LC11
	.size	_ZN13TiXmlDocumentC1Ev, .-_ZN13TiXmlDocumentC1Ev
	.section	.text._ZN16TiXmlDeclarationaSERKS_,"ax",%progbits
	.align	2
	.global	_ZN16TiXmlDeclarationaSERKS_
	.hidden	_ZN16TiXmlDeclarationaSERKS_
	.type	_ZN16TiXmlDeclarationaSERKS_, %function
_ZN16TiXmlDeclarationaSERKS_:
	@ args = 0, pretend = 0, frame = 0
	@ frame_needed = 0, uses_anonymous_args = 0
	stmfd	sp!, {r4, r5, r6, lr}
	mov	r4, r0
	ldr	r0, [r0, #24]
	mov	r5, r1
	cmp	r0, #0
	beq	.L874
.L877:
	ldr	r1, [r0, #0]
	ldr	r6, [r0, #40]
	ldr	r3, [r1, #4]
	blx	r3
	cmp	r6, #0
	mov	r0, r6
	bne	.L877
.L874:
	ldr	r6, [r5, #32]
	mov	lr, #0
	add	r6, r6, #8
	str	lr, [r4, #28]
	str	lr, [r4, #24]
	mov	r0, r6
	bl	strlen
	mov	r1, r6
	mov	r2, r0
	add	r0, r4, #32
	bl	_ZN11TiXmlString6assignEPKcj
	ldr	r0, [r5, #44]
	ldr	r2, [r5, #12]
	str	r2, [r4, #12]
	add	r1, r0, #8
	ldr	r2, [r0, #0]
	add	r0, r4, #44
	bl	_ZN11TiXmlString6assignEPKcj
	ldr	r3, [r5, #48]
	add	r0, r4, #48
	ldr	r2, [r3, #0]
	add	r1, r3, #8
	bl	_ZN11TiXmlString6assignEPKcj
	ldr	ip, [r5, #52]
	add	r0, r4, #52
	add	r1, ip, #8
	ldr	r2, [ip, #0]
	ldmfd	sp!, {r4, r5, r6, lr}
	b	_ZN11TiXmlString6assignEPKcj
	.size	_ZN16TiXmlDeclarationaSERKS_, .-_ZN16TiXmlDeclarationaSERKS_
	.section	.text._ZNK12TiXmlComment5CloneEv,"ax",%progbits
	.align	2
	.global	_ZNK12TiXmlComment5CloneEv
	.hidden	_ZNK12TiXmlComment5CloneEv
	.type	_ZNK12TiXmlComment5CloneEv, %function
_ZNK12TiXmlComment5CloneEv:
	@ args = 0, pretend = 0, frame = 0
	@ frame_needed = 0, uses_anonymous_args = 0
	stmfd	sp!, {r3, r4, r5, r6, r7, lr}
	mov	r5, r0
	mov	r0, #44
	bl	_Znwj
	ldr	r6, .L884
	mvn	r2, #0
	mov	ip, #2
	ldr	r1, .L884+4
	str	r6, [r0, #32]
	ldr	r7, [r5, #32]
	mov	r4, r0
	add	r7, r7, #8
	mov	r0, #0
	mov	r6, r4
	str	r1, [r6], #32
	str	r2, [r4, #4]
	str	ip, [r4, #20]
	str	r0, [r4, #40]
	str	r2, [r4, #8]
	str	r0, [r4, #12]
	str	r0, [r4, #16]
	str	r0, [r4, #24]
	str	r0, [r4, #28]
	str	r0, [r4, #36]
	mov	r0, r7
	bl	strlen
	mov	r1, r7
	mov	r2, r0
	mov	r0, r6
	bl	_ZN11TiXmlString6assignEPKcj
	ldr	r3, [r5, #12]
	str	r3, [r4, #12]
	mov	r0, r4
	ldmfd	sp!, {r3, r4, r5, r6, r7, pc}
.L885:
	.align	2
.L884:
	.word	_ZN11TiXmlString8nullrep_E
	.word	.LANCHOR0+304
	.size	_ZNK12TiXmlComment5CloneEv, .-_ZNK12TiXmlComment5CloneEv
	.section	.text._ZNK12TiXmlUnknown5CloneEv,"ax",%progbits
	.align	2
	.global	_ZNK12TiXmlUnknown5CloneEv
	.hidden	_ZNK12TiXmlUnknown5CloneEv
	.type	_ZNK12TiXmlUnknown5CloneEv, %function
_ZNK12TiXmlUnknown5CloneEv:
	@ args = 0, pretend = 0, frame = 0
	@ frame_needed = 0, uses_anonymous_args = 0
	stmfd	sp!, {r3, r4, r5, r6, r7, lr}
	mov	r5, r0
	mov	r0, #44
	bl	_Znwj
	ldr	r6, .L892
	mvn	r2, #0
	mov	ip, #3
	ldr	r1, .L892+4
	str	r6, [r0, #32]
	ldr	r7, [r5, #32]
	mov	r4, r0
	add	r7, r7, #8
	mov	r0, #0
	mov	r6, r4
	str	r1, [r6], #32
	str	r2, [r4, #4]
	str	ip, [r4, #20]
	str	r0, [r4, #40]
	str	r2, [r4, #8]
	str	r0, [r4, #12]
	str	r0, [r4, #16]
	str	r0, [r4, #24]
	str	r0, [r4, #28]
	str	r0, [r4, #36]
	mov	r0, r7
	bl	strlen
	mov	r1, r7
	mov	r2, r0
	mov	r0, r6
	bl	_ZN11TiXmlString6assignEPKcj
	ldr	r3, [r5, #12]
	str	r3, [r4, #12]
	mov	r0, r4
	ldmfd	sp!, {r3, r4, r5, r6, r7, pc}
.L893:
	.align	2
.L892:
	.word	_ZN11TiXmlString8nullrep_E
	.word	.LANCHOR0+384
	.size	_ZNK12TiXmlUnknown5CloneEv, .-_ZNK12TiXmlUnknown5CloneEv
	.section	.text._ZNK9TiXmlText5CloneEv,"ax",%progbits
	.align	2
	.global	_ZNK9TiXmlText5CloneEv
	.hidden	_ZNK9TiXmlText5CloneEv
	.type	_ZNK9TiXmlText5CloneEv, %function
_ZNK9TiXmlText5CloneEv:
	@ args = 0, pretend = 0, frame = 0
	@ frame_needed = 0, uses_anonymous_args = 0
	stmfd	sp!, {r3, r4, r5, r6, r7, lr}
	mov	r7, r0
	mov	r0, #48
	bl	_Znwj
	mov	r5, #0
	ldr	r3, .L900
	mov	ip, #4
	mvn	r1, #0
	ldr	r2, .L900+4
	mov	r6, r0
	mov	r4, r0
	str	r2, [r6], #32
	str	r3, [r0, #32]
	str	ip, [r0, #20]
	mov	r2, r5
	str	r1, [r0, #4]
	str	r1, [r0, #8]
	str	r5, [r0, #12]
	str	r5, [r0, #16]
	str	r5, [r0, #24]
	str	r5, [r0, #28]
	str	r5, [r0, #36]
	str	r5, [r0, #40]
	ldr	r1, .L900+8
	mov	r0, r6
	bl	_ZN11TiXmlString6assignEPKcj
	ldr	r0, [r7, #32]
	strb	r5, [r4, #44]
	add	r5, r0, #8
	mov	r0, r5
	bl	strlen
	mov	r1, r5
	mov	r2, r0
	mov	r0, r6
	bl	_ZN11TiXmlString6assignEPKcj
	ldrb	r3, [r7, #44]	@ zero_extendqisi2
	ldr	r2, [r7, #12]
	str	r2, [r4, #12]
	strb	r3, [r4, #44]
	mov	r0, r4
	ldmfd	sp!, {r3, r4, r5, r6, r7, pc}
.L901:
	.align	2
.L900:
	.word	_ZN11TiXmlString8nullrep_E
	.word	.LANCHOR0+464
	.word	.LC11
	.size	_ZNK9TiXmlText5CloneEv, .-_ZNK9TiXmlText5CloneEv
	.section	.text._ZN16TiXmlDeclarationC1ERKS_,"ax",%progbits
	.align	2
	.global	_ZN16TiXmlDeclarationC1ERKS_
	.hidden	_ZN16TiXmlDeclarationC1ERKS_
	.type	_ZN16TiXmlDeclarationC1ERKS_, %function
_ZN16TiXmlDeclarationC1ERKS_:
	@ args = 0, pretend = 0, frame = 0
	@ frame_needed = 0, uses_anonymous_args = 0
	ldr	ip, .L911
	stmfd	sp!, {r4, r5, r6, lr}
	str	ip, [r0, #32]
	ldr	r6, [r1, #32]
	mov	r5, r1
	mvn	r1, #0
	mov	r4, r0
	mov	lr, #0
	ldr	r3, .L911+4
	add	r6, r6, #8
	str	r1, [r0, #4]
	mov	r0, #5
	str	lr, [r4, #40]
	str	ip, [r4, #52]
	str	lr, [r4, #12]
	str	lr, [r4, #16]
	str	lr, [r4, #24]
	str	lr, [r4, #28]
	str	lr, [r4, #36]
	str	ip, [r4, #44]
	str	ip, [r4, #48]
	str	r3, [r4, #0]
	str	r0, [r4, #20]
	str	r1, [r4, #8]
	mov	r0, r6
	bl	strlen
	mov	r1, r6
	mov	r2, r0
	add	r0, r4, #32
	bl	_ZN11TiXmlString6assignEPKcj
	ldr	r0, [r5, #44]
	ldr	r2, [r5, #12]
	str	r2, [r4, #12]
	add	r1, r0, #8
	ldr	r2, [r0, #0]
	add	r0, r4, #44
	bl	_ZN11TiXmlString6assignEPKcj
	ldr	r3, [r5, #48]
	add	r0, r4, #48
	ldr	r2, [r3, #0]
	add	r1, r3, #8
	bl	_ZN11TiXmlString6assignEPKcj
	ldr	r1, [r5, #52]
	add	r0, r4, #52
	ldr	r2, [r1, #0]
	add	r1, r1, #8
	bl	_ZN11TiXmlString6assignEPKcj
	mov	r0, r4
	ldmfd	sp!, {r4, r5, r6, pc}
.L912:
	.align	2
.L911:
	.word	_ZN11TiXmlString8nullrep_E
	.word	.LANCHOR0+136
	.size	_ZN16TiXmlDeclarationC1ERKS_, .-_ZN16TiXmlDeclarationC1ERKS_
	.section	.text._ZN16TiXmlDeclarationC2ERKS_,"ax",%progbits
	.align	2
	.global	_ZN16TiXmlDeclarationC2ERKS_
	.hidden	_ZN16TiXmlDeclarationC2ERKS_
	.type	_ZN16TiXmlDeclarationC2ERKS_, %function
_ZN16TiXmlDeclarationC2ERKS_:
	@ args = 0, pretend = 0, frame = 0
	@ frame_needed = 0, uses_anonymous_args = 0
	ldr	ip, .L922
	stmfd	sp!, {r4, r5, r6, lr}
	str	ip, [r0, #32]
	ldr	r6, [r1, #32]
	mov	r5, r1
	mvn	r1, #0
	mov	r4, r0
	mov	lr, #0
	ldr	r3, .L922+4
	add	r6, r6, #8
	str	r1, [r0, #4]
	mov	r0, #5
	str	lr, [r4, #40]
	str	ip, [r4, #52]
	str	lr, [r4, #12]
	str	lr, [r4, #16]
	str	lr, [r4, #24]
	str	lr, [r4, #28]
	str	lr, [r4, #36]
	str	ip, [r4, #44]
	str	ip, [r4, #48]
	str	r3, [r4, #0]
	str	r0, [r4, #20]
	str	r1, [r4, #8]
	mov	r0, r6
	bl	strlen
	mov	r1, r6
	mov	r2, r0
	add	r0, r4, #32
	bl	_ZN11TiXmlString6assignEPKcj
	ldr	r0, [r5, #44]
	ldr	r2, [r5, #12]
	str	r2, [r4, #12]
	add	r1, r0, #8
	ldr	r2, [r0, #0]
	add	r0, r4, #44
	bl	_ZN11TiXmlString6assignEPKcj
	ldr	r3, [r5, #48]
	add	r0, r4, #48
	ldr	r2, [r3, #0]
	add	r1, r3, #8
	bl	_ZN11TiXmlString6assignEPKcj
	ldr	r1, [r5, #52]
	add	r0, r4, #52
	ldr	r2, [r1, #0]
	add	r1, r1, #8
	bl	_ZN11TiXmlString6assignEPKcj
	mov	r0, r4
	ldmfd	sp!, {r4, r5, r6, pc}
.L923:
	.align	2
.L922:
	.word	_ZN11TiXmlString8nullrep_E
	.word	.LANCHOR0+136
	.size	_ZN16TiXmlDeclarationC2ERKS_, .-_ZN16TiXmlDeclarationC2ERKS_
	.section	.text._ZNK11TiXmlHandle12ChildElementEPKci,"ax",%progbits
	.align	2
	.global	_ZNK11TiXmlHandle12ChildElementEPKci
	.hidden	_ZNK11TiXmlHandle12ChildElementEPKci
	.type	_ZNK11TiXmlHandle12ChildElementEPKci, %function
_ZNK11TiXmlHandle12ChildElementEPKci:
	@ args = 0, pretend = 0, frame = 0
	@ frame_needed = 0, uses_anonymous_args = 0
	stmfd	sp!, {r4, r5, r6, r7, r8, lr}
	ldr	r1, [r1, #0]
	mov	r4, r0
	cmp	r1, #0
	mov	r5, r2
	mov	r8, r3
	beq	.L925
	ldr	r6, [r1, #24]
	cmp	r6, #0
	bne	.L944
	b	.L925
.L952:
	ldr	r6, [r6, #40]
	cmp	r6, #0
	beq	.L925
.L944:
	ldr	r0, [r6, #32]
	mov	r1, r5
	add	r0, r0, #8
	bl	strcmp
	cmp	r0, #0
	bne	.L952
.L942:
	ldr	r1, [r6, #0]
	mov	r0, r6
	ldr	r3, [r1, #20]
	blx	r3
	cmp	r0, #0
	beq	.L928
	b	.L958
.L954:
	ldr	lr, [r6, #32]
	mov	r1, r5
	add	r0, lr, #8
	bl	strcmp
	cmp	r0, #0
	beq	.L942
.L928:
	ldr	r6, [r6, #40]
	cmp	r6, #0
	bne	.L954
.L925:
	mov	r0, #0
	str	r0, [r4, #0]
.L924:
	mov	r0, r4
	ldmfd	sp!, {r4, r5, r6, r7, r8, pc}
.L958:
	ldr	ip, [r6, #0]
	mov	r0, r6
	ldr	r2, [ip, #20]
	blx	r2
	cmp	r0, #0
	cmpne	r8, #0
	movgt	r7, #0
	ble	.L930
.L935:
	ldr	r6, [r0, #40]
	cmp	r6, #0
	bne	.L941
	b	.L925
.L955:
	ldr	r6, [r6, #40]
	cmp	r6, #0
	beq	.L925
.L941:
	ldr	r0, [r6, #32]
	mov	r1, r5
	add	r0, r0, #8
	bl	strcmp
	cmp	r0, #0
	bne	.L955
.L939:
	ldr	r1, [r6, #0]
	mov	r0, r6
	ldr	r3, [r1, #20]
	blx	r3
	cmp	r0, #0
	beq	.L934
	b	.L959
.L957:
	ldr	lr, [r6, #32]
	mov	r1, r5
	add	r0, lr, #8
	bl	strcmp
	cmp	r0, #0
	beq	.L939
.L934:
	ldr	r6, [r6, #40]
	cmp	r6, #0
	bne	.L957
	b	.L925
.L959:
	ldr	ip, [r6, #0]
	mov	r0, r6
	ldr	r2, [ip, #20]
	blx	r2
	add	r7, r7, #1
	cmp	r0, #0
	cmpne	r8, r7
	bgt	.L935
.L930:
	cmp	r0, #0
	strne	r0, [r4, #0]
	bne	.L924
	b	.L925
	.size	_ZNK11TiXmlHandle12ChildElementEPKci, .-_ZNK11TiXmlHandle12ChildElementEPKci
	.section	.text._ZNK11TiXmlHandle17FirstChildElementEPKc,"ax",%progbits
	.align	2
	.global	_ZNK11TiXmlHandle17FirstChildElementEPKc
	.hidden	_ZNK11TiXmlHandle17FirstChildElementEPKc
	.type	_ZNK11TiXmlHandle17FirstChildElementEPKc, %function
_ZNK11TiXmlHandle17FirstChildElementEPKc:
	@ args = 0, pretend = 0, frame = 0
	@ frame_needed = 0, uses_anonymous_args = 0
	stmfd	sp!, {r4, r5, r6, lr}
	ldr	r3, [r1, #0]
	mov	r4, r0
	cmp	r3, #0
	mov	r6, r2
	beq	.L961
	ldr	r5, [r3, #24]
	cmp	r5, #0
	bne	.L971
	b	.L961
.L976:
	ldr	r5, [r5, #40]
	cmp	r5, #0
	beq	.L961
.L971:
	ldr	r0, [r5, #32]
	mov	r1, r6
	add	r0, r0, #8
	bl	strcmp
	cmp	r0, #0
	bne	.L976
.L969:
	ldr	r1, [r5, #0]
	mov	r0, r5
	ldr	r3, [r1, #20]
	blx	r3
	cmp	r0, #0
	beq	.L964
	b	.L979
.L978:
	ldr	lr, [r5, #32]
	mov	r1, r6
	add	r0, lr, #8
	bl	strcmp
	cmp	r0, #0
	beq	.L969
.L964:
	ldr	r5, [r5, #40]
	cmp	r5, #0
	bne	.L978
.L961:
	mov	r0, #0
	str	r0, [r4, #0]
	mov	r0, r4
	ldmfd	sp!, {r4, r5, r6, pc}
.L979:
	ldr	ip, [r5, #0]
	mov	r0, r5
	ldr	r2, [ip, #20]
	blx	r2
	cmp	r0, #0
	strne	r0, [r4, #0]
	beq	.L961
	mov	r0, r4
	ldmfd	sp!, {r4, r5, r6, pc}
	.size	_ZNK11TiXmlHandle17FirstChildElementEPKc, .-_ZNK11TiXmlHandle17FirstChildElementEPKc
	.section	.text._ZN9TiXmlTextD1Ev,"axG",%progbits,_ZN9TiXmlTextD1Ev,comdat
	.align	2
	.weak	_ZN9TiXmlTextD1Ev
	.hidden	_ZN9TiXmlTextD1Ev
	.type	_ZN9TiXmlTextD1Ev, %function
_ZN9TiXmlTextD1Ev:
	@ args = 0, pretend = 0, frame = 0
	@ frame_needed = 0, uses_anonymous_args = 0
	stmfd	sp!, {r3, r4, r5, lr}
	mov	r5, r0
	ldr	r0, [r0, #24]
	ldr	r3, .L986
	cmp	r0, #0
	str	r3, [r5, #0]
	beq	.L981
.L985:
	ldr	r2, [r0, #0]
	ldr	r4, [r0, #40]
	ldr	r1, [r2, #4]
	blx	r1
	cmp	r4, #0
	mov	r0, r4
	bne	.L985
.L981:
	ldr	r0, [r5, #32]
	ldr	ip, .L986+4
	cmp	r0, ip
	beq	.L983
	cmp	r0, #0
	beq	.L983
	bl	_ZdaPv
.L983:
	ldr	r0, .L986+8
	str	r0, [r5, #0]
	mov	r0, r5
	ldmfd	sp!, {r3, r4, r5, pc}
.L987:
	.align	2
.L986:
	.word	.LANCHOR0+8
	.word	_ZN11TiXmlString8nullrep_E
	.word	_ZTV9TiXmlBase+8
	.size	_ZN9TiXmlTextD1Ev, .-_ZN9TiXmlTextD1Ev
	.section	.text._ZN16TiXmlDeclarationD0Ev,"axG",%progbits,_ZN16TiXmlDeclarationD0Ev,comdat
	.align	2
	.weak	_ZN16TiXmlDeclarationD0Ev
	.hidden	_ZN16TiXmlDeclarationD0Ev
	.type	_ZN16TiXmlDeclarationD0Ev, %function
_ZN16TiXmlDeclarationD0Ev:
	@ args = 0, pretend = 0, frame = 0
	@ frame_needed = 0, uses_anonymous_args = 0
	stmfd	sp!, {r4, r5, r6, lr}
	mov	r5, r0
	ldr	r6, .L997
	ldr	r0, [r0, #52]
	ldr	r3, .L997+4
	cmp	r0, r6
	str	r3, [r5, #0]
	beq	.L989
	cmp	r0, #0
	beq	.L989
	bl	_ZdaPv
.L989:
	ldr	r0, [r5, #48]
	cmp	r0, r6
	beq	.L990
	cmp	r0, #0
	beq	.L990
	bl	_ZdaPv
.L990:
	ldr	r0, [r5, #44]
	cmp	r0, r6
	beq	.L991
	cmp	r0, #0
	beq	.L991
	bl	_ZdaPv
.L991:
	ldr	r0, [r5, #24]
	ldr	r1, .L997+8
	cmp	r0, #0
	str	r1, [r5, #0]
	beq	.L992
.L996:
	ldr	ip, [r0, #0]
	ldr	r4, [r0, #40]
	ldr	r2, [ip, #4]
	blx	r2
	cmp	r4, #0
	mov	r0, r4
	bne	.L996
.L992:
	ldr	r0, [r5, #32]
	cmp	r0, r6
	beq	.L994
	cmp	r0, #0
	beq	.L994
	bl	_ZdaPv
.L994:
	ldr	r0, .L997+12
	str	r0, [r5, #0]
	mov	r0, r5
	bl	_ZdlPv
	mov	r0, r5
	ldmfd	sp!, {r4, r5, r6, pc}
.L998:
	.align	2
.L997:
	.word	_ZN11TiXmlString8nullrep_E
	.word	.LANCHOR0+136
	.word	.LANCHOR0+8
	.word	_ZTV9TiXmlBase+8
	.size	_ZN16TiXmlDeclarationD0Ev, .-_ZN16TiXmlDeclarationD0Ev
	.section	.text._ZN16TiXmlDeclarationD1Ev,"axG",%progbits,_ZN16TiXmlDeclarationD1Ev,comdat
	.align	2
	.weak	_ZN16TiXmlDeclarationD1Ev
	.hidden	_ZN16TiXmlDeclarationD1Ev
	.type	_ZN16TiXmlDeclarationD1Ev, %function
_ZN16TiXmlDeclarationD1Ev:
	@ args = 0, pretend = 0, frame = 0
	@ frame_needed = 0, uses_anonymous_args = 0
	stmfd	sp!, {r4, r5, r6, lr}
	mov	r5, r0
	ldr	r6, .L1008
	ldr	r0, [r0, #52]
	ldr	r3, .L1008+4
	cmp	r0, r6
	str	r3, [r5, #0]
	beq	.L1000
	cmp	r0, #0
	beq	.L1000
	bl	_ZdaPv
.L1000:
	ldr	r0, [r5, #48]
	cmp	r0, r6
	beq	.L1001
	cmp	r0, #0
	beq	.L1001
	bl	_ZdaPv
.L1001:
	ldr	r0, [r5, #44]
	cmp	r0, r6
	beq	.L1002
	cmp	r0, #0
	beq	.L1002
	bl	_ZdaPv
.L1002:
	ldr	r0, [r5, #24]
	ldr	r1, .L1008+8
	cmp	r0, #0
	str	r1, [r5, #0]
	beq	.L1003
.L1007:
	ldr	ip, [r0, #0]
	ldr	r4, [r0, #40]
	ldr	r2, [ip, #4]
	blx	r2
	cmp	r4, #0
	mov	r0, r4
	bne	.L1007
.L1003:
	ldr	r0, [r5, #32]
	cmp	r0, r6
	beq	.L1005
	cmp	r0, #0
	beq	.L1005
	bl	_ZdaPv
.L1005:
	ldr	r0, .L1008+12
	str	r0, [r5, #0]
	mov	r0, r5
	ldmfd	sp!, {r4, r5, r6, pc}
.L1009:
	.align	2
.L1008:
	.word	_ZN11TiXmlString8nullrep_E
	.word	.LANCHOR0+136
	.word	.LANCHOR0+8
	.word	_ZTV9TiXmlBase+8
	.size	_ZN16TiXmlDeclarationD1Ev, .-_ZN16TiXmlDeclarationD1Ev
	.section	.text._ZN12TiXmlUnknownD0Ev,"axG",%progbits,_ZN12TiXmlUnknownD0Ev,comdat
	.align	2
	.weak	_ZN12TiXmlUnknownD0Ev
	.hidden	_ZN12TiXmlUnknownD0Ev
	.type	_ZN12TiXmlUnknownD0Ev, %function
_ZN12TiXmlUnknownD0Ev:
	@ args = 0, pretend = 0, frame = 0
	@ frame_needed = 0, uses_anonymous_args = 0
	stmfd	sp!, {r3, r4, r5, lr}
	mov	r5, r0
	ldr	r0, [r0, #24]
	ldr	r3, .L1016
	cmp	r0, #0
	str	r3, [r5, #0]
	beq	.L1011
.L1015:
	ldr	r2, [r0, #0]
	ldr	r4, [r0, #40]
	ldr	r1, [r2, #4]
	blx	r1
	cmp	r4, #0
	mov	r0, r4
	bne	.L1015
.L1011:
	ldr	r0, [r5, #32]
	ldr	ip, .L1016+4
	cmp	r0, ip
	beq	.L1013
	cmp	r0, #0
	beq	.L1013
	bl	_ZdaPv
.L1013:
	ldr	r0, .L1016+8
	str	r0, [r5, #0]
	mov	r0, r5
	bl	_ZdlPv
	mov	r0, r5
	ldmfd	sp!, {r3, r4, r5, pc}
.L1017:
	.align	2
.L1016:
	.word	.LANCHOR0+8
	.word	_ZN11TiXmlString8nullrep_E
	.word	_ZTV9TiXmlBase+8
	.size	_ZN12TiXmlUnknownD0Ev, .-_ZN12TiXmlUnknownD0Ev
	.section	.text._ZN12TiXmlCommentD1Ev,"axG",%progbits,_ZN12TiXmlCommentD1Ev,comdat
	.align	2
	.weak	_ZN12TiXmlCommentD1Ev
	.hidden	_ZN12TiXmlCommentD1Ev
	.type	_ZN12TiXmlCommentD1Ev, %function
_ZN12TiXmlCommentD1Ev:
	@ args = 0, pretend = 0, frame = 0
	@ frame_needed = 0, uses_anonymous_args = 0
	stmfd	sp!, {r3, r4, r5, lr}
	mov	r5, r0
	ldr	r0, [r0, #24]
	ldr	r3, .L1024
	cmp	r0, #0
	str	r3, [r5, #0]
	beq	.L1019
.L1023:
	ldr	r2, [r0, #0]
	ldr	r4, [r0, #40]
	ldr	r1, [r2, #4]
	blx	r1
	cmp	r4, #0
	mov	r0, r4
	bne	.L1023
.L1019:
	ldr	r0, [r5, #32]
	ldr	ip, .L1024+4
	cmp	r0, ip
	beq	.L1021
	cmp	r0, #0
	beq	.L1021
	bl	_ZdaPv
.L1021:
	ldr	r0, .L1024+8
	str	r0, [r5, #0]
	mov	r0, r5
	ldmfd	sp!, {r3, r4, r5, pc}
.L1025:
	.align	2
.L1024:
	.word	.LANCHOR0+8
	.word	_ZN11TiXmlString8nullrep_E
	.word	_ZTV9TiXmlBase+8
	.size	_ZN12TiXmlCommentD1Ev, .-_ZN12TiXmlCommentD1Ev
	.section	.text._ZN12TiXmlCommentD0Ev,"axG",%progbits,_ZN12TiXmlCommentD0Ev,comdat
	.align	2
	.weak	_ZN12TiXmlCommentD0Ev
	.hidden	_ZN12TiXmlCommentD0Ev
	.type	_ZN12TiXmlCommentD0Ev, %function
_ZN12TiXmlCommentD0Ev:
	@ args = 0, pretend = 0, frame = 0
	@ frame_needed = 0, uses_anonymous_args = 0
	stmfd	sp!, {r3, r4, r5, lr}
	mov	r5, r0
	ldr	r0, [r0, #24]
	ldr	r3, .L1032
	cmp	r0, #0
	str	r3, [r5, #0]
	beq	.L1027
.L1031:
	ldr	r2, [r0, #0]
	ldr	r4, [r0, #40]
	ldr	r1, [r2, #4]
	blx	r1
	cmp	r4, #0
	mov	r0, r4
	bne	.L1031
.L1027:
	ldr	r0, [r5, #32]
	ldr	ip, .L1032+4
	cmp	r0, ip
	beq	.L1029
	cmp	r0, #0
	beq	.L1029
	bl	_ZdaPv
.L1029:
	ldr	r0, .L1032+8
	str	r0, [r5, #0]
	mov	r0, r5
	bl	_ZdlPv
	mov	r0, r5
	ldmfd	sp!, {r3, r4, r5, pc}
.L1033:
	.align	2
.L1032:
	.word	.LANCHOR0+8
	.word	_ZN11TiXmlString8nullrep_E
	.word	_ZTV9TiXmlBase+8
	.size	_ZN12TiXmlCommentD0Ev, .-_ZN12TiXmlCommentD0Ev
	.section	.text._ZN9TiXmlTextD0Ev,"axG",%progbits,_ZN9TiXmlTextD0Ev,comdat
	.align	2
	.weak	_ZN9TiXmlTextD0Ev
	.hidden	_ZN9TiXmlTextD0Ev
	.type	_ZN9TiXmlTextD0Ev, %function
_ZN9TiXmlTextD0Ev:
	@ args = 0, pretend = 0, frame = 0
	@ frame_needed = 0, uses_anonymous_args = 0
	stmfd	sp!, {r3, r4, r5, lr}
	mov	r5, r0
	ldr	r0, [r0, #24]
	ldr	r3, .L1040
	cmp	r0, #0
	str	r3, [r5, #0]
	beq	.L1035
.L1039:
	ldr	r2, [r0, #0]
	ldr	r4, [r0, #40]
	ldr	r1, [r2, #4]
	blx	r1
	cmp	r4, #0
	mov	r0, r4
	bne	.L1039
.L1035:
	ldr	r0, [r5, #32]
	ldr	ip, .L1040+4
	cmp	r0, ip
	beq	.L1037
	cmp	r0, #0
	beq	.L1037
	bl	_ZdaPv
.L1037:
	ldr	r0, .L1040+8
	str	r0, [r5, #0]
	mov	r0, r5
	bl	_ZdlPv
	mov	r0, r5
	ldmfd	sp!, {r3, r4, r5, pc}
.L1041:
	.align	2
.L1040:
	.word	.LANCHOR0+8
	.word	_ZN11TiXmlString8nullrep_E
	.word	_ZTV9TiXmlBase+8
	.size	_ZN9TiXmlTextD0Ev, .-_ZN9TiXmlTextD0Ev
	.section	.text._ZN12TiXmlUnknownD1Ev,"axG",%progbits,_ZN12TiXmlUnknownD1Ev,comdat
	.align	2
	.weak	_ZN12TiXmlUnknownD1Ev
	.hidden	_ZN12TiXmlUnknownD1Ev
	.type	_ZN12TiXmlUnknownD1Ev, %function
_ZN12TiXmlUnknownD1Ev:
	@ args = 0, pretend = 0, frame = 0
	@ frame_needed = 0, uses_anonymous_args = 0
	stmfd	sp!, {r3, r4, r5, lr}
	mov	r5, r0
	ldr	r0, [r0, #24]
	ldr	r3, .L1048
	cmp	r0, #0
	str	r3, [r5, #0]
	beq	.L1043
.L1047:
	ldr	r2, [r0, #0]
	ldr	r4, [r0, #40]
	ldr	r1, [r2, #4]
	blx	r1
	cmp	r4, #0
	mov	r0, r4
	bne	.L1047
.L1043:
	ldr	r0, [r5, #32]
	ldr	ip, .L1048+4
	cmp	r0, ip
	beq	.L1045
	cmp	r0, #0
	beq	.L1045
	bl	_ZdaPv
.L1045:
	ldr	r0, .L1048+8
	str	r0, [r5, #0]
	mov	r0, r5
	ldmfd	sp!, {r3, r4, r5, pc}
.L1049:
	.align	2
.L1048:
	.word	.LANCHOR0+8
	.word	_ZN11TiXmlString8nullrep_E
	.word	_ZTV9TiXmlBase+8
	.size	_ZN12TiXmlUnknownD1Ev, .-_ZN12TiXmlUnknownD1Ev
	.section	.text._ZN12TiXmlElementD0Ev,"ax",%progbits
	.align	2
	.global	_ZN12TiXmlElementD0Ev
	.hidden	_ZN12TiXmlElementD0Ev
	.type	_ZN12TiXmlElementD0Ev, %function
_ZN12TiXmlElementD0Ev:
	@ args = 0, pretend = 0, frame = 0
	@ frame_needed = 0, uses_anonymous_args = 0
	stmfd	sp!, {r3, r4, r5, r6, r7, lr}
	mov	r4, r0
	ldr	r0, [r0, #24]
	ldr	r3, .L1066
	cmp	r0, #0
	str	r3, [r4, #0]
	beq	.L1051
.L1063:
	ldr	r2, [r0, #0]
	ldr	r5, [r0, #40]
	ldr	r1, [r2, #4]
	blx	r1
	cmp	r5, #0
	mov	r0, r5
	bne	.L1063
.L1051:
	ldr	r3, [r4, #76]
	add	r5, r4, #44
	mov	r6, #0
	cmp	r3, r5
	str	r6, [r4, #24]
	str	r6, [r4, #28]
	mov	r0, r3
	beq	.L1054
.L1065:
	cmp	r3, #0
	beq	.L1054
	ldr	r2, [r3, #28]
	ldr	r1, [r3, #32]
	str	r1, [r2, #32]
	ldr	lr, [r3, #0]
	ldr	ip, [r3, #32]
	str	r6, [r3, #32]
	str	r2, [ip, #28]
	str	r6, [r3, #28]
	ldr	r7, [lr, #4]
	blx	r7
	ldr	r3, [r4, #76]
	cmp	r3, r5
	mov	r0, r3
	bne	.L1065
.L1054:
	ldr	r0, [r4, #68]
	ldr	r6, .L1066+4
	ldr	r3, .L1066+8
	cmp	r0, r6
	str	r3, [r4, #44]
	beq	.L1056
	cmp	r0, #0
	beq	.L1056
	bl	_ZdaPv
.L1056:
	ldr	r0, [r4, #64]
	cmp	r0, r6
	beq	.L1057
	cmp	r0, #0
	beq	.L1057
	bl	_ZdaPv
.L1057:
	ldr	r0, [r4, #24]
	ldr	r7, .L1066+12
	ldr	lr, .L1066+16
	cmp	r0, #0
	str	lr, [r4, #0]
	str	r7, [r4, #44]
	beq	.L1059
.L1064:
	ldr	ip, [r0, #0]
	ldr	r5, [r0, #40]
	ldr	r2, [ip, #4]
	blx	r2
	cmp	r5, #0
	mov	r0, r5
	bne	.L1064
.L1059:
	ldr	r0, [r4, #32]
	cmp	r0, r6
	beq	.L1061
	cmp	r0, #0
	beq	.L1061
	bl	_ZdaPv
.L1061:
	mov	r0, r4
	str	r7, [r4, #0]
	bl	_ZdlPv
	mov	r0, r4
	ldmfd	sp!, {r3, r4, r5, r6, r7, pc}
.L1067:
	.align	2
.L1066:
	.word	.LANCHOR0+224
	.word	_ZN11TiXmlString8nullrep_E
	.word	_ZTV14TiXmlAttribute+8
	.word	_ZTV9TiXmlBase+8
	.word	.LANCHOR0+8
	.size	_ZN12TiXmlElementD0Ev, .-_ZN12TiXmlElementD0Ev
	.section	.text._ZN12TiXmlElementD1Ev,"ax",%progbits
	.align	2
	.global	_ZN12TiXmlElementD1Ev
	.hidden	_ZN12TiXmlElementD1Ev
	.type	_ZN12TiXmlElementD1Ev, %function
_ZN12TiXmlElementD1Ev:
	@ args = 0, pretend = 0, frame = 0
	@ frame_needed = 0, uses_anonymous_args = 0
	stmfd	sp!, {r3, r4, r5, r6, r7, lr}
	mov	r4, r0
	ldr	r0, [r0, #24]
	ldr	r3, .L1084
	cmp	r0, #0
	str	r3, [r4, #0]
	beq	.L1069
.L1081:
	ldr	r2, [r0, #0]
	ldr	r5, [r0, #40]
	ldr	r1, [r2, #4]
	blx	r1
	cmp	r5, #0
	mov	r0, r5
	bne	.L1081
.L1069:
	ldr	r3, [r4, #76]
	add	r5, r4, #44
	mov	r6, #0
	cmp	r3, r5
	str	r6, [r4, #24]
	str	r6, [r4, #28]
	mov	r0, r3
	beq	.L1072
.L1083:
	cmp	r3, #0
	beq	.L1072
	ldr	r2, [r3, #28]
	ldr	r1, [r3, #32]
	str	r1, [r2, #32]
	ldr	lr, [r3, #0]
	ldr	ip, [r3, #32]
	str	r6, [r3, #32]
	str	r2, [ip, #28]
	str	r6, [r3, #28]
	ldr	r7, [lr, #4]
	blx	r7
	ldr	r3, [r4, #76]
	cmp	r3, r5
	mov	r0, r3
	bne	.L1083
.L1072:
	ldr	r0, [r4, #68]
	ldr	r6, .L1084+4
	ldr	r3, .L1084+8
	cmp	r0, r6
	str	r3, [r4, #44]
	beq	.L1074
	cmp	r0, #0
	beq	.L1074
	bl	_ZdaPv
.L1074:
	ldr	r0, [r4, #64]
	cmp	r0, r6
	beq	.L1075
	cmp	r0, #0
	beq	.L1075
	bl	_ZdaPv
.L1075:
	ldr	r0, [r4, #24]
	ldr	r7, .L1084+12
	ldr	r2, .L1084+16
	cmp	r0, #0
	str	r2, [r4, #0]
	str	r7, [r4, #44]
	beq	.L1077
.L1082:
	ldr	lr, [r0, #0]
	ldr	r5, [r0, #40]
	ldr	ip, [lr, #4]
	blx	ip
	cmp	r5, #0
	mov	r0, r5
	bne	.L1082
.L1077:
	ldr	r0, [r4, #32]
	cmp	r0, r6
	beq	.L1079
	cmp	r0, #0
	beq	.L1079
	bl	_ZdaPv
.L1079:
	str	r7, [r4, #0]
	mov	r0, r4
	ldmfd	sp!, {r3, r4, r5, r6, r7, pc}
.L1085:
	.align	2
.L1084:
	.word	.LANCHOR0+224
	.word	_ZN11TiXmlString8nullrep_E
	.word	_ZTV14TiXmlAttribute+8
	.word	_ZTV9TiXmlBase+8
	.word	.LANCHOR0+8
	.size	_ZN12TiXmlElementD1Ev, .-_ZN12TiXmlElementD1Ev
	.section	.text._ZN12TiXmlElementD2Ev,"ax",%progbits
	.align	2
	.global	_ZN12TiXmlElementD2Ev
	.hidden	_ZN12TiXmlElementD2Ev
	.type	_ZN12TiXmlElementD2Ev, %function
_ZN12TiXmlElementD2Ev:
	@ args = 0, pretend = 0, frame = 0
	@ frame_needed = 0, uses_anonymous_args = 0
	stmfd	sp!, {r3, r4, r5, r6, r7, lr}
	mov	r4, r0
	ldr	r0, [r0, #24]
	ldr	r3, .L1102
	cmp	r0, #0
	str	r3, [r4, #0]
	beq	.L1087
.L1099:
	ldr	r2, [r0, #0]
	ldr	r5, [r0, #40]
	ldr	r1, [r2, #4]
	blx	r1
	cmp	r5, #0
	mov	r0, r5
	bne	.L1099
.L1087:
	ldr	r3, [r4, #76]
	add	r5, r4, #44
	mov	r6, #0
	cmp	r3, r5
	str	r6, [r4, #24]
	str	r6, [r4, #28]
	mov	r0, r3
	beq	.L1090
.L1101:
	cmp	r3, #0
	beq	.L1090
	ldr	r2, [r3, #28]
	ldr	r1, [r3, #32]
	str	r1, [r2, #32]
	ldr	lr, [r3, #0]
	ldr	ip, [r3, #32]
	str	r6, [r3, #32]
	str	r2, [ip, #28]
	str	r6, [r3, #28]
	ldr	r7, [lr, #4]
	blx	r7
	ldr	r3, [r4, #76]
	cmp	r3, r5
	mov	r0, r3
	bne	.L1101
.L1090:
	ldr	r0, [r4, #68]
	ldr	r6, .L1102+4
	ldr	r3, .L1102+8
	cmp	r0, r6
	str	r3, [r4, #44]
	beq	.L1092
	cmp	r0, #0
	beq	.L1092
	bl	_ZdaPv
.L1092:
	ldr	r0, [r4, #64]
	cmp	r0, r6
	beq	.L1093
	cmp	r0, #0
	beq	.L1093
	bl	_ZdaPv
.L1093:
	ldr	r0, [r4, #24]
	ldr	r7, .L1102+12
	ldr	r2, .L1102+16
	cmp	r0, #0
	str	r2, [r4, #0]
	str	r7, [r4, #44]
	beq	.L1095
.L1100:
	ldr	lr, [r0, #0]
	ldr	r5, [r0, #40]
	ldr	ip, [lr, #4]
	blx	ip
	cmp	r5, #0
	mov	r0, r5
	bne	.L1100
.L1095:
	ldr	r0, [r4, #32]
	cmp	r0, r6
	beq	.L1097
	cmp	r0, #0
	beq	.L1097
	bl	_ZdaPv
.L1097:
	str	r7, [r4, #0]
	mov	r0, r4
	ldmfd	sp!, {r3, r4, r5, r6, r7, pc}
.L1103:
	.align	2
.L1102:
	.word	.LANCHOR0+224
	.word	_ZN11TiXmlString8nullrep_E
	.word	_ZTV14TiXmlAttribute+8
	.word	_ZTV9TiXmlBase+8
	.word	.LANCHOR0+8
	.size	_ZN12TiXmlElementD2Ev, .-_ZN12TiXmlElementD2Ev
	.section	.text._ZNK16TiXmlDeclaration5CloneEv,"ax",%progbits
	.align	2
	.global	_ZNK16TiXmlDeclaration5CloneEv
	.hidden	_ZNK16TiXmlDeclaration5CloneEv
	.type	_ZNK16TiXmlDeclaration5CloneEv, %function
_ZNK16TiXmlDeclaration5CloneEv:
	@ args = 0, pretend = 0, frame = 0
	@ frame_needed = 0, uses_anonymous_args = 0
	stmfd	sp!, {r4, r5, r6, lr}
	mov	r5, r0
	mov	r0, #56
	bl	_Znwj
	ldr	ip, .L1112
	mov	r3, #0
	mvn	r1, #0
	mov	r2, #5
	str	ip, [r0, #32]
	ldr	r6, [r5, #32]
	mov	r4, r0
	str	r3, [r0, #40]
	add	r6, r6, #8
	str	r1, [r0, #4]
	str	r2, [r0, #20]
	ldr	r0, .L1112+4
	str	ip, [r4, #52]
	str	ip, [r4, #44]
	str	ip, [r4, #48]
	str	r3, [r4, #12]
	str	r3, [r4, #16]
	str	r3, [r4, #24]
	str	r3, [r4, #28]
	str	r3, [r4, #36]
	str	r0, [r4, #0]
	str	r1, [r4, #8]
	mov	r0, r6
	bl	strlen
	mov	r1, r6
	mov	r2, r0
	add	r0, r4, #32
	bl	_ZN11TiXmlString6assignEPKcj
	ldr	r0, [r5, #44]
	ldr	r2, [r5, #12]
	str	r2, [r4, #12]
	add	r1, r0, #8
	ldr	r2, [r0, #0]
	add	r0, r4, #44
	bl	_ZN11TiXmlString6assignEPKcj
	ldr	r3, [r5, #48]
	add	r0, r4, #48
	ldr	r2, [r3, #0]
	add	r1, r3, #8
	bl	_ZN11TiXmlString6assignEPKcj
	ldr	r1, [r5, #52]
	add	r0, r4, #52
	ldr	r2, [r1, #0]
	add	r1, r1, #8
	bl	_ZN11TiXmlString6assignEPKcj
	mov	r0, r4
	ldmfd	sp!, {r4, r5, r6, pc}
.L1113:
	.align	2
.L1112:
	.word	_ZN11TiXmlString8nullrep_E
	.word	.LANCHOR0+136
	.size	_ZNK16TiXmlDeclaration5CloneEv, .-_ZNK16TiXmlDeclaration5CloneEv
	.section	.text._ZNK13TiXmlDocument8SaveFileEv,"ax",%progbits
	.align	2
	.global	_ZNK13TiXmlDocument8SaveFileEv
	.hidden	_ZNK13TiXmlDocument8SaveFileEv
	.type	_ZNK13TiXmlDocument8SaveFileEv, %function
_ZNK13TiXmlDocument8SaveFileEv:
	@ args = 0, pretend = 0, frame = 0
	@ frame_needed = 0, uses_anonymous_args = 0
	stmfd	sp!, {r3, r4, r5, lr}
	mov	r5, r0
	ldr	r0, [r0, #32]
	ldr	r1, .L1120
	add	r0, r0, #8
	bl	fopen
	subs	r4, r0, #0
	moveq	r5, r4
	beq	.L1116
	ldrb	r3, [r5, #68]	@ zero_extendqisi2
	cmp	r3, #0
	bne	.L1119
.L1117:
	ldr	r1, [r5, #0]
	mov	r0, r5
	mov	r2, #0
	ldr	r5, [r1, #8]
	mov	r1, r4
	blx	r5
	mov	r0, r4
	bl	ferror
	rsbs	r5, r0, #1
	movcc	r5, #0
	mov	r0, r4
	bl	fclose
.L1116:
	mov	r0, r5
	ldmfd	sp!, {r3, r4, r5, pc}
.L1119:
	mov	r1, r4
	mov	r0, #239
	bl	fputc
	mov	r1, r4
	mov	r0, #187
	bl	fputc
	mov	r1, r4
	mov	r0, #191
	bl	fputc
	b	.L1117
.L1121:
	.align	2
.L1120:
	.word	.LC12
	.size	_ZNK13TiXmlDocument8SaveFileEv, .-_ZNK13TiXmlDocument8SaveFileEv
	.section	.text._ZN12TiXmlElement12SetAttributeEPKcS1_,"ax",%progbits
	.align	2
	.global	_ZN12TiXmlElement12SetAttributeEPKcS1_
	.hidden	_ZN12TiXmlElement12SetAttributeEPKcS1_
	.type	_ZN12TiXmlElement12SetAttributeEPKcS1_, %function
_ZN12TiXmlElement12SetAttributeEPKcS1_:
	@ args = 0, pretend = 0, frame = 0
	@ frame_needed = 0, uses_anonymous_args = 0
	stmfd	sp!, {r4, r5, r6, r7, r8, r9, sl, lr}
	ldr	r4, [r0, #76]
	add	r5, r0, #44
	cmp	r5, r4
	mov	r7, r0
	mov	r6, r1
	mov	r8, r2
	bne	.L1131
	b	.L1123
.L1133:
	ldr	r4, [r4, #32]
	cmp	r5, r4
	beq	.L1123
.L1131:
	ldr	r0, [r4, #20]
	mov	r1, r6
	add	r0, r0, #8
	bl	strcmp
	cmp	r0, #0
	bne	.L1133
	mov	r0, r8
	bl	strlen
	mov	r1, r8
	mov	r2, r0
	add	r0, r4, #24
	ldmfd	sp!, {r4, r5, r6, r7, r8, r9, sl, lr}
	b	_ZN11TiXmlString6assignEPKcj
.L1123:
	mov	r0, #36
	bl	_Znwj
	mvn	r2, #0
	ldr	ip, .L1134
	mov	sl, #0
	mov	r4, r0
	str	r2, [r0, #4]
	ldr	r0, .L1134+4
	str	ip, [r4, #24]
	str	ip, [r4, #20]
	str	r0, [r4, #0]
	str	r2, [r4, #8]
	str	sl, [r4, #12]
	mov	r0, r6
	bl	strlen
	mov	r1, r6
	mov	r2, r0
	add	r0, r4, #20
	bl	_ZN11TiXmlString6assignEPKcj
	mov	r0, r8
	bl	strlen
	mov	r1, r8
	mov	r2, r0
	add	r0, r4, #24
	bl	_ZN11TiXmlString6assignEPKcj
	str	sl, [r4, #28]
	ldr	r1, [r7, #72]
	str	r1, [r4, #28]
	ldr	r3, [r7, #72]
	str	r5, [r4, #32]
	str	r4, [r7, #72]
	str	r4, [r3, #32]
	str	sl, [r4, #16]
	ldmfd	sp!, {r4, r5, r6, r7, r8, r9, sl, pc}
.L1135:
	.align	2
.L1134:
	.word	_ZN11TiXmlString8nullrep_E
	.word	_ZTV14TiXmlAttribute+8
	.size	_ZN12TiXmlElement12SetAttributeEPKcS1_, .-_ZN12TiXmlElement12SetAttributeEPKcS1_
	.section	.text._ZN12TiXmlElement18SetDoubleAttributeEPKcd,"ax",%progbits
	.align	2
	.global	_ZN12TiXmlElement18SetDoubleAttributeEPKcd
	.hidden	_ZN12TiXmlElement18SetDoubleAttributeEPKcd
	.type	_ZN12TiXmlElement18SetDoubleAttributeEPKcd, %function
_ZN12TiXmlElement18SetDoubleAttributeEPKcd:
	@ args = 0, pretend = 0, frame = 256
	@ frame_needed = 0, uses_anonymous_args = 0
	stmfd	sp!, {r4, r5, r6, lr}
	sub	sp, sp, #256
	mov	r6, r0
	mov	r5, r1
	mov	r0, sp
	ldr	r1, .L1138
	bl	sprintf
	mov	r0, r6
	mov	r1, r5
	mov	r2, sp
	mov	r4, sp
	bl	_ZN12TiXmlElement12SetAttributeEPKcS1_
	add	sp, sp, #256
	ldmfd	sp!, {r4, r5, r6, pc}
.L1139:
	.align	2
.L1138:
	.word	.LC13
	.size	_ZN12TiXmlElement18SetDoubleAttributeEPKcd, .-_ZN12TiXmlElement18SetDoubleAttributeEPKcd
	.section	.text._ZN12TiXmlElement12SetAttributeEPKci,"ax",%progbits
	.align	2
	.global	_ZN12TiXmlElement12SetAttributeEPKci
	.hidden	_ZN12TiXmlElement12SetAttributeEPKci
	.type	_ZN12TiXmlElement12SetAttributeEPKci, %function
_ZN12TiXmlElement12SetAttributeEPKci:
	@ args = 0, pretend = 0, frame = 64
	@ frame_needed = 0, uses_anonymous_args = 0
	stmfd	sp!, {r4, r5, r6, lr}
	sub	sp, sp, #64
	mov	r6, r0
	mov	r5, r1
	mov	r0, sp
	ldr	r1, .L1142
	bl	sprintf
	mov	r0, r6
	mov	r1, r5
	mov	r2, sp
	mov	r4, sp
	bl	_ZN12TiXmlElement12SetAttributeEPKcS1_
	add	sp, sp, #64
	ldmfd	sp!, {r4, r5, r6, pc}
.L1143:
	.align	2
.L1142:
	.word	.LC8
	.size	_ZN12TiXmlElement12SetAttributeEPKci, .-_ZN12TiXmlElement12SetAttributeEPKci
	.section	.text._ZN12TiXmlPrinter5VisitERK12TiXmlUnknown,"ax",%progbits
	.align	2
	.global	_ZN12TiXmlPrinter5VisitERK12TiXmlUnknown
	.hidden	_ZN12TiXmlPrinter5VisitERK12TiXmlUnknown
	.type	_ZN12TiXmlPrinter5VisitERK12TiXmlUnknown, %function
_ZN12TiXmlPrinter5VisitERK12TiXmlUnknown:
	@ args = 0, pretend = 0, frame = 0
	@ frame_needed = 0, uses_anonymous_args = 0
	stmfd	sp!, {r3, r4, r5, r6, r7, lr}
	ldr	r3, [r0, #4]
	mov	r5, r0
	cmp	r3, #0
	mov	r7, r1
	add	r6, r0, #12
	movgt	r4, #0
	ble	.L1145
.L1146:
	ldr	r1, [r5, #16]
	mov	r0, r6
	ldr	r2, [r1, #0]
	add	r1, r1, #8
	bl	_ZN11TiXmlString6appendEPKcj
	ldr	r0, [r5, #4]
	add	r4, r4, #1
	cmp	r4, r0
	blt	.L1146
.L1145:
	ldr	r1, .L1151
	mov	r2, #1
	mov	r0, r6
	bl	_ZN11TiXmlString6appendEPKcj
	ldr	r4, [r7, #32]
	add	r4, r4, #8
	mov	r0, r4
	bl	strlen
	mov	r1, r4
	mov	r2, r0
	mov	r0, r6
	bl	_ZN11TiXmlString6appendEPKcj
	mov	r0, r6
	ldr	r1, .L1151+4
	mov	r2, #1
	bl	_ZN11TiXmlString6appendEPKcj
	ldr	ip, [r5, #20]
	mov	r0, r6
	ldr	r2, [ip, #0]
	add	r1, ip, #8
	bl	_ZN11TiXmlString6appendEPKcj
	mov	r0, #1
	ldmfd	sp!, {r3, r4, r5, r6, r7, pc}
.L1152:
	.align	2
.L1151:
	.word	.LC14
	.word	.LC15
	.size	_ZN12TiXmlPrinter5VisitERK12TiXmlUnknown, .-_ZN12TiXmlPrinter5VisitERK12TiXmlUnknown
	.section	.text._ZN12TiXmlPrinter5VisitERK12TiXmlComment,"ax",%progbits
	.align	2
	.global	_ZN12TiXmlPrinter5VisitERK12TiXmlComment
	.hidden	_ZN12TiXmlPrinter5VisitERK12TiXmlComment
	.type	_ZN12TiXmlPrinter5VisitERK12TiXmlComment, %function
_ZN12TiXmlPrinter5VisitERK12TiXmlComment:
	@ args = 0, pretend = 0, frame = 0
	@ frame_needed = 0, uses_anonymous_args = 0
	stmfd	sp!, {r3, r4, r5, r6, r7, lr}
	ldr	r3, [r0, #4]
	mov	r5, r0
	cmp	r3, #0
	mov	r7, r1
	add	r6, r0, #12
	movgt	r4, #0
	ble	.L1154
.L1155:
	ldr	r1, [r5, #16]
	mov	r0, r6
	ldr	r2, [r1, #0]
	add	r1, r1, #8
	bl	_ZN11TiXmlString6appendEPKcj
	ldr	r0, [r5, #4]
	add	r4, r4, #1
	cmp	r4, r0
	blt	.L1155
.L1154:
	ldr	r1, .L1160
	mov	r2, #4
	mov	r0, r6
	bl	_ZN11TiXmlString6appendEPKcj
	ldr	r4, [r7, #32]
	add	r4, r4, #8
	mov	r0, r4
	bl	strlen
	mov	r1, r4
	mov	r2, r0
	mov	r0, r6
	bl	_ZN11TiXmlString6appendEPKcj
	mov	r0, r6
	ldr	r1, .L1160+4
	mov	r2, #3
	bl	_ZN11TiXmlString6appendEPKcj
	ldr	ip, [r5, #20]
	mov	r0, r6
	ldr	r2, [ip, #0]
	add	r1, ip, #8
	bl	_ZN11TiXmlString6appendEPKcj
	mov	r0, #1
	ldmfd	sp!, {r3, r4, r5, r6, r7, pc}
.L1161:
	.align	2
.L1160:
	.word	.LC16
	.word	.LC17
	.size	_ZN12TiXmlPrinter5VisitERK12TiXmlComment, .-_ZN12TiXmlPrinter5VisitERK12TiXmlComment
	.section	.text._ZN12TiXmlPrinter9VisitExitERK12TiXmlElement,"ax",%progbits
	.align	2
	.global	_ZN12TiXmlPrinter9VisitExitERK12TiXmlElement
	.hidden	_ZN12TiXmlPrinter9VisitExitERK12TiXmlElement
	.type	_ZN12TiXmlPrinter9VisitExitERK12TiXmlElement, %function
_ZN12TiXmlPrinter9VisitExitERK12TiXmlElement:
	@ args = 0, pretend = 0, frame = 0
	@ frame_needed = 0, uses_anonymous_args = 0
	stmfd	sp!, {r3, r4, r5, r6, r7, lr}
	ldr	r3, [r0, #4]
	mov	r4, r0
	sub	r3, r3, #1
	str	r3, [r0, #4]
	ldr	r2, [r1, #24]
	mov	r7, r1
	cmp	r2, #0
	beq	.L1163
	ldrb	r5, [r0, #8]	@ zero_extendqisi2
	cmp	r5, #0
	movne	r3, #0
	strneb	r3, [r0, #8]
	beq	.L1171
.L1170:
	add	r6, r4, #12
.L1166:
	ldr	r1, .L1172
	mov	r2, #2
	mov	r0, r6
	bl	_ZN11TiXmlString6appendEPKcj
	ldr	r5, [r7, #32]
	add	r5, r5, #8
	mov	r0, r5
	bl	strlen
	mov	r1, r5
	mov	r2, r0
	mov	r0, r6
	bl	_ZN11TiXmlString6appendEPKcj
	ldr	r1, .L1172+4
	mov	r2, #1
	mov	r0, r6
	bl	_ZN11TiXmlString6appendEPKcj
	ldr	ip, [r4, #20]
	mov	r0, r6
	ldr	r2, [ip, #0]
	add	r1, ip, #8
	bl	_ZN11TiXmlString6appendEPKcj
.L1163:
	mov	r0, #1
	ldmfd	sp!, {r3, r4, r5, r6, r7, pc}
.L1171:
	cmp	r3, #0
	addgt	r6, r0, #12
	ble	.L1170
.L1167:
	ldr	r1, [r4, #16]
	mov	r0, r6
	ldr	r2, [r1, #0]
	add	r1, r1, #8
	bl	_ZN11TiXmlString6appendEPKcj
	ldr	r0, [r4, #4]
	add	r5, r5, #1
	cmp	r5, r0
	blt	.L1167
	b	.L1166
.L1173:
	.align	2
.L1172:
	.word	.LC18
	.word	.LC15
	.size	_ZN12TiXmlPrinter9VisitExitERK12TiXmlElement, .-_ZN12TiXmlPrinter9VisitExitERK12TiXmlElement
	.section	.text._ZNK16TiXmlDeclaration5PrintEP8__XXFILEiP11TiXmlString,"ax",%progbits
	.align	2
	.global	_ZNK16TiXmlDeclaration5PrintEP8__XXFILEiP11TiXmlString
	.hidden	_ZNK16TiXmlDeclaration5PrintEP8__XXFILEiP11TiXmlString
	.type	_ZNK16TiXmlDeclaration5PrintEP8__XXFILEiP11TiXmlString, %function
_ZNK16TiXmlDeclaration5PrintEP8__XXFILEiP11TiXmlString:
	@ args = 0, pretend = 0, frame = 0
	@ frame_needed = 0, uses_anonymous_args = 0
	stmfd	sp!, {r4, r5, r6, lr}
	subs	r5, r1, #0
	mov	r6, r0
	mov	r4, r3
	beq	.L1175
	ldr	r0, .L1186
	mov	r1, #1
	mov	r2, #6
	mov	r3, r5
	bl	fwrite
.L1175:
	cmp	r4, #0
	beq	.L1176
	mov	r0, r4
	ldr	r1, .L1186
	mov	r2, #6
	bl	_ZN11TiXmlString6appendEPKcj
.L1176:
	ldr	r2, [r6, #44]
	ldr	r3, [r2, #0]
	cmp	r3, #0
	beq	.L1177
	cmp	r5, #0
	beq	.L1178
	add	r2, r2, #8
	mov	r0, r5
	ldr	r1, .L1186+4
	bl	fprintf
.L1178:
	cmp	r4, #0
	beq	.L1177
	ldr	r1, .L1186+8
	mov	r2, #9
	mov	r0, r4
	bl	_ZN11TiXmlString6appendEPKcj
	ldr	r1, [r6, #44]
	mov	r0, r4
	ldr	r2, [r1, #0]
	add	r1, r1, #8
	bl	_ZN11TiXmlString6appendEPKcj
	mov	r0, r4
	ldr	r1, .L1186+12
	mov	r2, #2
	bl	_ZN11TiXmlString6appendEPKcj
.L1177:
	ldr	r2, [r6, #48]
	ldr	r0, [r2, #0]
	cmp	r0, #0
	beq	.L1179
	cmp	r5, #0
	beq	.L1180
	add	r2, r2, #8
	mov	r0, r5
	ldr	r1, .L1186+16
	bl	fprintf
.L1180:
	cmp	r4, #0
	beq	.L1179
	ldr	r1, .L1186+20
	mov	r2, #10
	mov	r0, r4
	bl	_ZN11TiXmlString6appendEPKcj
	ldr	ip, [r6, #48]
	mov	r0, r4
	ldr	r2, [ip, #0]
	add	r1, ip, #8
	bl	_ZN11TiXmlString6appendEPKcj
	mov	r0, r4
	ldr	r1, .L1186+12
	mov	r2, #2
	bl	_ZN11TiXmlString6appendEPKcj
.L1179:
	ldr	r2, [r6, #52]
	ldr	r3, [r2, #0]
	cmp	r3, #0
	beq	.L1181
	cmp	r5, #0
	beq	.L1182
	add	r2, r2, #8
	mov	r0, r5
	ldr	r1, .L1186+24
	bl	fprintf
.L1182:
	cmp	r4, #0
	beq	.L1181
	ldr	r1, .L1186+28
	mov	r2, #12
	mov	r0, r4
	bl	_ZN11TiXmlString6appendEPKcj
	ldr	r1, [r6, #52]
	mov	r0, r4
	ldr	r2, [r1, #0]
	add	r1, r1, #8
	bl	_ZN11TiXmlString6appendEPKcj
	mov	r0, r4
	ldr	r1, .L1186+12
	mov	r2, #2
	bl	_ZN11TiXmlString6appendEPKcj
.L1181:
	cmp	r5, #0
	beq	.L1183
	mov	r3, r5
	ldr	r0, .L1186+32
	mov	r1, #1
	mov	r2, #2
	bl	fwrite
.L1183:
	cmp	r4, #0
	ldmeqfd	sp!, {r4, r5, r6, pc}
	mov	r0, r4
	mov	r2, #2
	ldr	r1, .L1186+32
	ldmfd	sp!, {r4, r5, r6, lr}
	b	_ZN11TiXmlString6appendEPKcj
.L1187:
	.align	2
.L1186:
	.word	.LC19
	.word	.LC20
	.word	.LC21
	.word	.LC22
	.word	.LC23
	.word	.LC24
	.word	.LC25
	.word	.LC26
	.word	.LC27
	.size	_ZNK16TiXmlDeclaration5PrintEP8__XXFILEiP11TiXmlString, .-_ZNK16TiXmlDeclaration5PrintEP8__XXFILEiP11TiXmlString
	.section	.text._ZN12TiXmlPrinter5VisitERK9TiXmlText,"ax",%progbits
	.align	2
	.global	_ZN12TiXmlPrinter5VisitERK9TiXmlText
	.hidden	_ZN12TiXmlPrinter5VisitERK9TiXmlText
	.type	_ZN12TiXmlPrinter5VisitERK9TiXmlText, %function
_ZN12TiXmlPrinter5VisitERK9TiXmlText:
	@ args = 0, pretend = 0, frame = 8
	@ frame_needed = 0, uses_anonymous_args = 0
	stmfd	sp!, {r4, r5, r6, r7, lr}
	ldrb	r3, [r1, #44]	@ zero_extendqisi2
	sub	sp, sp, #12
	cmp	r3, #0
	mov	r7, r1
	mov	r4, r0
	bne	.L1207
	ldrb	r5, [r0, #8]	@ zero_extendqisi2
	cmp	r5, #0
	beq	.L1208
	add	r1, sp, #8
	ldr	r5, .L1209
	str	r5, [r1, #-4]!
	add	r0, r7, #32
	bl	_ZN9TiXmlBase12EncodeStringERK11TiXmlStringPS0_
	ldr	r1, [sp, #4]
	add	r0, r4, #12
.L1206:
	ldr	r2, [r1, #0]
	add	r1, r1, #8
	bl	_ZN11TiXmlString6appendEPKcj
	ldr	r0, [sp, #4]
	cmp	r0, r5
	beq	.L1192
	cmp	r0, #0
	beq	.L1192
	bl	_ZdaPv
.L1192:
	mov	r0, #1
	add	sp, sp, #12
	ldmfd	sp!, {r4, r5, r6, r7, pc}
.L1208:
	ldr	r2, [r0, #4]
	add	r6, r0, #12
	cmp	r2, #0
	ble	.L1195
.L1196:
	ldr	lr, [r4, #16]
	mov	r0, r6
	ldr	r2, [lr, #0]
	add	r1, lr, #8
	bl	_ZN11TiXmlString6appendEPKcj
	ldr	r0, [r4, #4]
	add	r5, r5, #1
	cmp	r5, r0
	blt	.L1196
.L1195:
	add	r1, sp, #8
	ldr	r5, .L1209
	str	r5, [r1, #-4]!
	add	r0, r7, #32
	bl	_ZN9TiXmlBase12EncodeStringERK11TiXmlStringPS0_
	ldr	r1, [sp, #4]
	mov	r0, r6
	ldr	r2, [r1, #0]
	add	r1, r1, #8
	bl	_ZN11TiXmlString6appendEPKcj
	ldr	r1, [r4, #20]
	mov	r0, r6
	b	.L1206
.L1207:
	ldr	r0, [r0, #4]
	add	r6, r4, #12
	cmp	r0, #0
	movgt	r5, #0
	ble	.L1190
.L1191:
	ldr	ip, [r4, #16]
	mov	r0, r6
	add	r1, ip, #8
	ldr	r2, [ip, #0]
	bl	_ZN11TiXmlString6appendEPKcj
	ldr	r1, [r4, #4]
	add	r5, r5, #1
	cmp	r5, r1
	blt	.L1191
.L1190:
	ldr	r1, .L1209+4
	mov	r2, #9
	mov	r0, r6
	bl	_ZN11TiXmlString6appendEPKcj
	ldr	r5, [r7, #32]
	add	r5, r5, #8
	mov	r0, r5
	bl	strlen
	mov	r1, r5
	mov	r2, r0
	mov	r0, r6
	bl	_ZN11TiXmlString6appendEPKcj
	mov	r0, r6
	ldr	r1, .L1209+8
	mov	r2, #3
	bl	_ZN11TiXmlString6appendEPKcj
	ldr	r3, [r4, #20]
	mov	r0, r6
	ldr	r2, [r3, #0]
	add	r1, r3, #8
	bl	_ZN11TiXmlString6appendEPKcj
	b	.L1192
.L1210:
	.align	2
.L1209:
	.word	_ZN11TiXmlString8nullrep_E
	.word	.LC28
	.word	.LC29
	.size	_ZN12TiXmlPrinter5VisitERK9TiXmlText, .-_ZN12TiXmlPrinter5VisitERK9TiXmlText
	.section	.text._ZNK14TiXmlAttribute5PrintEP8__XXFILEiP11TiXmlString,"ax",%progbits
	.align	2
	.global	_ZNK14TiXmlAttribute5PrintEP8__XXFILEiP11TiXmlString
	.hidden	_ZNK14TiXmlAttribute5PrintEP8__XXFILEiP11TiXmlString
	.type	_ZNK14TiXmlAttribute5PrintEP8__XXFILEiP11TiXmlString, %function
_ZNK14TiXmlAttribute5PrintEP8__XXFILEiP11TiXmlString:
	@ args = 0, pretend = 0, frame = 8
	@ frame_needed = 0, uses_anonymous_args = 0
	stmfd	sp!, {r4, r5, r6, r7, lr}
	sub	sp, sp, #12
	add	r2, sp, #8
	ldr	r5, .L1228
	str	r5, [r2, #-4]!
	mov	r6, r0
	mov	r7, r1
	add	r0, r0, #20
	mov	r1, r2
	mov	r4, r3
	str	r5, [sp, #0]
	bl	_ZN9TiXmlBase12EncodeStringERK11TiXmlStringPS0_
	add	r0, r6, #24
	mov	r1, sp
	bl	_ZN9TiXmlBase12EncodeStringERK11TiXmlStringPS0_
	ldr	r2, [r6, #24]
	ldr	r3, [r2, #0]
	cmp	r3, #0
	bne	.L1227
.L1213:
	cmp	r7, #0
	beq	.L1219
	ldmia	sp, {ip, lr}	@ phole ldm
	mov	r0, r7
	add	r2, lr, #8
	add	r3, ip, #8
	ldr	r1, .L1228+4
	bl	fprintf
.L1219:
	cmp	r4, #0
	beq	.L1220
	ldr	r1, [sp, #4]
	mov	r0, r4
	ldr	r2, [r1, #0]
	add	r1, r1, #8
	bl	_ZN11TiXmlString6appendEPKcj
	mov	r0, r4
	ldr	r1, .L1228+8
	mov	r2, #2
	bl	_ZN11TiXmlString6appendEPKcj
	ldr	r3, [sp, #0]
	mov	r0, r4
	ldr	r2, [r3, #0]
	add	r1, r3, #8
	bl	_ZN11TiXmlString6appendEPKcj
	mov	r0, r4
	ldr	r1, .L1228+12
	mov	r2, #1
	bl	_ZN11TiXmlString6appendEPKcj
	b	.L1220
.L1227:
	ldrb	r3, [r2, #8]	@ zero_extendqisi2
	cmp	r3, #0
	beq	.L1213
	cmp	r3, #34
	add	r1, r2, #8
	moveq	r2, #0
	beq	.L1215
	mov	r2, r1
.L1216:
	ldrb	r3, [r2, #1]!	@ zero_extendqisi2
	cmp	r3, #0
	beq	.L1213
	cmp	r3, #34
	bne	.L1216
	rsb	r2, r1, r2
.L1215:
	ldr	r1, .L1228+16
	ldr	r0, [r1, #0]
	cmp	r0, r2
	beq	.L1213
	cmp	r7, #0
	beq	.L1221
	ldr	r2, [sp, #4]
	ldr	ip, [sp, #0]
	mov	r0, r7
	add	r2, r2, #8
	add	r3, ip, #8
	ldr	r1, .L1228+20
	bl	fprintf
.L1221:
	cmp	r4, #0
	beq	.L1220
	ldr	lr, [sp, #4]
	mov	r0, r4
	ldr	r2, [lr, #0]
	add	r1, lr, #8
	bl	_ZN11TiXmlString6appendEPKcj
	ldr	r1, .L1228+24
	mov	r2, #2
	mov	r0, r4
	bl	_ZN11TiXmlString6appendEPKcj
	ldr	r3, [sp, #0]
	mov	r0, r4
	ldr	r2, [r3, #0]
	add	r1, r3, #8
	bl	_ZN11TiXmlString6appendEPKcj
	mov	r0, r4
	ldr	r1, .L1228+28
	mov	r2, #1
	bl	_ZN11TiXmlString6appendEPKcj
.L1220:
	ldr	r0, [sp, #0]
	cmp	r0, r5
	beq	.L1222
	cmp	r0, #0
	beq	.L1222
	bl	_ZdaPv
.L1222:
	ldr	r0, [sp, #4]
	cmp	r0, r5
	beq	.L1224
	cmp	r0, #0
	beq	.L1224
	bl	_ZdaPv
.L1224:
	add	sp, sp, #12
	ldmfd	sp!, {r4, r5, r6, r7, pc}
.L1229:
	.align	2
.L1228:
	.word	_ZN11TiXmlString8nullrep_E
	.word	.LC30
	.word	.LC31
	.word	.LC32
	.word	_ZN11TiXmlString4nposE
	.word	.LC33
	.word	.LC34
	.word	.LC35
	.size	_ZNK14TiXmlAttribute5PrintEP8__XXFILEiP11TiXmlString, .-_ZNK14TiXmlAttribute5PrintEP8__XXFILEiP11TiXmlString
	.section	.text._ZN12TiXmlPrinter10VisitEnterERK12TiXmlElementPK14TiXmlAttribute,"ax",%progbits
	.align	2
	.global	_ZN12TiXmlPrinter10VisitEnterERK12TiXmlElementPK14TiXmlAttribute
	.hidden	_ZN12TiXmlPrinter10VisitEnterERK12TiXmlElementPK14TiXmlAttribute
	.type	_ZN12TiXmlPrinter10VisitEnterERK12TiXmlElementPK14TiXmlAttribute, %function
_ZN12TiXmlPrinter10VisitEnterERK12TiXmlElementPK14TiXmlAttribute:
	@ args = 0, pretend = 0, frame = 8
	@ frame_needed = 0, uses_anonymous_args = 0
	stmfd	sp!, {r4, r5, r6, r7, r8, r9, sl, fp, lr}
	ldr	r3, [r0, #4]
	sub	sp, sp, #12
	cmp	r3, #0
	mov	r7, r0
	mov	r9, r1
	mov	r4, r2
	add	r5, r0, #12
	movgt	r6, #0
	ble	.L1231
.L1232:
	ldr	r1, [r7, #16]
	mov	r0, r5
	ldr	r2, [r1, #0]
	add	r1, r1, #8
	bl	_ZN11TiXmlString6appendEPKcj
	ldr	r0, [r7, #4]
	add	r6, r6, #1
	cmp	r6, r0
	blt	.L1232
.L1231:
	ldr	r1, .L1260
	mov	r2, #1
	mov	r0, r5
	bl	_ZN11TiXmlString6appendEPKcj
	ldr	r6, [r9, #32]
	add	r6, r6, #8
	mov	r0, r6
	bl	strlen
	mov	r1, r6
	mov	r2, r0
	mov	r0, r5
	bl	_ZN11TiXmlString6appendEPKcj
	cmp	r4, #0
	beq	.L1233
	ldr	r2, .L1260+4
	ldr	r6, .L1260+8
	ldr	fp, [r2, #0]
	add	sl, sp, #4
	mov	r8, sp
.L1254:
	mov	r2, #1
	ldr	r1, .L1260+12
	mov	r0, r5
	bl	_ZN11TiXmlString6appendEPKcj
	add	r0, r4, #20
	mov	r1, sl
	str	r6, [sp, #0]
	str	r6, [sp, #4]
	bl	_ZN9TiXmlBase12EncodeStringERK11TiXmlStringPS0_
	add	r0, r4, #24
	mov	r1, sp
	bl	_ZN9TiXmlBase12EncodeStringERK11TiXmlStringPS0_
	ldr	r2, [r4, #24]
	ldr	ip, [r2, #0]
	cmp	ip, #0
	bne	.L1257
.L1235:
	ldr	lr, [sp, #4]
	mov	r0, r5
	ldr	r2, [lr, #0]
	add	r1, lr, #8
	bl	_ZN11TiXmlString6appendEPKcj
	ldr	r1, .L1260+16
	mov	r2, #2
	mov	r0, r5
	bl	_ZN11TiXmlString6appendEPKcj
	ldr	r3, [sp, #0]
	mov	r0, r5
	ldr	r2, [r3, #0]
	add	r1, r3, #8
	bl	_ZN11TiXmlString6appendEPKcj
	mov	r0, r5
	ldr	r1, .L1260+20
	mov	r2, #1
	bl	_ZN11TiXmlString6appendEPKcj
.L1241:
	ldr	r0, [sp, #0]
	cmp	r0, r6
	beq	.L1242
	cmp	r0, #0
	beq	.L1242
	bl	_ZdaPv
.L1242:
	ldr	r0, [sp, #4]
	cmp	r0, r6
	beq	.L1243
	cmp	r0, #0
	beq	.L1243
	bl	_ZdaPv
.L1243:
	ldr	r4, [r4, #32]
	ldr	r2, [r4, #24]
	ldr	r0, [r2, #0]
	cmp	r0, #0
	bne	.L1254
	ldr	lr, [r4, #20]
	ldr	r3, [lr, #0]
	cmp	r3, #0
	bne	.L1254
.L1233:
	ldr	r1, [r9, #24]
	cmp	r1, #0
	beq	.L1258
	ldr	r1, .L1260+24
	mov	r2, #1
	mov	r0, r5
	bl	_ZN11TiXmlString6appendEPKcj
	ldr	r0, [r9, #24]
	ldr	r2, [r0, #0]
	ldr	ip, [r2, #32]
	blx	ip
	cmp	r0, #0
	beq	.L1247
	ldr	r3, [r9, #24]
	ldr	r0, [r9, #28]
	cmp	r0, r3
	beq	.L1259
.L1247:
	ldr	r3, [r7, #20]
	mov	r0, r5
	ldr	r2, [r3, #0]
	add	r1, r3, #8
	bl	_ZN11TiXmlString6appendEPKcj
.L1246:
	ldr	r2, [r7, #4]
	mov	r0, #1
	add	ip, r2, r0
	str	ip, [r7, #4]
	add	sp, sp, #12
	ldmfd	sp!, {r4, r5, r6, r7, r8, r9, sl, fp, pc}
.L1257:
	ldrb	r3, [r2, #8]	@ zero_extendqisi2
	cmp	r3, #0
	beq	.L1235
	cmp	r3, #34
	add	r1, r2, #8
	moveq	r2, #0
	beq	.L1237
	mov	r2, r1
.L1238:
	ldrb	r3, [r2, #1]!	@ zero_extendqisi2
	cmp	r3, #0
	beq	.L1235
	cmp	r3, #34
	bne	.L1238
	rsb	r2, r1, r2
.L1237:
	cmp	r2, fp
	beq	.L1235
	ldr	ip, [sp, #4]
	mov	r0, r5
	ldr	r2, [ip, #0]
	add	r1, ip, #8
	bl	_ZN11TiXmlString6appendEPKcj
	mov	r0, r5
	ldr	r1, .L1260+28
	mov	r2, #2
	bl	_ZN11TiXmlString6appendEPKcj
	ldr	r1, [sp, #0]
	mov	r0, r5
	ldr	r2, [r1, #0]
	add	r1, r1, #8
	bl	_ZN11TiXmlString6appendEPKcj
	mov	r0, r5
	ldr	r1, .L1260+32
	mov	r2, #1
	bl	_ZN11TiXmlString6appendEPKcj
	b	.L1241
.L1258:
	mov	r0, r5
	ldr	r1, .L1260+36
	mov	r2, #3
	bl	_ZN11TiXmlString6appendEPKcj
	b	.L1247
.L1259:
	ldr	lr, [r0, #0]
	ldr	r1, [lr, #32]
	blx	r1
	ldrb	r3, [r0, #44]	@ zero_extendqisi2
	cmp	r3, #0
	bne	.L1247
	add	r0, r3, #1
	strb	r0, [r7, #8]
	b	.L1246
.L1261:
	.align	2
.L1260:
	.word	.LC14
	.word	_ZN11TiXmlString4nposE
	.word	_ZN11TiXmlString8nullrep_E
	.word	.LC36
	.word	.LC31
	.word	.LC32
	.word	.LC15
	.word	.LC34
	.word	.LC35
	.word	.LC4
	.size	_ZN12TiXmlPrinter10VisitEnterERK12TiXmlElementPK14TiXmlAttribute, .-_ZN12TiXmlPrinter10VisitEnterERK12TiXmlElementPK14TiXmlAttribute
	.section	.text._ZNK13TiXmlDocument6CopyToEPS_,"ax",%progbits
	.align	2
	.global	_ZNK13TiXmlDocument6CopyToEPS_
	.hidden	_ZNK13TiXmlDocument6CopyToEPS_
	.type	_ZNK13TiXmlDocument6CopyToEPS_, %function
_ZNK13TiXmlDocument6CopyToEPS_:
	@ args = 0, pretend = 0, frame = 0
	@ frame_needed = 0, uses_anonymous_args = 0
	stmfd	sp!, {r4, r5, r6, r7, lr}
	ldr	lr, [r0, #32]
	mov	r6, r0
	add	r4, lr, #8
	sub	sp, sp, #12
	mov	r0, r4
	mov	r5, r1
	bl	strlen
	mov	r1, r4
	mov	r2, r0
	add	r0, r5, #32
	bl	_ZN11TiXmlString6assignEPKcj
	ldr	r1, [r6, #52]
	ldr	r0, [r6, #12]
	ldrb	ip, [r6, #44]	@ zero_extendqisi2
	ldr	r4, [r6, #48]
	str	r0, [r5, #12]
	strb	ip, [r5, #44]
	str	r4, [r5, #48]
	add	r0, r5, #52
	ldr	r2, [r1, #0]
	add	r1, r1, #8
	bl	_ZN11TiXmlString6assignEPKcj
	add	r2, r6, #60
	ldr	r4, [r6, #24]
	ldmia	r2, {r0, r1}
	ldr	ip, [r6, #56]
	add	r3, r5, #60
	ldrb	r2, [r6, #68]	@ zero_extendqisi2
	cmp	r4, #0
	stmia	r3, {r0, r1}
	str	ip, [r5, #56]
	strb	r2, [r5, #68]
	beq	.L1275
	mov	r6, #0
	b	.L1276
.L1264:
	ldr	r0, [r5, #28]
	str	r6, [r3, #40]
	cmp	r0, #0
	str	r5, [r3, #16]
	str	r0, [r3, #36]
	strne	r3, [r0, #40]
	streq	r3, [r5, #24]
	str	r3, [r5, #28]
.L1267:
	ldr	r4, [r4, #40]
	cmp	r4, #0
	beq	.L1275
.L1276:
	ldr	r1, [r4, #0]
	mov	r0, r4
	ldr	r3, [r1, #64]
	blx	r3
	ldr	r2, [r0, #20]
	mov	r3, r0
	cmp	r2, #0
	bne	.L1264
	ldr	lr, [r0, #0]
	mov	r7, r5
	ldr	ip, [lr, #4]
	blx	ip
	b	.L1268
.L1265:
	ldr	r7, [r7, #16]
	cmp	r7, #0
	beq	.L1267
.L1268:
	ldr	r3, [r7, #0]
	mov	r0, r7
	ldr	r2, [r3, #16]
	blx	r2
	cmp	r0, #0
	beq	.L1265
	ldr	ip, [r7, #0]
	mov	r0, r7
	ldr	r1, [ip, #16]
	blx	r1
	cmp	r0, #0
	beq	.L1267
	mov	r7, r5
	b	.L1271
.L1269:
	ldr	r7, [r7, #16]
	cmp	r7, #0
	beq	.L1280
.L1271:
	ldr	lr, [r7, #0]
	mov	r0, r7
	ldr	r2, [lr, #16]
	blx	r2
	cmp	r0, #0
	beq	.L1269
	ldr	r1, [r7, #0]
	mov	r0, r7
	ldr	r3, [r1, #16]
	blx	r3
.L1270:
	mov	r1, #16
	mov	r2, r6
	mov	r3, r6
	str	r6, [sp, #0]
	bl	_ZN13TiXmlDocument8SetErrorEiPKcP16TiXmlParsingData13TiXmlEncoding
	ldr	r4, [r4, #40]
	cmp	r4, #0
	bne	.L1276
.L1275:
	add	sp, sp, #12
	ldmfd	sp!, {r4, r5, r6, r7, pc}
.L1280:
	mov	r0, r7
	b	.L1270
	.size	_ZNK13TiXmlDocument6CopyToEPS_, .-_ZNK13TiXmlDocument6CopyToEPS_
	.section	.text._ZNK13TiXmlDocument5CloneEv,"ax",%progbits
	.align	2
	.global	_ZNK13TiXmlDocument5CloneEv
	.hidden	_ZNK13TiXmlDocument5CloneEv
	.type	_ZNK13TiXmlDocument5CloneEv, %function
_ZNK13TiXmlDocument5CloneEv:
	@ args = 0, pretend = 0, frame = 0
	@ frame_needed = 0, uses_anonymous_args = 0
	stmfd	sp!, {r4, r5, r6, lr}
	mov	r6, r0
	mov	r0, #72
	bl	_Znwj
	mov	r5, #0
	mvn	r3, #0
	ldr	r2, .L1289
	mov	r1, #4
	mov	r4, r0
	ldr	r0, .L1289+4
	str	r0, [r4, #0]
	str	r2, [r4, #52]
	str	r3, [r4, #60]
	str	r1, [r4, #56]
	str	r3, [r4, #8]
	str	r3, [r4, #4]
	str	r2, [r4, #32]
	str	r3, [r4, #64]
	mov	r2, r5
	str	r5, [r4, #12]
	str	r5, [r4, #16]
	str	r5, [r4, #20]
	str	r5, [r4, #24]
	str	r5, [r4, #28]
	str	r5, [r4, #36]
	str	r5, [r4, #40]
	strb	r5, [r4, #68]
	strb	r5, [r4, #44]
	str	r5, [r4, #48]
	ldr	r1, .L1289+8
	add	r0, r4, #52
	bl	_ZN11TiXmlString6assignEPKcj
	mov	r0, r6
	str	r5, [r4, #60]
	str	r5, [r4, #64]
	mov	r1, r4
	bl	_ZNK13TiXmlDocument6CopyToEPS_
	mov	r0, r4
	ldmfd	sp!, {r4, r5, r6, pc}
.L1290:
	.align	2
.L1289:
	.word	_ZN11TiXmlString8nullrep_E
	.word	_ZTV13TiXmlDocument+8
	.word	.LC11
	.size	_ZNK13TiXmlDocument5CloneEv, .-_ZNK13TiXmlDocument5CloneEv
	.section	.text._ZN13TiXmlDocumentaSERKS_,"ax",%progbits
	.align	2
	.global	_ZN13TiXmlDocumentaSERKS_
	.hidden	_ZN13TiXmlDocumentaSERKS_
	.type	_ZN13TiXmlDocumentaSERKS_, %function
_ZN13TiXmlDocumentaSERKS_:
	@ args = 0, pretend = 0, frame = 0
	@ frame_needed = 0, uses_anonymous_args = 0
	stmfd	sp!, {r4, r5, r6, lr}
	mov	r4, r0
	ldr	r0, [r0, #24]
	mov	r6, r1
	cmp	r0, #0
	beq	.L1292
.L1295:
	ldr	r1, [r0, #0]
	ldr	r5, [r0, #40]
	ldr	r3, [r1, #4]
	blx	r3
	cmp	r5, #0
	mov	r0, r5
	bne	.L1295
.L1292:
	mov	r0, #0
	str	r0, [r4, #28]
	str	r0, [r4, #24]
	mov	r1, r4
	mov	r0, r6
	ldmfd	sp!, {r4, r5, r6, lr}
	b	_ZNK13TiXmlDocument6CopyToEPS_
	.size	_ZN13TiXmlDocumentaSERKS_, .-_ZN13TiXmlDocumentaSERKS_
	.section	.text._ZN13TiXmlDocumentC1ERKS_,"ax",%progbits
	.align	2
	.global	_ZN13TiXmlDocumentC1ERKS_
	.hidden	_ZN13TiXmlDocumentC1ERKS_
	.type	_ZN13TiXmlDocumentC1ERKS_, %function
_ZN13TiXmlDocumentC1ERKS_:
	@ args = 0, pretend = 0, frame = 0
	@ frame_needed = 0, uses_anonymous_args = 0
	mov	r3, #0
	stmfd	sp!, {r4, lr}
	mvn	r2, #0
	mov	r4, r0
	ldr	ip, .L1305
	str	r3, [r0, #40]
	ldr	r0, .L1305+4
	str	r0, [r4, #0]
	str	ip, [r4, #52]
	mov	r0, r1
	str	r2, [r4, #60]
	str	r2, [r4, #8]
	str	r2, [r4, #4]
	str	r3, [r4, #12]
	str	ip, [r4, #32]
	str	r3, [r4, #16]
	str	r3, [r4, #20]
	str	r3, [r4, #24]
	str	r3, [r4, #28]
	str	r3, [r4, #36]
	str	r2, [r4, #64]
	mov	r1, r4
	bl	_ZNK13TiXmlDocument6CopyToEPS_
	mov	r0, r4
	ldmfd	sp!, {r4, pc}
.L1306:
	.align	2
.L1305:
	.word	_ZN11TiXmlString8nullrep_E
	.word	_ZTV13TiXmlDocument+8
	.size	_ZN13TiXmlDocumentC1ERKS_, .-_ZN13TiXmlDocumentC1ERKS_
	.section	.text._ZN13TiXmlDocumentC2ERKS_,"ax",%progbits
	.align	2
	.global	_ZN13TiXmlDocumentC2ERKS_
	.hidden	_ZN13TiXmlDocumentC2ERKS_
	.type	_ZN13TiXmlDocumentC2ERKS_, %function
_ZN13TiXmlDocumentC2ERKS_:
	@ args = 0, pretend = 0, frame = 0
	@ frame_needed = 0, uses_anonymous_args = 0
	mov	r3, #0
	stmfd	sp!, {r4, lr}
	mvn	r2, #0
	mov	r4, r0
	ldr	ip, .L1316
	str	r3, [r0, #40]
	ldr	r0, .L1316+4
	str	r0, [r4, #0]
	str	ip, [r4, #52]
	mov	r0, r1
	str	r2, [r4, #60]
	str	r2, [r4, #8]
	str	r2, [r4, #4]
	str	r3, [r4, #12]
	str	ip, [r4, #32]
	str	r3, [r4, #16]
	str	r3, [r4, #20]
	str	r3, [r4, #24]
	str	r3, [r4, #28]
	str	r3, [r4, #36]
	str	r2, [r4, #64]
	mov	r1, r4
	bl	_ZNK13TiXmlDocument6CopyToEPS_
	mov	r0, r4
	ldmfd	sp!, {r4, pc}
.L1317:
	.align	2
.L1316:
	.word	_ZN11TiXmlString8nullrep_E
	.word	_ZTV13TiXmlDocument+8
	.size	_ZN13TiXmlDocumentC2ERKS_, .-_ZN13TiXmlDocumentC2ERKS_
	.section	.text._ZNK12TiXmlElement6CopyToEPS_,"ax",%progbits
	.align	2
	.global	_ZNK12TiXmlElement6CopyToEPS_
	.hidden	_ZNK12TiXmlElement6CopyToEPS_
	.type	_ZNK12TiXmlElement6CopyToEPS_, %function
_ZNK12TiXmlElement6CopyToEPS_:
	@ args = 0, pretend = 0, frame = 0
	@ frame_needed = 0, uses_anonymous_args = 0
	stmfd	sp!, {r4, r5, r6, r7, lr}
	ldr	r2, [r0, #32]
	mov	r6, r0
	add	r4, r2, #8
	sub	sp, sp, #12
	mov	r0, r4
	mov	r5, r1
	bl	strlen
	mov	r1, r4
	mov	r2, r0
	add	r0, r5, #32
	bl	_ZN11TiXmlString6assignEPKcj
	ldr	r4, [r6, #76]
	add	r0, r6, #44
	ldr	r3, [r6, #12]
	cmp	r4, r0
	str	r3, [r5, #12]
	beq	.L1319
	cmp	r4, #0
	beq	.L1319
	ldr	r2, [r4, #24]
.L1343:
	ldr	r1, [r4, #20]
.L1341:
	add	r1, r1, #8
	add	r2, r2, #8
	mov	r0, r5
	bl	_ZN12TiXmlElement12SetAttributeEPKcS1_
	ldr	r4, [r4, #32]
	ldr	r2, [r4, #24]
	ldr	r1, [r2, #0]
	cmp	r1, #0
	bne	.L1343
	ldr	r1, [r4, #20]
	ldr	ip, [r1, #0]
	cmp	ip, #0
	bne	.L1341
.L1319:
	ldr	r4, [r6, #24]
	cmp	r4, #0
	beq	.L1333
	mov	r6, #0
	b	.L1336
.L1322:
	ldr	r0, [r5, #28]
	str	r6, [r3, #40]
	cmp	r0, #0
	str	r5, [r3, #16]
	str	r0, [r3, #36]
	strne	r3, [r0, #40]
	streq	r3, [r5, #24]
	str	r3, [r5, #28]
.L1325:
	ldr	r4, [r4, #40]
	cmp	r4, #0
	beq	.L1333
.L1336:
	ldr	lr, [r4, #0]
	mov	r0, r4
	ldr	r3, [lr, #64]
	blx	r3
	ldr	r2, [r0, #20]
	mov	r3, r0
	cmp	r2, #0
	bne	.L1322
	ldr	ip, [r0, #0]
	mov	r7, r5
	ldr	r1, [ip, #4]
	blx	r1
	b	.L1326
.L1323:
	ldr	r7, [r7, #16]
	cmp	r7, #0
	beq	.L1325
.L1326:
	ldr	r3, [r7, #0]
	mov	r0, r7
	ldr	r2, [r3, #16]
	blx	r2
	cmp	r0, #0
	beq	.L1323
	ldr	lr, [r7, #0]
	mov	r0, r7
	ldr	r1, [lr, #16]
	blx	r1
	cmp	r0, #0
	beq	.L1325
	mov	r7, r5
	b	.L1329
.L1327:
	ldr	r7, [r7, #16]
	cmp	r7, #0
	beq	.L1344
.L1329:
	ldr	r2, [r7, #0]
	mov	r0, r7
	ldr	ip, [r2, #16]
	blx	ip
	cmp	r0, #0
	beq	.L1327
	ldr	r1, [r7, #0]
	mov	r0, r7
	ldr	r3, [r1, #16]
	blx	r3
.L1328:
	mov	r1, #16
	mov	r2, r6
	mov	r3, r6
	str	r6, [sp, #0]
	bl	_ZN13TiXmlDocument8SetErrorEiPKcP16TiXmlParsingData13TiXmlEncoding
	ldr	r4, [r4, #40]
	cmp	r4, #0
	bne	.L1336
.L1333:
	add	sp, sp, #12
	ldmfd	sp!, {r4, r5, r6, r7, pc}
.L1344:
	mov	r0, r7
	b	.L1328
	.size	_ZNK12TiXmlElement6CopyToEPS_, .-_ZNK12TiXmlElement6CopyToEPS_
	.section	.text._ZNK12TiXmlElement5CloneEv,"ax",%progbits
	.align	2
	.global	_ZNK12TiXmlElement5CloneEv
	.hidden	_ZNK12TiXmlElement5CloneEv
	.type	_ZNK12TiXmlElement5CloneEv, %function
_ZNK12TiXmlElement5CloneEv:
	@ args = 0, pretend = 0, frame = 0
	@ frame_needed = 0, uses_anonymous_args = 0
	stmfd	sp!, {r4, r5, r6, lr}
	mov	r5, r0
	ldr	r6, [r0, #32]
	mov	r0, #80
	bl	_Znwj
	mov	ip, #1
	mov	r3, #0
	mvn	r2, #0
	ldr	r1, .L1357
	add	r6, r6, #8
	mov	r4, r0
	str	ip, [r4, #20]
	ldr	ip, .L1357+4
	add	r0, r0, #44
	str	ip, [r4, #0]
	ldr	ip, .L1357+8
	str	ip, [r4, #44]
	str	r3, [r4, #24]
	str	r3, [r4, #12]
	str	r3, [r4, #16]
	str	r3, [r4, #36]
	str	r3, [r4, #40]
	str	r3, [r4, #56]
	str	r3, [r4, #60]
	str	r3, [r4, #28]
	str	r2, [r4, #48]
	str	r1, [r4, #68]
	str	r0, [r4, #72]
	str	r2, [r4, #8]
	str	r2, [r4, #4]
	str	r1, [r4, #32]
	str	r2, [r4, #52]
	str	r1, [r4, #64]
	str	r0, [r4, #76]
	mov	r0, r6
	bl	strlen
	mov	r1, r6
	mov	r2, r0
	add	r0, r4, #32
	bl	_ZN11TiXmlString6assignEPKcj
	mov	r0, r5
	mov	r1, r4
	bl	_ZNK12TiXmlElement6CopyToEPS_
	mov	r0, r4
	ldmfd	sp!, {r4, r5, r6, pc}
.L1358:
	.align	2
.L1357:
	.word	_ZN11TiXmlString8nullrep_E
	.word	.LANCHOR0+224
	.word	_ZTV14TiXmlAttribute+8
	.size	_ZNK12TiXmlElement5CloneEv, .-_ZNK12TiXmlElement5CloneEv
	.section	.text._ZN12TiXmlElementaSERKS_,"ax",%progbits
	.align	2
	.global	_ZN12TiXmlElementaSERKS_
	.hidden	_ZN12TiXmlElementaSERKS_
	.type	_ZN12TiXmlElementaSERKS_, %function
_ZN12TiXmlElementaSERKS_:
	@ args = 0, pretend = 0, frame = 0
	@ frame_needed = 0, uses_anonymous_args = 0
	stmfd	sp!, {r4, r5, r6, r7, r8, lr}
	mov	r4, r0
	ldr	r0, [r0, #24]
	mov	r7, r1
	cmp	r0, #0
	beq	.L1360
.L1366:
	ldr	r1, [r0, #0]
	ldr	r5, [r0, #40]
	ldr	r3, [r1, #4]
	blx	r3
	cmp	r5, #0
	mov	r0, r5
	bne	.L1366
.L1360:
	mov	r5, #0
	str	r5, [r4, #24]
	str	r5, [r4, #28]
	add	r6, r4, #44
	b	.L1362
.L1367:
	cmp	r3, #0
	beq	.L1363
	ldr	r2, [r3, #28]
	ldr	r1, [r3, #32]
	str	r1, [r2, #32]
	ldr	lr, [r3, #0]
	ldr	ip, [r3, #32]
	str	r5, [r3, #32]
	str	r2, [ip, #28]
	str	r5, [r3, #28]
	ldr	r2, [lr, #4]
	blx	r2
.L1362:
	ldr	r3, [r4, #76]
	cmp	r3, r6
	mov	r0, r3
	bne	.L1367
.L1363:
	mov	r0, r7
	mov	r1, r4
	ldmfd	sp!, {r4, r5, r6, r7, r8, lr}
	b	_ZNK12TiXmlElement6CopyToEPS_
	.size	_ZN12TiXmlElementaSERKS_, .-_ZN12TiXmlElementaSERKS_
	.section	.text._ZN12TiXmlElementC1ERKS_,"ax",%progbits
	.align	2
	.global	_ZN12TiXmlElementC1ERKS_
	.hidden	_ZN12TiXmlElementC1ERKS_
	.type	_ZN12TiXmlElementC1ERKS_, %function
_ZN12TiXmlElementC1ERKS_:
	@ args = 0, pretend = 0, frame = 0
	@ frame_needed = 0, uses_anonymous_args = 0
	stmfd	sp!, {r4, lr}
	mov	r4, r0
	add	lr, r0, #44
	mov	r0, #1
	str	r0, [r4, #20]
	ldr	r0, .L1381
	mov	r3, #0
	mvn	r2, #0
	ldr	ip, .L1381+4
	str	r0, [r4, #0]
	ldr	r0, .L1381+8
	str	r0, [r4, #44]
	str	r2, [r4, #48]
	mov	r0, r1
	str	ip, [r4, #68]
	str	lr, [r4, #72]
	str	r3, [r4, #24]
	str	r2, [r4, #8]
	str	r2, [r4, #4]
	str	r3, [r4, #12]
	str	ip, [r4, #32]
	str	r3, [r4, #16]
	str	r3, [r4, #36]
	str	r3, [r4, #40]
	str	r2, [r4, #52]
	str	r3, [r4, #56]
	str	ip, [r4, #64]
	str	r3, [r4, #60]
	str	lr, [r4, #76]
	str	r3, [r4, #28]
	mov	r1, r4
	bl	_ZNK12TiXmlElement6CopyToEPS_
	mov	r0, r4
	ldmfd	sp!, {r4, pc}
.L1382:
	.align	2
.L1381:
	.word	.LANCHOR0+224
	.word	_ZN11TiXmlString8nullrep_E
	.word	_ZTV14TiXmlAttribute+8
	.size	_ZN12TiXmlElementC1ERKS_, .-_ZN12TiXmlElementC1ERKS_
	.section	.text._ZN12TiXmlElementC2ERKS_,"ax",%progbits
	.align	2
	.global	_ZN12TiXmlElementC2ERKS_
	.hidden	_ZN12TiXmlElementC2ERKS_
	.type	_ZN12TiXmlElementC2ERKS_, %function
_ZN12TiXmlElementC2ERKS_:
	@ args = 0, pretend = 0, frame = 0
	@ frame_needed = 0, uses_anonymous_args = 0
	stmfd	sp!, {r4, lr}
	mov	r4, r0
	add	lr, r0, #44
	mov	r0, #1
	str	r0, [r4, #20]
	ldr	r0, .L1396
	mov	r3, #0
	mvn	r2, #0
	ldr	ip, .L1396+4
	str	r0, [r4, #0]
	ldr	r0, .L1396+8
	str	r0, [r4, #44]
	str	r2, [r4, #48]
	mov	r0, r1
	str	ip, [r4, #68]
	str	lr, [r4, #72]
	str	r3, [r4, #24]
	str	r2, [r4, #8]
	str	r2, [r4, #4]
	str	r3, [r4, #12]
	str	ip, [r4, #32]
	str	r3, [r4, #16]
	str	r3, [r4, #36]
	str	r3, [r4, #40]
	str	r2, [r4, #52]
	str	r3, [r4, #56]
	str	ip, [r4, #64]
	str	r3, [r4, #60]
	str	lr, [r4, #76]
	str	r3, [r4, #28]
	mov	r1, r4
	bl	_ZNK12TiXmlElement6CopyToEPS_
	mov	r0, r4
	ldmfd	sp!, {r4, pc}
.L1397:
	.align	2
.L1396:
	.word	.LANCHOR0+224
	.word	_ZN11TiXmlString8nullrep_E
	.word	_ZTV14TiXmlAttribute+8
	.size	_ZN12TiXmlElementC2ERKS_, .-_ZN12TiXmlElementC2ERKS_
	.section	.text._ZN9TiXmlNode14InsertEndChildERKS_,"ax",%progbits
	.align	2
	.global	_ZN9TiXmlNode14InsertEndChildERKS_
	.hidden	_ZN9TiXmlNode14InsertEndChildERKS_
	.type	_ZN9TiXmlNode14InsertEndChildERKS_, %function
_ZN9TiXmlNode14InsertEndChildERKS_:
	@ args = 0, pretend = 0, frame = 0
	@ frame_needed = 0, uses_anonymous_args = 0
	stmfd	sp!, {r4, r5, lr}
	ldr	r3, [r1, #20]
	sub	sp, sp, #12
	cmp	r3, #0
	mov	r5, r0
	bne	.L1399
	cmp	r0, #0
	beq	.L1400
	mov	r4, r0
	b	.L1403
.L1401:
	ldr	r4, [r4, #16]
	cmp	r4, #0
	beq	.L1400
.L1403:
	ldr	r2, [r4, #0]
	mov	r0, r4
	ldr	r1, [r2, #16]
	blx	r1
	cmp	r0, #0
	beq	.L1401
	ldr	lr, [r4, #0]
	mov	r0, r4
	ldr	ip, [lr, #16]
	blx	ip
	cmp	r0, #0
	bne	.L1412
.L1400:
	mov	r3, #0
.L1406:
	mov	r0, r3
	add	sp, sp, #12
	ldmfd	sp!, {r4, r5, pc}
.L1399:
	ldr	lr, [r1, #0]
	mov	r0, r1
	ldr	ip, [lr, #64]
	blx	ip
	subs	r3, r0, #0
	beq	.L1406
	ldr	r4, [r3, #20]
	cmp	r4, #0
	beq	.L1416
	ldr	r0, [r5, #28]
	mov	r2, #0
	cmp	r0, #0
	str	r2, [r3, #40]
	str	r5, [r3, #16]
	str	r0, [r3, #36]
	strne	r3, [r0, #40]
	streq	r3, [r5, #24]
	str	r3, [r5, #28]
	b	.L1406
.L1404:
	ldr	r5, [r5, #16]
	cmp	r5, #0
	beq	.L1417
.L1412:
	ldr	r3, [r5, #0]
	mov	r0, r5
	ldr	r4, [r3, #16]
	blx	r4
	cmp	r0, #0
	beq	.L1404
	ldr	r2, [r5, #0]
	mov	r0, r5
	ldr	r1, [r2, #16]
	blx	r1
.L1405:
	mov	r4, #0
.L1415:
	mov	r3, r4
	mov	r1, #16
	mov	r2, r4
	str	r4, [sp, #0]
	bl	_ZN13TiXmlDocument8SetErrorEiPKcP16TiXmlParsingData13TiXmlEncoding
	mov	r3, r4
	b	.L1406
.L1417:
	mov	r0, r5
	b	.L1405
.L1416:
	ldr	r1, [r3, #0]
	ldr	r3, [r1, #4]
	blx	r3
	mov	r0, r5
	bl	_ZNK9TiXmlNode11GetDocumentEv
	subs	r3, r0, #0
	beq	.L1406
	mov	r0, r5
	bl	_ZNK9TiXmlNode11GetDocumentEv
	b	.L1415
	.size	_ZN9TiXmlNode14InsertEndChildERKS_, .-_ZN9TiXmlNode14InsertEndChildERKS_
	.section	.text._ZN9TiXmlNode12LinkEndChildEPS_,"ax",%progbits
	.align	2
	.global	_ZN9TiXmlNode12LinkEndChildEPS_
	.hidden	_ZN9TiXmlNode12LinkEndChildEPS_
	.type	_ZN9TiXmlNode12LinkEndChildEPS_, %function
_ZN9TiXmlNode12LinkEndChildEPS_:
	@ args = 0, pretend = 0, frame = 0
	@ frame_needed = 0, uses_anonymous_args = 0
	stmfd	sp!, {r4, r5, lr}
	ldr	r3, [r1, #20]
	sub	sp, sp, #12
	cmp	r3, #0
	mov	r5, r0
	beq	.L1429
	ldr	r0, [r0, #28]
	mov	r2, #0
	cmp	r0, #0
	str	r2, [r1, #40]
	str	r5, [r1, #16]
	str	r0, [r1, #36]
	strne	r1, [r0, #40]
	streq	r1, [r5, #24]
	str	r1, [r5, #28]
.L1424:
	mov	r0, r1
	add	sp, sp, #12
	ldmfd	sp!, {r4, r5, pc}
.L1429:
	ldr	r2, [r1, #0]
	mov	r0, r1
	ldr	r1, [r2, #4]
	blx	r1
	cmp	r5, #0
	beq	.L1420
	mov	r4, r5
	b	.L1423
.L1421:
	ldr	r4, [r4, #16]
	cmp	r4, #0
	beq	.L1420
.L1423:
	ldr	lr, [r4, #0]
	mov	r0, r4
	ldr	ip, [lr, #16]
	blx	ip
	cmp	r0, #0
	beq	.L1421
	ldr	r1, [r4, #0]
	mov	r0, r4
	ldr	r3, [r1, #16]
	blx	r3
	cmp	r0, #0
	beq	.L1420
	mov	r4, #0
	mov	r0, r5
	bl	_ZNK9TiXmlNode11GetDocumentEv
	mov	r1, #16
	mov	r2, r4
	mov	r3, r4
	str	r4, [sp, #0]
	bl	_ZN13TiXmlDocument8SetErrorEiPKcP16TiXmlParsingData13TiXmlEncoding
	mov	r1, r4
	b	.L1424
.L1420:
	mov	r1, #0
	b	.L1424
	.size	_ZN9TiXmlNode12LinkEndChildEPS_, .-_ZN9TiXmlNode12LinkEndChildEPS_
	.hidden	_ZN9TiXmlBase18condenseWhiteSpaceE
	.global	_ZN9TiXmlBase18condenseWhiteSpaceE
	.hidden	_ZTV12TiXmlPrinter
	.global	_ZTV12TiXmlPrinter
	.hidden	_ZTV12TiXmlUnknown
	.global	_ZTV12TiXmlUnknown
	.hidden	_ZTV16TiXmlDeclaration
	.global	_ZTV16TiXmlDeclaration
	.hidden	_ZTV9TiXmlText
	.global	_ZTV9TiXmlText
	.hidden	_ZTV12TiXmlComment
	.global	_ZTV12TiXmlComment
	.hidden	_ZTV12TiXmlElement
	.global	_ZTV12TiXmlElement
	.hidden	_ZTV9TiXmlNode
	.global	_ZTV9TiXmlNode
	.hidden	_ZTS12TiXmlPrinter
	.global	_ZTS12TiXmlPrinter
	.hidden	_ZTI12TiXmlPrinter
	.global	_ZTI12TiXmlPrinter
	.hidden	_ZTS12TiXmlUnknown
	.global	_ZTS12TiXmlUnknown
	.hidden	_ZTI12TiXmlUnknown
	.global	_ZTI12TiXmlUnknown
	.hidden	_ZTS16TiXmlDeclaration
	.global	_ZTS16TiXmlDeclaration
	.hidden	_ZTI16TiXmlDeclaration
	.global	_ZTI16TiXmlDeclaration
	.hidden	_ZTS9TiXmlText
	.global	_ZTS9TiXmlText
	.hidden	_ZTI9TiXmlText
	.global	_ZTI9TiXmlText
	.hidden	_ZTS12TiXmlComment
	.global	_ZTS12TiXmlComment
	.hidden	_ZTI12TiXmlComment
	.global	_ZTI12TiXmlComment
	.hidden	_ZTS12TiXmlElement
	.global	_ZTS12TiXmlElement
	.hidden	_ZTI12TiXmlElement
	.global	_ZTI12TiXmlElement
	.hidden	_ZTS9TiXmlNode
	.global	_ZTS9TiXmlNode
	.hidden	_ZTI9TiXmlNode
	.global	_ZTI9TiXmlNode
	.hidden	_ZTI12TiXmlVisitor
	.weak	_ZTI12TiXmlVisitor
	.section	.rodata._ZTI12TiXmlVisitor,"aG",%progbits,_ZTI12TiXmlVisitor,comdat
	.align	2
	.type	_ZTI12TiXmlVisitor, %object
	.size	_ZTI12TiXmlVisitor, 8
_ZTI12TiXmlVisitor:
	.word	_ZTVN10__cxxabiv117__class_type_infoE+8
	.word	_ZTS12TiXmlVisitor
	.hidden	_ZTI9TiXmlBase
	.weak	_ZTI9TiXmlBase
	.section	.rodata._ZTI9TiXmlBase,"aG",%progbits,_ZTI9TiXmlBase,comdat
	.align	2
	.type	_ZTI9TiXmlBase, %object
	.size	_ZTI9TiXmlBase, 8
_ZTI9TiXmlBase:
	.word	_ZTVN10__cxxabiv117__class_type_infoE+8
	.word	_ZTS9TiXmlBase
	.hidden	_ZTS12TiXmlVisitor
	.weak	_ZTS12TiXmlVisitor
	.section	.rodata._ZTS12TiXmlVisitor,"aG",%progbits,_ZTS12TiXmlVisitor,comdat
	.align	2
	.type	_ZTS12TiXmlVisitor, %object
	.size	_ZTS12TiXmlVisitor, 15
_ZTS12TiXmlVisitor:
	.ascii	"12TiXmlVisitor\000"
	.hidden	_ZTS9TiXmlBase
	.weak	_ZTS9TiXmlBase
	.section	.rodata._ZTS9TiXmlBase,"aG",%progbits,_ZTS9TiXmlBase,comdat
	.align	2
	.type	_ZTS9TiXmlBase, %object
	.size	_ZTS9TiXmlBase, 11
_ZTS9TiXmlBase:
	.ascii	"9TiXmlBase\000"
	.hidden	_ZTV12TiXmlVisitor
	.weak	_ZTV12TiXmlVisitor
	.section	.rodata._ZTV12TiXmlVisitor,"aG",%progbits,_ZTV12TiXmlVisitor,comdat
	.align	3
	.type	_ZTV12TiXmlVisitor, %object
	.size	_ZTV12TiXmlVisitor, 48
_ZTV12TiXmlVisitor:
	.word	0
	.word	_ZTI12TiXmlVisitor
	.word	_ZN12TiXmlVisitorD1Ev
	.word	_ZN12TiXmlVisitorD0Ev
	.word	_ZN12TiXmlVisitor10VisitEnterERK13TiXmlDocument
	.word	_ZN12TiXmlVisitor9VisitExitERK13TiXmlDocument
	.word	_ZN12TiXmlVisitor10VisitEnterERK12TiXmlElementPK14TiXmlAttribute
	.word	_ZN12TiXmlVisitor9VisitExitERK12TiXmlElement
	.word	_ZN12TiXmlVisitor5VisitERK16TiXmlDeclaration
	.word	_ZN12TiXmlVisitor5VisitERK9TiXmlText
	.word	_ZN12TiXmlVisitor5VisitERK12TiXmlComment
	.word	_ZN12TiXmlVisitor5VisitERK12TiXmlUnknown
	.hidden	_ZTV9TiXmlBase
	.weak	_ZTV9TiXmlBase
	.section	.rodata._ZTV9TiXmlBase,"aG",%progbits,_ZTV9TiXmlBase,comdat
	.align	3
	.type	_ZTV9TiXmlBase, %object
	.size	_ZTV9TiXmlBase, 24
_ZTV9TiXmlBase:
	.word	0
	.word	_ZTI9TiXmlBase
	.word	_ZN9TiXmlBaseD1Ev
	.word	_ZN9TiXmlBaseD0Ev
	.word	__cxa_pure_virtual
	.word	__cxa_pure_virtual
	.section	.rodata
	.align	3
	.set	.LANCHOR0,. + 0
	.type	_ZTV9TiXmlNode, %object
	.size	_ZTV9TiXmlNode, 80
_ZTV9TiXmlNode:
	.word	0
	.word	_ZTI9TiXmlNode
	.word	_ZN9TiXmlNodeD1Ev
	.word	_ZN9TiXmlNodeD0Ev
	.word	__cxa_pure_virtual
	.word	__cxa_pure_virtual
	.word	_ZNK9TiXmlNode10ToDocumentEv
	.word	_ZNK9TiXmlNode9ToElementEv
	.word	_ZNK9TiXmlNode9ToCommentEv
	.word	_ZNK9TiXmlNode9ToUnknownEv
	.word	_ZNK9TiXmlNode6ToTextEv
	.word	_ZNK9TiXmlNode13ToDeclarationEv
	.word	_ZN9TiXmlNode10ToDocumentEv
	.word	_ZN9TiXmlNode9ToElementEv
	.word	_ZN9TiXmlNode9ToCommentEv
	.word	_ZN9TiXmlNode9ToUnknownEv
	.word	_ZN9TiXmlNode6ToTextEv
	.word	_ZN9TiXmlNode13ToDeclarationEv
	.word	__cxa_pure_virtual
	.word	__cxa_pure_virtual
	.type	_ZTV12TiXmlPrinter, %object
	.size	_ZTV12TiXmlPrinter, 48
_ZTV12TiXmlPrinter:
	.word	0
	.word	_ZTI12TiXmlPrinter
	.word	_ZN12TiXmlPrinterD1Ev
	.word	_ZN12TiXmlPrinterD0Ev
	.word	_ZN12TiXmlPrinter10VisitEnterERK13TiXmlDocument
	.word	_ZN12TiXmlPrinter9VisitExitERK13TiXmlDocument
	.word	_ZN12TiXmlPrinter10VisitEnterERK12TiXmlElementPK14TiXmlAttribute
	.word	_ZN12TiXmlPrinter9VisitExitERK12TiXmlElement
	.word	_ZN12TiXmlPrinter5VisitERK16TiXmlDeclaration
	.word	_ZN12TiXmlPrinter5VisitERK9TiXmlText
	.word	_ZN12TiXmlPrinter5VisitERK12TiXmlComment
	.word	_ZN12TiXmlPrinter5VisitERK12TiXmlUnknown
	.type	_ZTV16TiXmlDeclaration, %object
	.size	_ZTV16TiXmlDeclaration, 84
_ZTV16TiXmlDeclaration:
	.word	0
	.word	_ZTI16TiXmlDeclaration
	.word	_ZN16TiXmlDeclarationD1Ev
	.word	_ZN16TiXmlDeclarationD0Ev
	.word	_ZNK16TiXmlDeclaration5PrintEP8__XXFILEi
	.word	_ZN16TiXmlDeclaration5ParseEPKcP16TiXmlParsingData13TiXmlEncoding
	.word	_ZNK9TiXmlNode10ToDocumentEv
	.word	_ZNK9TiXmlNode9ToElementEv
	.word	_ZNK9TiXmlNode9ToCommentEv
	.word	_ZNK9TiXmlNode9ToUnknownEv
	.word	_ZNK9TiXmlNode6ToTextEv
	.word	_ZNK16TiXmlDeclaration13ToDeclarationEv
	.word	_ZN9TiXmlNode10ToDocumentEv
	.word	_ZN9TiXmlNode9ToElementEv
	.word	_ZN9TiXmlNode9ToCommentEv
	.word	_ZN9TiXmlNode9ToUnknownEv
	.word	_ZN9TiXmlNode6ToTextEv
	.word	_ZN16TiXmlDeclaration13ToDeclarationEv
	.word	_ZNK16TiXmlDeclaration5CloneEv
	.word	_ZNK16TiXmlDeclaration6AcceptEP12TiXmlVisitor
	.word	_ZNK16TiXmlDeclaration5PrintEP8__XXFILEiP11TiXmlString
	.space	4
	.type	_ZTV12TiXmlElement, %object
	.size	_ZTV12TiXmlElement, 80
_ZTV12TiXmlElement:
	.word	0
	.word	_ZTI12TiXmlElement
	.word	_ZN12TiXmlElementD1Ev
	.word	_ZN12TiXmlElementD0Ev
	.word	_ZNK12TiXmlElement5PrintEP8__XXFILEi
	.word	_ZN12TiXmlElement5ParseEPKcP16TiXmlParsingData13TiXmlEncoding
	.word	_ZNK9TiXmlNode10ToDocumentEv
	.word	_ZNK12TiXmlElement9ToElementEv
	.word	_ZNK9TiXmlNode9ToCommentEv
	.word	_ZNK9TiXmlNode9ToUnknownEv
	.word	_ZNK9TiXmlNode6ToTextEv
	.word	_ZNK9TiXmlNode13ToDeclarationEv
	.word	_ZN9TiXmlNode10ToDocumentEv
	.word	_ZN12TiXmlElement9ToElementEv
	.word	_ZN9TiXmlNode9ToCommentEv
	.word	_ZN9TiXmlNode9ToUnknownEv
	.word	_ZN9TiXmlNode6ToTextEv
	.word	_ZN9TiXmlNode13ToDeclarationEv
	.word	_ZNK12TiXmlElement5CloneEv
	.word	_ZNK12TiXmlElement6AcceptEP12TiXmlVisitor
	.type	_ZTV12TiXmlComment, %object
	.size	_ZTV12TiXmlComment, 80
_ZTV12TiXmlComment:
	.word	0
	.word	_ZTI12TiXmlComment
	.word	_ZN12TiXmlCommentD1Ev
	.word	_ZN12TiXmlCommentD0Ev
	.word	_ZNK12TiXmlComment5PrintEP8__XXFILEi
	.word	_ZN12TiXmlComment5ParseEPKcP16TiXmlParsingData13TiXmlEncoding
	.word	_ZNK9TiXmlNode10ToDocumentEv
	.word	_ZNK9TiXmlNode9ToElementEv
	.word	_ZNK12TiXmlComment9ToCommentEv
	.word	_ZNK9TiXmlNode9ToUnknownEv
	.word	_ZNK9TiXmlNode6ToTextEv
	.word	_ZNK9TiXmlNode13ToDeclarationEv
	.word	_ZN9TiXmlNode10ToDocumentEv
	.word	_ZN9TiXmlNode9ToElementEv
	.word	_ZN12TiXmlComment9ToCommentEv
	.word	_ZN9TiXmlNode9ToUnknownEv
	.word	_ZN9TiXmlNode6ToTextEv
	.word	_ZN9TiXmlNode13ToDeclarationEv
	.word	_ZNK12TiXmlComment5CloneEv
	.word	_ZNK12TiXmlComment6AcceptEP12TiXmlVisitor
	.type	_ZTV12TiXmlUnknown, %object
	.size	_ZTV12TiXmlUnknown, 80
_ZTV12TiXmlUnknown:
	.word	0
	.word	_ZTI12TiXmlUnknown
	.word	_ZN12TiXmlUnknownD1Ev
	.word	_ZN12TiXmlUnknownD0Ev
	.word	_ZNK12TiXmlUnknown5PrintEP8__XXFILEi
	.word	_ZN12TiXmlUnknown5ParseEPKcP16TiXmlParsingData13TiXmlEncoding
	.word	_ZNK9TiXmlNode10ToDocumentEv
	.word	_ZNK9TiXmlNode9ToElementEv
	.word	_ZNK9TiXmlNode9ToCommentEv
	.word	_ZNK12TiXmlUnknown9ToUnknownEv
	.word	_ZNK9TiXmlNode6ToTextEv
	.word	_ZNK9TiXmlNode13ToDeclarationEv
	.word	_ZN9TiXmlNode10ToDocumentEv
	.word	_ZN9TiXmlNode9ToElementEv
	.word	_ZN9TiXmlNode9ToCommentEv
	.word	_ZN12TiXmlUnknown9ToUnknownEv
	.word	_ZN9TiXmlNode6ToTextEv
	.word	_ZN9TiXmlNode13ToDeclarationEv
	.word	_ZNK12TiXmlUnknown5CloneEv
	.word	_ZNK12TiXmlUnknown6AcceptEP12TiXmlVisitor
	.type	_ZTV9TiXmlText, %object
	.size	_ZTV9TiXmlText, 80
_ZTV9TiXmlText:
	.word	0
	.word	_ZTI9TiXmlText
	.word	_ZN9TiXmlTextD1Ev
	.word	_ZN9TiXmlTextD0Ev
	.word	_ZNK9TiXmlText5PrintEP8__XXFILEi
	.word	_ZN9TiXmlText5ParseEPKcP16TiXmlParsingData13TiXmlEncoding
	.word	_ZNK9TiXmlNode10ToDocumentEv
	.word	_ZNK9TiXmlNode9ToElementEv
	.word	_ZNK9TiXmlNode9ToCommentEv
	.word	_ZNK9TiXmlNode9ToUnknownEv
	.word	_ZNK9TiXmlText6ToTextEv
	.word	_ZNK9TiXmlNode13ToDeclarationEv
	.word	_ZN9TiXmlNode10ToDocumentEv
	.word	_ZN9TiXmlNode9ToElementEv
	.word	_ZN9TiXmlNode9ToCommentEv
	.word	_ZN9TiXmlNode9ToUnknownEv
	.word	_ZN9TiXmlText6ToTextEv
	.word	_ZN9TiXmlNode13ToDeclarationEv
	.word	_ZNK9TiXmlText5CloneEv
	.word	_ZNK9TiXmlText6AcceptEP12TiXmlVisitor
	.type	_ZTS12TiXmlPrinter, %object
	.size	_ZTS12TiXmlPrinter, 15
_ZTS12TiXmlPrinter:
	.ascii	"12TiXmlPrinter\000"
	.space	1
	.type	_ZTI12TiXmlPrinter, %object
	.size	_ZTI12TiXmlPrinter, 12
_ZTI12TiXmlPrinter:
	.word	_ZTVN10__cxxabiv120__si_class_type_infoE+8
	.word	_ZTS12TiXmlPrinter
	.word	_ZTI12TiXmlVisitor
	.type	_ZTS12TiXmlUnknown, %object
	.size	_ZTS12TiXmlUnknown, 15
_ZTS12TiXmlUnknown:
	.ascii	"12TiXmlUnknown\000"
	.space	1
	.type	_ZTI12TiXmlUnknown, %object
	.size	_ZTI12TiXmlUnknown, 12
_ZTI12TiXmlUnknown:
	.word	_ZTVN10__cxxabiv120__si_class_type_infoE+8
	.word	_ZTS12TiXmlUnknown
	.word	_ZTI9TiXmlNode
	.type	_ZTS16TiXmlDeclaration, %object
	.size	_ZTS16TiXmlDeclaration, 19
_ZTS16TiXmlDeclaration:
	.ascii	"16TiXmlDeclaration\000"
	.space	1
	.type	_ZTI16TiXmlDeclaration, %object
	.size	_ZTI16TiXmlDeclaration, 12
_ZTI16TiXmlDeclaration:
	.word	_ZTVN10__cxxabiv120__si_class_type_infoE+8
	.word	_ZTS16TiXmlDeclaration
	.word	_ZTI9TiXmlNode
	.type	_ZTS9TiXmlText, %object
	.size	_ZTS9TiXmlText, 11
_ZTS9TiXmlText:
	.ascii	"9TiXmlText\000"
	.space	1
	.type	_ZTI9TiXmlText, %object
	.size	_ZTI9TiXmlText, 12
_ZTI9TiXmlText:
	.word	_ZTVN10__cxxabiv120__si_class_type_infoE+8
	.word	_ZTS9TiXmlText
	.word	_ZTI9TiXmlNode
	.type	_ZTS12TiXmlComment, %object
	.size	_ZTS12TiXmlComment, 15
_ZTS12TiXmlComment:
	.ascii	"12TiXmlComment\000"
	.space	1
	.type	_ZTI12TiXmlComment, %object
	.size	_ZTI12TiXmlComment, 12
_ZTI12TiXmlComment:
	.word	_ZTVN10__cxxabiv120__si_class_type_infoE+8
	.word	_ZTS12TiXmlComment
	.word	_ZTI9TiXmlNode
	.type	_ZTS12TiXmlElement, %object
	.size	_ZTS12TiXmlElement, 15
_ZTS12TiXmlElement:
	.ascii	"12TiXmlElement\000"
	.space	1
	.type	_ZTI12TiXmlElement, %object
	.size	_ZTI12TiXmlElement, 12
_ZTI12TiXmlElement:
	.word	_ZTVN10__cxxabiv120__si_class_type_infoE+8
	.word	_ZTS12TiXmlElement
	.word	_ZTI9TiXmlNode
	.type	_ZTS9TiXmlNode, %object
	.size	_ZTS9TiXmlNode, 11
_ZTS9TiXmlNode:
	.ascii	"9TiXmlNode\000"
	.space	1
	.type	_ZTI9TiXmlNode, %object
	.size	_ZTI9TiXmlNode, 12
_ZTI9TiXmlNode:
	.word	_ZTVN10__cxxabiv120__si_class_type_infoE+8
	.word	_ZTS9TiXmlNode
	.word	_ZTI9TiXmlBase
	.data
	.type	_ZN9TiXmlBase18condenseWhiteSpaceE, %object
	.size	_ZN9TiXmlBase18condenseWhiteSpaceE, 1
_ZN9TiXmlBase18condenseWhiteSpaceE:
	.byte	1
	.section	.rodata.str1.4,"aMS",%progbits,1
	.align	2
.LC0:
	.ascii	"    \000"
	.space	3
.LC1:
	.ascii	"<%s>\000"
	.space	3
.LC2:
	.ascii	"<!--%s-->\000"
	.space	2
.LC3:
	.ascii	"<%s\000"
.LC4:
	.ascii	" />\000"
.LC5:
	.ascii	"</%s>\000"
	.space	2
.LC6:
	.ascii	"&#x%02X;\000"
	.space	3
.LC7:
	.ascii	"%lf\000"
.LC8:
	.ascii	"%d\000"
	.space	1
.LC9:
	.ascii	"rb\000"
	.space	1
.LC10:
	.ascii	"<![CDATA[%s]]>\012\000"
.LC11:
	.ascii	"\000"
	.space	3
.LC12:
	.ascii	"w\000"
	.space	2
.LC13:
	.ascii	"%f\000"
	.space	1
.LC14:
	.ascii	"<\000"
	.space	2
.LC15:
	.ascii	">\000"
	.space	2
.LC16:
	.ascii	"<!--\000"
	.space	3
.LC17:
	.ascii	"-->\000"
.LC18:
	.ascii	"</\000"
	.space	1
.LC19:
	.ascii	"<?xml \000"
	.space	1
.LC20:
	.ascii	"version=\"%s\" \000"
	.space	2
.LC21:
	.ascii	"version=\"\000"
	.space	2
.LC22:
	.ascii	"\" \000"
	.space	1
.LC23:
	.ascii	"encoding=\"%s\" \000"
	.space	1
.LC24:
	.ascii	"encoding=\"\000"
	.space	1
.LC25:
	.ascii	"standalone=\"%s\" \000"
	.space	3
.LC26:
	.ascii	"standalone=\"\000"
	.space	3
.LC27:
	.ascii	"?>\000"
	.space	1
.LC28:
	.ascii	"<![CDATA[\000"
	.space	2
.LC29:
	.ascii	"]]>\000"
.LC30:
	.ascii	"%s=\"%s\"\000"
.LC31:
	.ascii	"=\"\000"
	.space	1
.LC32:
	.ascii	"\"\000"
	.space	2
.LC33:
	.ascii	"%s='%s'\000"
.LC34:
	.ascii	"='\000"
	.space	1
.LC35:
	.ascii	"'\000"
	.space	2
.LC36:
	.ascii	" \000"
	.hidden	_ZTV16TiXmlDeclaration
	.hidden	_ZTV12TiXmlComment
	.hidden	_ZTV12TiXmlElement
	.hidden	_ZTV9TiXmlNode
	.hidden	_ZTV12TiXmlPrinter
	.hidden	_ZTV12TiXmlVisitor
	.hidden	_ZTV12TiXmlUnknown
	.hidden	_ZTV9TiXmlText
	.hidden	_ZTV9TiXmlBase
	.ident	"GCC: (Sourcery G++ Lite 2010q1-188) 4.4.1"
